 PhysXCommon_64

 Timestamp is 616e9e2e (Tue Oct 19 19:30:06 2021)

 Preferred load address is 0000000180000000

 Start         Length     Name                   Class
 0001:00000000 000028c0H .text$di                CODE
 0001:000028c0 00134250H .text$mn                CODE
 0001:00136b10 00000040H .text$mn$00             CODE
 0001:00136b50 00000490H .text$x                 CODE
 0002:00000000 00000258H .idata$5                DATA
 0002:00000258 00000028H .00cfg                  DATA
 0002:00000280 00000008H .CRT$XCA                DATA
 0002:00000288 00001428H .CRT$XCU                DATA
 0002:000016b0 00000008H .CRT$XCZ                DATA
 0002:000016b8 00000008H .CRT$XIA                DATA
 0002:000016c0 00000018H .CRT$XIC                DATA
 0002:000016d8 00000008H .CRT$XIZ                DATA
 0002:000016e0 00000008H .CRT$XPA                DATA
 0002:000016e8 00000010H .CRT$XPX                DATA
 0002:000016f8 00000008H .CRT$XPXA               DATA
 0002:00001700 00000008H .CRT$XPZ                DATA
 0002:00001708 00000008H .CRT$XTA                DATA
 0002:00001710 00000010H .CRT$XTZ                DATA
 0002:00001718 00000000H .gehcont$y              DATA
 0002:00001718 00000000H .gfids$y                DATA
 0002:00001720 0000dfe0H .rdata                  DATA
 0002:0000f700 00000000H .rdata$CastGuardVftablesA DATA
 0002:0000f700 00000000H .rdata$CastGuardVftablesC DATA
 0002:0000f700 0000043cH .rdata$r                DATA
 0002:0000fb3c 000001b4H .rdata$voltmd           DATA
 0002:0000fcf0 00000418H .rdata$zzzdbg           DATA
 0002:00010108 00000008H .rtc$IAA                DATA
 0002:00010110 00000008H .rtc$IZZ                DATA
 0002:00010118 00000008H .rtc$TAA                DATA
 0002:00010120 00000008H .rtc$TZZ                DATA
 0002:00010128 0000c7d0H .xdata                  DATA
 0002:0001c8f8 00000084H .xdata$x                DATA
 0002:0001c97c 00000020H .didat$2                DATA
 0002:0001c99c 00000024H .didat$3                DATA
 0002:0001c9c0 000000b8H .didat$4                DATA
 0002:0001ca78 00000430H .didat$6                DATA
 0002:0001cea8 000000b8H .didat$7                DATA
 0002:0001cf60 0000a0dcH .edata                  DATA
 0002:0002703c 00000014H .idata$2                DATA
 0002:00027050 00000018H .idata$3                DATA
 0002:00027068 00000258H .idata$4                DATA
 0002:000272c0 0000057cH .idata$6                DATA
 0003:00000000 00001430H .data                   DATA
 0003:00001430 00000438H .data$r                 DATA
 0003:00001868 000000f0H .data$rs                DATA
 0003:00001958 000000b8H .didat$5                DATA
 0003:00001a10 00003af0H .bss                    DATA
 0004:00000000 00006f30H .pdata                  DATA
 0005:00000000 00002304H _RDATA                  DATA
 0006:00000000 000000a0H .rsrc$01                DATA
 0006:000000a0 000004b0H .rsrc$02                DATA

  Address         Publics by Value              Rva+Base               Lib:Object

 0000:00000000       __arm64x_redirection_metadata 0000000000000000     <absolute>
 0000:00000000       __guard_iat_count          0000000000000000     <absolute>
 0000:00000000       __guard_longjmp_count      0000000000000000     <absolute>
 0000:00000000       __guard_eh_cont_count      0000000000000000     <absolute>
 0000:00000000       __dynamic_value_reloc_table 0000000000000000     <absolute>
 0000:00000000       __hybrid_auxiliary_iat     0000000000000000     <absolute>
 0000:00000000       __hybrid_auxiliary_iat_copy 0000000000000000     <absolute>
 0000:00000000       __guard_longjmp_table      0000000000000000     <absolute>
 0000:00000000       __hybrid_code_map          0000000000000000     <absolute>
 0000:00000000       __guard_iat_table          0000000000000000     <absolute>
 0000:00000000       __x64_code_ranges_to_entry_points 0000000000000000     <absolute>
 0000:00000000       __AbsoluteZero             0000000000000000     <absolute>
 0000:00000000       __x64_code_ranges_to_entry_points_count 0000000000000000     <absolute>
 0000:00000000       __guard_check_icall_a64n_fptr 0000000000000000     <absolute>
 0000:00000000       __guard_fids_table         0000000000000000     <absolute>
 0000:00000000       ___safe_se_handler_count   0000000000000000     <absolute>
 0000:00000000       __guard_fids_count         0000000000000000     <absolute>
 0000:00000000       ___safe_se_handler_table   0000000000000000     <absolute>
 0000:00000000       __arm64x_redirection_metadata_count 0000000000000000     <absolute>
 0000:00000000       __enclave_config           0000000000000000     <absolute>
 0000:00000000       __arm64x_extra_rfe_table   0000000000000000     <absolute>
 0000:00000000       __guard_eh_cont_table      0000000000000000     <absolute>
 0000:00000000       __arm64x_native_entrypoint 0000000000000000     <absolute>
 0000:00000000       __arm64x_extra_rfe_table_size 0000000000000000     <absolute>
 0000:00000000       __hybrid_code_map_count    0000000000000000     <absolute>
 0000:00000100       __guard_flags              0000000000000100     <absolute>
 0000:00000000       __ImageBase                0000000180000000     <linker-defined>
 0001:000028c0       ??_ECollection@Cm@physx@@UEAAPEAXI@Z 00000001800038c0 f i CmCollection.obj
 0001:000028c0       ??_GCollection@Cm@physx@@UEAAPEAXI@Z 00000001800038c0 f i CmCollection.obj
 0001:00002970       ??_EPxCollection@physx@@MEAAPEAXI@Z 0000000180003970 f i CmCollection.obj
 0001:00002970       ??_GPxCollection@physx@@MEAAPEAXI@Z 0000000180003970 f i CmCollection.obj
 0001:000029a0       ?PxCreateCollection@@YAPEAVPxCollection@physx@@XZ 00000001800039a0 f   CmCollection.obj
 0001:00002aa0       ?add@Collection@Cm@physx@@UEAAXAEAVPxBase@3@_K@Z 0000000180003aa0 f   CmCollection.obj
 0001:00002b90       ?add@Collection@Cm@physx@@UEAAXAEAVPxCollection@3@@Z 0000000180003b90 f   CmCollection.obj
 0001:00002db0       ?addId@Collection@Cm@physx@@UEAAXAEAVPxBase@3@_K@Z 0000000180003db0 f   CmCollection.obj
 0001:00002f00       ?contains@Collection@Cm@physx@@UEBA_NAEAVPxBase@3@@Z 0000000180003f00 f   CmCollection.obj
 0001:00002fb0       ?create@?$HashBase@V?$Pair@QEAVPxBase@physx@@_K@shdfnd@physx@@PEAVPxBase@3@U?$Hash@PEAVPxBase@physx@@@23@UGetKey@?$HashMapBase@PEAVPxBase@physx@@_KU?$Hash@PEAVPxBase@physx@@@shdfnd@2@VNonTrackingAllocator@42@@internal@23@VNonTrackingAllocator@23@$00@internal@shdfnd@physx@@QEAAPEAV?$Pair@QEAVPxBase@physx@@_K@34@AEBQEAVPxBase@4@AEA_N@Z 0000000180003fb0 f i CmCollection.obj
 0001:00002fb0       ?create@?$HashBase@V?$Pair@$$CB_KPEAVPxBase@physx@@@shdfnd@physx@@_KU?$Hash@_K@23@UGetKey@?$HashMapBase@_KPEAVPxBase@physx@@U?$Hash@_K@shdfnd@2@VNonTrackingAllocator@42@@internal@23@VNonTrackingAllocator@23@$00@internal@shdfnd@physx@@QEAAPEAV?$Pair@$$CB_KPEAVPxBase@physx@@@34@AEB_KAEA_N@Z 0000000180003fb0 f i CmCollection.obj
 0001:00003150       ?erase@?$HashBase@V?$Pair@QEAVPxBase@physx@@_K@shdfnd@physx@@PEAVPxBase@3@U?$Hash@PEAVPxBase@physx@@@23@UGetKey@?$HashMapBase@PEAVPxBase@physx@@_KU?$Hash@PEAVPxBase@physx@@@shdfnd@2@VNonTrackingAllocator@42@@internal@23@VNonTrackingAllocator@23@$00@internal@shdfnd@physx@@QEAA_NAEBQEAVPxBase@4@@Z 0000000180004150 f i CmCollection.obj
 0001:00003150       ?erase@?$HashBase@V?$Pair@$$CB_KPEAVPxBase@physx@@@shdfnd@physx@@_KU?$Hash@_K@23@UGetKey@?$HashMapBase@_KPEAVPxBase@physx@@U?$Hash@_K@shdfnd@2@VNonTrackingAllocator@42@@internal@23@VNonTrackingAllocator@23@$00@internal@shdfnd@physx@@QEAA_NAEB_K@Z 0000000180004150 f i CmCollection.obj
 0001:000032f0       ?find@?$HashMapBase@_KPEAVPxBase@physx@@U?$Hash@_K@shdfnd@2@VNonTrackingAllocator@42@@internal@shdfnd@physx@@QEBAPEBV?$Pair@$$CB_KPEAVPxBase@physx@@@34@AEB_K@Z 00000001800042f0 f i CmCollection.obj
 0001:000032f0       ?find@?$HashMapBase@PEAVPxBase@physx@@_KU?$Hash@PEAVPxBase@physx@@@shdfnd@2@VNonTrackingAllocator@42@@internal@shdfnd@physx@@QEBAPEBV?$Pair@QEAVPxBase@physx@@_K@34@AEBQEAVPxBase@4@@Z 00000001800042f0 f i CmCollection.obj
 0001:00003390       ?find@Collection@Cm@physx@@UEBAPEAVPxBase@3@_K@Z 0000000180004390 f   CmCollection.obj
 0001:000033f0       ?getId@Collection@Cm@physx@@UEBA_KAEBVPxBase@3@@Z 00000001800043f0 f   CmCollection.obj
 0001:000034a0       ?getIds@Collection@Cm@physx@@UEBAIPEA_KII@Z 00000001800044a0 f   CmCollection.obj
 0001:000035d0       ?getNbColumns@HeightField@Gu@physx@@UEBAIXZ 00000001800045d0 f   GuBounds.obj
 0001:000035d0       ?getNbIds@Collection@Cm@physx@@UEBAIXZ 00000001800045d0 f   CmCollection.obj
 0001:000035e0       ?getNbObjects@Collection@Cm@physx@@UEBAIXZ 00000001800045e0 f   CmCollection.obj
 0001:000035f0       ?getObject@Collection@Cm@physx@@UEBAAEAVPxBase@3@I@Z 00000001800045f0 f   CmCollection.obj
 0001:00003600       ?getObjects@Collection@Cm@physx@@UEBAIPEAPEAVPxBase@3@II@Z 0000000180004600 f   CmCollection.obj
 0001:000036c0       ?insert@?$HashMapBase@_KPEAVPxBase@physx@@U?$Hash@_K@shdfnd@2@VNonTrackingAllocator@42@@internal@shdfnd@physx@@QEAA_N_KQEAVPxBase@4@@Z 00000001800046c0 f i CmCollection.obj
 0001:00003710       ?release@Collection@Cm@physx@@UEAAXXZ 0000000180004710 f i CmCollection.obj
 0001:00003730       ?remove@Collection@Cm@physx@@UEAAXAEAVPxBase@3@@Z 0000000180004730 f   CmCollection.obj
 0001:00003870       ?remove@Collection@Cm@physx@@UEAAXAEAVPxCollection@3@@Z 0000000180004870 f   CmCollection.obj
 0001:000039d0       ?removeId@Collection@Cm@physx@@UEAAX_K@Z 00000001800049d0 f   CmCollection.obj
 0001:00003ab0       ?reserveInternal@?$HashBase@V?$Pair@$$CB_KPEAVPxBase@physx@@@shdfnd@physx@@_KU?$Hash@_K@23@UGetKey@?$HashMapBase@_KPEAVPxBase@physx@@U?$Hash@_K@shdfnd@2@VNonTrackingAllocator@42@@internal@23@VNonTrackingAllocator@23@$00@internal@shdfnd@physx@@AEAAXI@Z 0000000180004ab0 f i CmCollection.obj
 0001:00003ab0       ?reserveInternal@?$HashBase@V?$Pair@QEAVPxBase@physx@@_K@shdfnd@physx@@PEAVPxBase@3@U?$Hash@PEAVPxBase@physx@@@23@UGetKey@?$HashMapBase@PEAVPxBase@physx@@_KU?$Hash@PEAVPxBase@physx@@@shdfnd@2@VNonTrackingAllocator@42@@internal@23@VNonTrackingAllocator@23@$00@internal@shdfnd@physx@@AEAAXI@Z 0000000180004ab0 f i CmCollection.obj
 0001:00003ca0       ??0PtrTable@Cm@physx@@QEAA@W4PxEMPTY@2@@Z 0000000180004ca0 f i CmPtrTable.obj
 0001:00003cc0       ??0PtrTable@Cm@physx@@QEAA@XZ 0000000180004cc0 f   CmPtrTable.obj
 0001:00003cd0       ??1AABBTreeBuildNode@Gu@physx@@QEAA@XZ 0000000180004cd0 f   GuAABBTreeBuild.obj
 0001:00003cd0       ??1Box@Gu@physx@@QEAA@XZ   0000000180004cd0 f   GuBounds.obj
 0001:00003cd0       ??1HeightFieldData@Gu@physx@@QEAA@XZ 0000000180004cd0 f   GuBounds.obj
 0001:00003cd0       ?requiresObjects@TriangleMesh@Gu@physx@@UEAAXAEAVPxProcessPxBaseCallback@3@@Z 0000000180004cd0 f   GuTriangleMesh.obj
 0001:00003cd0       ?requiresObjects@HeightField@Gu@physx@@UEAAXAEAVPxProcessPxBaseCallback@3@@Z 0000000180004cd0 f   GuHeightField.obj
 0001:00003cd0       ?profile@Callback@RTree@Gu@physx@@UEAAXXZ 0000000180004cd0 f   GuMidphaseRTree.obj
 0001:00003cd0       _guard_check_icall_nop     0000000180004cd0 f   LIBCMT:guard_support.obj
 0001:00003cd0       ?requiresObjects@ConvexMesh@Gu@physx@@UEAAXAEAVPxProcessPxBaseCallback@3@@Z 0000000180004cd0 f   GuConvexMesh.obj
 0001:00003cd0       ??1MaterialIndicesStruct@physx@@QEAA@XZ 0000000180004cd0 f   GuGeometryUnion.obj
 0001:00003cd0       ??1PtrTable@Cm@physx@@QEAA@XZ 0000000180004cd0 f   CmPtrTable.obj
 0001:00003ce0       ??4CmModuleUpdateLoader@Cm@physx@@QEAAAEAV012@AEBV012@@Z 0000000180004ce0 f i CmWindowsModuleUpdateLoader.obj
 0001:00003ce0       ??4PtrTable@Cm@physx@@QEAAAEAU012@AEBU012@@Z 0000000180004ce0 f i CmPtrTable.obj
 0001:00003ce0       ??4MaterialIndicesStruct@physx@@QEAAAEAU01@AEBU01@@Z 0000000180004ce0 f i GuGeometryUnion.obj
 0001:00003cf0       ?add@PtrTable@Cm@physx@@QEAAXPEAXAEAVPtrTableStorageManager@23@@Z 0000000180004cf0 f   CmPtrTable.obj
 0001:00003db0       ?clear@PtrTable@Cm@physx@@QEAAXAEAVPtrTableStorageManager@23@@Z 0000000180004db0 f   CmPtrTable.obj
 0001:00003e30       ?exportExtraData@PtrTable@Cm@physx@@QEAAXAEAVPxSerializationContext@3@@Z 0000000180004e30 f   CmPtrTable.obj
 0001:00003e80       ?find@PtrTable@Cm@physx@@QEBAIPEBX@Z 0000000180004e80 f   CmPtrTable.obj
 0001:00003eb0       ?getBinaryMetaData@PtrTable@Cm@physx@@SAXAEAVPxOutputStream@3@@Z 0000000180004eb0 f   CmPtrTable.obj
 0001:00004060       ?getCount@PtrTable@Cm@physx@@QEBAIXZ 0000000180005060 f i CmPtrTable.obj
 0001:00004070       ?getPtrs@PtrTable@Cm@physx@@QEAAPEAPEAXXZ 0000000180005070 f i CmPtrTable.obj
 0001:00004070       ?getPtrs@PtrTable@Cm@physx@@QEBAPEBQEAXXZ 0000000180005070 f i CmPtrTable.obj
 0001:00004080       ?importExtraData@PtrTable@Cm@physx@@QEAAXAEAVPxDeserializationContext@3@@Z 0000000180005080 f   CmPtrTable.obj
 0001:000040b0       ?realloc@PtrTable@Cm@physx@@AEAAXIIAEAVPtrTableStorageManager@23@@Z 00000001800050b0 f   CmPtrTable.obj
 0001:00004140       ?replaceWithLast@PtrTable@Cm@physx@@QEAAXIAEAVPtrTableStorageManager@23@@Z 0000000180005140 f   CmPtrTable.obj
 0001:00004240       ??0RadixSort@Cm@physx@@QEAA@XZ 0000000180005240 f   CmRadixSort.obj
 0001:00004270       ??1RadixSort@Cm@physx@@UEAA@XZ 0000000180005270 f   CmRadixSort.obj
 0001:00004280       ??_ERadixSort@Cm@physx@@UEAAPEAXI@Z 0000000180005280 f i CmRadixSort.obj
 0001:00004310       ?GetNbHits@RadixSort@Cm@physx@@QEBAIXZ 0000000180005310 f i CmRadixSort.obj
 0001:00004320       ?GetNbTotalCalls@RadixSort@Cm@physx@@QEBAIXZ 0000000180005320 f i CmRadixSort.obj
 0001:00004330       ?GetRanks@RadixSort@Cm@physx@@QEBAPEBIXZ 0000000180005330 f i CmRadixSort.obj
 0001:00004330       ?getHeightField@HeightFieldUtil@Gu@physx@@QEBAAEBVHeightField@23@XZ 0000000180005330 f i GuCCTSweepTests.obj
 0001:00004340       ?GetRecyclable@RadixSort@Cm@physx@@QEBAPEAIXZ 0000000180005340 f i CmRadixSort.obj
 0001:00004340       ?GetValencies@BigConvexData@physx@@QEBAPEBUValency@Gu@2@XZ 0000000180005340 f i GuMetaData.obj
 0001:00004340       ?getHeightFieldGeometry@HeightFieldUtil@Gu@physx@@QEBAAEBVPxHeightFieldGeometry@3@XZ 0000000180005340 f i GuCCTSweepTests.obj
 0001:00004340       ?getPos@AABBTreeBuildNode@Gu@physx@@QEBAPEBV123@XZ 0000000180005340 f i GuAABBTreeBuild.obj
 0001:00004350       ?SetBuffers@RadixSort@Cm@physx@@QEAA_NPEAI00PEAPEAI@Z 0000000180005350 f   CmRadixSort.obj
 0001:00004390       ?Sort@RadixSort@Cm@physx@@QEAAAEAV123@PEBIIW4RadixHint@23@@Z 0000000180005390 f   CmRadixSort.obj
 0001:000049e0       ?Sort@RadixSort@Cm@physx@@QEAAAEAV123@PEBMI@Z 00000001800059e0 f   CmRadixSort.obj
 0001:00005140       ?invalidateRanks@RadixSort@Cm@physx@@QEAAXXZ 0000000180006140 f i CmRadixSort.obj
 0001:00005150       ??0RadixSortBuffered@Cm@physx@@QEAA@XZ 0000000180006150 f   CmRadixSortBuffered.obj
 0001:00005180       ??1RadixSortBuffered@Cm@physx@@UEAA@XZ 0000000180006180 f   CmRadixSortBuffered.obj
 0001:000051b0       ??_ERadixSortBuffered@Cm@physx@@UEAAPEAXI@Z 00000001800061b0 f i CmRadixSortBuffered.obj
 0001:000052e0       ?CheckResize@RadixSortBuffered@Cm@physx@@AEAAXI@Z 00000001800062e0 f i CmRadixSortBuffered.obj
 0001:00005320       ?Resize@RadixSortBuffered@Cm@physx@@AEAA_NI@Z 0000000180006320 f   CmRadixSortBuffered.obj
 0001:00005420       ?Sort@RadixSortBuffered@Cm@physx@@QEAAAEAV123@PEBIIW4RadixHint@23@@Z 0000000180006420 f   CmRadixSortBuffered.obj
 0001:000054c0       ?Sort@RadixSortBuffered@Cm@physx@@QEAAAEAV123@PEBMI@Z 00000001800064c0 f   CmRadixSortBuffered.obj
 0001:00005550       ?reset@RadixSortBuffered@Cm@physx@@QEAAXXZ 0000000180006550 f   CmRadixSortBuffered.obj
 0001:000055d0       ??0DebugText@Cm@physx@@QEAA@AEBU012@@Z 00000001800065d0 f i CmRenderOutput.obj
 0001:000055d0       ??0DebugText@Cm@physx@@QEAA@$$QEAU012@@Z 00000001800065d0 f i CmRenderOutput.obj
 0001:000056b0       ??0DebugText@Cm@physx@@QEAA@AEBVPxVec3@2@MPEBDZZ 00000001800066b0 f   CmRenderOutput.obj
 0001:00005710       ??0RenderOutput@Cm@physx@@QEAA@AEAVRenderBuffer@12@@Z 0000000180006710 f i CmRenderOutput.obj
 0001:00005760       ??0RenderOutput@Cm@physx@@QEAA@AEBV012@@Z 0000000180006760 f i CmRenderOutput.obj
 0001:00005800       ??4DebugText@Cm@physx@@QEAAAEAU012@$$QEAU012@@Z 0000000180006800 f i CmRenderOutput.obj
 0001:00005800       ??4DebugText@Cm@physx@@QEAAAEAU012@AEBU012@@Z 0000000180006800 f i CmRenderOutput.obj
 0001:00005930       ??6Cm@physx@@YAAEAVRenderOutput@01@AEAV201@AEBUDebugArc@01@@Z 0000000180006930 f   CmRenderOutput.obj
 0001:00005a30       ??6Cm@physx@@YAAEAVRenderOutput@01@AEAV201@AEBUDebugArrow@01@@Z 0000000180006a30 f   CmRenderOutput.obj
 0001:00005e20       ??6Cm@physx@@YAAEAVRenderOutput@01@AEAV201@AEBUDebugBasis@01@@Z 0000000180006e20 f   CmRenderOutput.obj
 0001:00005f20       ??6Cm@physx@@YAAEAVRenderOutput@01@AEAV201@AEBUDebugBox@01@@Z 0000000180006f20 f   CmRenderOutput.obj
 0001:00006420       ??6Cm@physx@@YAAEAVRenderOutput@01@AEAV201@AEBUDebugCircle@01@@Z 0000000180007420 f   CmRenderOutput.obj
 0001:00006500       ??6RenderOutput@Cm@physx@@QEAAAEAV012@AEBUDebugText@12@@Z 0000000180007500 f   CmRenderOutput.obj
 0001:00006710       ??6RenderOutput@Cm@physx@@QEAAAEAV012@AEBVPxMat44@2@@Z 0000000180007710 f   CmRenderOutput.obj
 0001:00006780       ??6RenderOutput@Cm@physx@@QEAAAEAV012@AEBVPxTransform@2@@Z 0000000180007780 f   CmRenderOutput.obj
 0001:00006900       ??6RenderOutput@Cm@physx@@QEAAAEAV012@I@Z 0000000180007900 f   CmRenderOutput.obj
 0001:00006910       ??6RenderOutput@Cm@physx@@QEAAAEAV012@VPxVec3@2@@Z 0000000180007910 f   CmRenderOutput.obj
 0001:00006e60       ??6RenderOutput@Cm@physx@@QEAAAEAV012@W4Primitive@012@@Z 0000000180007e60 f   CmRenderOutput.obj
 0001:00006e70       ?copy@?$Array@UPxDebugLine@physx@@VNamedAllocator@shdfnd@2@@shdfnd@physx@@KAXPEAUPxDebugLine@3@0PEBU43@@Z 0000000180007e70 f i CmRenderOutput.obj
 0001:00007020       ?copy@?$Array@UPxDebugPoint@physx@@VNamedAllocator@shdfnd@2@@shdfnd@physx@@KAXPEAUPxDebugPoint@3@0PEBU43@@Z 0000000180008020 f i CmRenderOutput.obj
 0001:00007120       ?copy@?$Array@UPxDebugText@physx@@VNamedAllocator@shdfnd@2@@shdfnd@physx@@KAXPEAUPxDebugText@3@0PEBU43@@Z 0000000180008120 f i CmRenderOutput.obj
 0001:00007290       ?copy@?$Array@UPxDebugTriangle@physx@@VNamedAllocator@shdfnd@2@@shdfnd@physx@@KAXPEAUPxDebugTriangle@3@0PEBU43@@Z 0000000180008290 f i CmRenderOutput.obj
 0001:00007490       ?growAndPushBack@?$Array@DVNamedAllocator@shdfnd@physx@@@shdfnd@physx@@IEAAAEADAEBD@Z 0000000180008490 f i CmRenderOutput.obj
 0001:00007570       ?growAndPushBack@?$Array@UPxDebugLine@physx@@VNamedAllocator@shdfnd@2@@shdfnd@physx@@IEAAAEAUPxDebugLine@3@AEBU43@@Z 0000000180008570 f i CmRenderOutput.obj
 0001:00007680       ?growAndPushBack@?$Array@UPxDebugPoint@physx@@VNamedAllocator@shdfnd@2@@shdfnd@physx@@IEAAAEAUPxDebugPoint@3@AEBU43@@Z 0000000180008680 f i CmRenderOutput.obj
 0001:00007770       ?growAndPushBack@?$Array@UPxDebugText@physx@@VNamedAllocator@shdfnd@2@@shdfnd@physx@@IEAAAEAUPxDebugText@3@AEBU43@@Z 0000000180008770 f i CmRenderOutput.obj
 0001:00007870       ?growAndPushBack@?$Array@UPxDebugTriangle@physx@@VNamedAllocator@shdfnd@2@@shdfnd@physx@@IEAAAEAUPxDebugTriangle@3@AEBU43@@Z 0000000180008870 f i CmRenderOutput.obj
 0001:000079b0       ?outputCapsule@RenderOutput@Cm@physx@@QEAAAEAV123@MMAEBVPxMat44@3@@Z 00000001800089b0 f   CmRenderOutput.obj
 0001:00008490       ?outputSegment@RenderOutput@Cm@physx@@QEAAXAEBVPxVec3@3@0@Z 0000000180009490 f i CmRenderOutput.obj
 0001:00008550       ?recreate@?$Array@DVNamedAllocator@shdfnd@physx@@@shdfnd@physx@@IEAAXI@Z 0000000180009550 f i CmRenderOutput.obj
 0001:00008600       ?recreate@?$Array@UPxDebugLine@physx@@VNamedAllocator@shdfnd@2@@shdfnd@physx@@IEAAXI@Z 0000000180009600 f i CmRenderOutput.obj
 0001:000086a0       ?reserveSegments@RenderOutput@Cm@physx@@QEAAPEAUPxDebugLine@3@I@Z 00000001800096a0 f i CmRenderOutput.obj
 0001:00008710       ??DPxQuat@physx@@QEBA?AV01@AEBV01@@Z 0000000180009710 f i CmVisualization.obj
 0001:00008850       ?visualizeAngularLimit@Cm@physx@@YAXAEAVRenderOutput@12@MAEBVPxTransform@2@MM_N@Z 0000000180009850 f   CmVisualization.obj
 0001:00008a10       ?visualizeDoubleCone@Cm@physx@@YAXAEAVRenderOutput@12@MAEBVPxTransform@2@M_N@Z 0000000180009a10 f   CmVisualization.obj
 0001:00008c70       ?visualizeJointFrames@Cm@physx@@YAXAEAVRenderOutput@12@MAEBVPxTransform@2@1@Z 0000000180009c70 f   CmVisualization.obj
 0001:00008d30       ?visualizeLimitCone@Cm@physx@@YAXAEAVRenderOutput@12@MAEBVPxTransform@2@MM_N@Z 0000000180009d30 f   CmVisualization.obj
 0001:00008fc0       ?visualizeLinearLimit@Cm@physx@@YAXAEAVRenderOutput@12@MAEBVPxTransform@2@1M_N@Z 0000000180009fc0 f   CmVisualization.obj
 0001:00009240       ??0CmModuleUpdateLoader@Cm@physx@@QEAA@PEBD@Z 000000018000a240 f   CmWindowsModuleUpdateLoader.obj
 0001:00009280       ??1CmModuleUpdateLoader@Cm@physx@@QEAA@XZ 000000018000a280 f   CmWindowsModuleUpdateLoader.obj
 0001:000092b0       ?LoadModule@CmModuleUpdateLoader@Cm@physx@@QEAAPEAUHINSTANCE__@@PEBD0@Z 000000018000a2b0 f   CmWindowsModuleUpdateLoader.obj
 0001:000092d0       ?commonDelayHook@@YAP6A_JXZIPEAUDelayLoadInfo@@@Z 000000018000a2d0 f   CmWindowsDelayLoadHook.obj
 0001:000093b0       PxSetPhysXCommonDelayLoadHook 000000018000a3b0 f   CmWindowsDelayLoadHook.obj
 0001:000093c0       ??4Box@Gu@physx@@QEAAAEBV012@AEBV012@@Z 000000018000a3c0 f i GuBounds.obj
 0001:000093c0       ??0Box@Gu@physx@@QEAA@AEBV012@@Z 000000018000a3c0 f i GuBounds.obj
 0001:00009420       ??0Box@Gu@physx@@QEAA@AEBVPxVec3@2@0AEBVPxMat33@2@@Z 000000018000a420 f i GuBounds.obj
 0001:00009490       ??0Box@Gu@physx@@QEAA@XZ   000000018000a490 f i GuBounds.obj
 0001:00009490       ??0GeometryUnion@Gu@physx@@QEAA@W4PxEMPTY@2@@Z 000000018000a490 f i GuGeometryUnion.obj
 0001:00009490       ??$forward@_K@std@@YA$$QEA_KAEA_K@Z 000000018000a490 f i libvcruntime:undname.obj
 0001:00009490       ?getAABB@AABBTreeBuildNode@Gu@physx@@QEBAAEBVPxBounds3@3@XZ 000000018000a490 f i GuAABBTreeBuild.obj
 0001:00009490       ??0HeightFieldData@Gu@physx@@QEAA@W4PxEMPTY@2@@Z 000000018000a490 f i GuBounds.obj
 0001:00009490       ?getGeometry@GeometryUnion@Gu@physx@@QEBAAEBVPxGeometry@3@XZ 000000018000a490 f i GuGeometryUnion.obj
 0001:00009490       ??0BigConvexData@physx@@QEAA@W4PxEMPTY@1@@Z 000000018000a490 f i GuMetaData.obj
 0001:00009490       ??0AABBTreeBuildNode@Gu@physx@@QEAA@XZ 000000018000a490 f i GuAABBTreeBuild.obj
 0001:00009490       ?getPaddedBounds@HeightFieldData@Gu@physx@@QEBAAEBVCenterExtentsPadded@23@XZ 000000018000a490 f i GuBounds.obj
 0001:00009490       ??0MaterialIndicesStruct@physx@@QEAA@W4PxEMPTY@1@@Z 000000018000a490 f i GuGeometryUnion.obj
 0001:000094a0       ??4HeightFieldData@Gu@physx@@QEAAAEAU012@AEBU012@@Z 000000018000a4a0 f i GuBounds.obj
 0001:000094a0       ??0HeightFieldData@Gu@physx@@QEAA@AEBU012@@Z 000000018000a4a0 f i GuBounds.obj
 0001:000094a0       ??0HeightFieldData@Gu@physx@@QEAA@$$QEAU012@@Z 000000018000a4a0 f i GuBounds.obj
 0001:000094a0       ??4HeightFieldData@Gu@physx@@QEAAAEAU012@$$QEAU012@@Z 000000018000a4a0 f i GuBounds.obj
 0001:00009500       ??0HeightFieldData@Gu@physx@@QEAA@XZ 000000018000a500 f i GuBounds.obj
 0001:00009510       ??0PxQuat@physx@@QEAA@AEBVPxMat33@1@@Z 000000018000a510 f i GuBounds.obj
 0001:000096f0       ??0ShapeData@Gu@physx@@QEAA@AEBVPxGeometry@2@AEBVPxTransform@2@M@Z 000000018000a6f0 f   GuBounds.obj
 0001:00009c50       ??1PxHeightField@physx@@MEAA@XZ 000000018000ac50 f i GuBounds.obj
 0001:00009c50       ??1PxConvexMesh@physx@@MEAA@XZ 000000018000ac50 f i GuBounds.obj
 0001:00009c60       ??_GPxBVHStructure@physx@@MEAAPEAXI@Z 000000018000ac60 f i GuBVHStructure.obj
 0001:00009c60       ??_EPxBase@physx@@MEAAPEAXI@Z 000000018000ac60 f i GuBounds.obj
 0001:00009c60       ??_GPxBase@physx@@MEAAPEAXI@Z 000000018000ac60 f i GuBounds.obj
 0001:00009c60       ??_GPxTriangleMesh@physx@@MEAAPEAXI@Z 000000018000ac60 f i GuTriangleMesh.obj
 0001:00009c60       ??_EPxTriangleMesh@physx@@MEAAPEAXI@Z 000000018000ac60 f i GuTriangleMesh.obj
 0001:00009c60       ??_EPxBVHStructure@physx@@MEAAPEAXI@Z 000000018000ac60 f i GuBVHStructure.obj
 0001:00009c90       ??_H@YAXPEAX_K1P6APEAX0@Z@Z 000000018000ac90 f i GuBounds.obj
 0001:00009ce0       ?computeAABBExtent@Box@Gu@physx@@QEBA?AVPxVec3@3@XZ 000000018000ace0 f i GuBounds.obj
 0001:00009da0       ?computeBounds@Gu@physx@@YAXAEAVPxBounds3@2@AEBVPxGeometry@2@AEBVPxTransform@2@MPEIBVCenterExtentsPadded@12@M@Z 000000018000ada0 f   GuBounds.obj
 0001:0000a680       ?computeBoundsWithCCDThreshold@Gu@physx@@YAMAEAVVec3p@12@0AEBVPxGeometry@2@AEBVPxTransform@2@PEIBVCenterExtentsPadded@12@@Z 000000018000b680 f   GuBounds.obj
 0001:0000a850       ?computeBoxPoints@Box@Gu@physx@@QEBAXPEIAVPxVec3@3@@Z 000000018000b850 f i GuBounds.obj
 0001:0000b800       ?getConcreteTypeName@PxConvexMesh@physx@@UEBAPEBDXZ 000000018000c800 f i GuBounds.obj
 0001:0000b810       ?getConcreteTypeName@PxHeightField@physx@@UEBAPEBDXZ 000000018000c810 f i GuBounds.obj
 0001:0000b820       ?getConvexEdgeThreshold@HeightField@Gu@physx@@UEBAMXZ 000000018000c820 f i GuBounds.obj
 0001:0000b830       ?getFlags@HeightField@Gu@physx@@UEBA?AV?$PxFlags@W4Enum@PxHeightFieldFlag@physx@@G@3@XZ 000000018000c830 f i GuBounds.obj
 0001:0000b840       ?getFormat@HeightField@Gu@physx@@UEBA?AW4Enum@PxHeightFieldFormat@3@XZ 000000018000c840 f i GuBounds.obj
 0001:0000b850       ?getHeight@HeightField@Gu@physx@@UEBAMMM@Z 000000018000c850 f i GuBounds.obj
 0001:0000b890       ?getHeightInternal2@HeightField@Gu@physx@@QEBAMIMM@Z 000000018000c890 f i GuBounds.obj
 0001:0000ba00       ?getIndexBuffer@ConvexMesh@Gu@physx@@UEBAPEBEXZ 000000018000ca00 f i GuBounds.obj
 0001:0000ba40       ?getNbPolygons@ConvexMesh@Gu@physx@@UEBAIXZ 000000018000ca40 f i GuBounds.obj
 0001:0000ba50       ?getNbRows@HeightField@Gu@physx@@UEBAIXZ 000000018000ca50 f i GuBounds.obj
 0001:0000ba60       ?getNbVertices@ConvexMesh@Gu@physx@@UEBAIXZ 000000018000ca60 f i GuBounds.obj
 0001:0000ba70       ?getSample@HeightField@Gu@physx@@UEBAAEBUPxHeightFieldSample@3@II@Z 000000018000ca70 f i GuBounds.obj
 0001:0000ba80       ?getSampleStride@HeightField@Gu@physx@@UEBAIXZ 000000018000ca80 f i GuBounds.obj
 0001:0000ba90       ?getTimestamp@HeightField@Gu@physx@@UEBAIXZ 000000018000ca90 f i GuBounds.obj
 0001:0000baa0       ?getTransform@Box@Gu@physx@@QEBA?AVPxTransform@3@XZ 000000018000caa0 f i GuBounds.obj
 0001:0000bb00       ?getTriangleMaterialIndex@HeightField@Gu@physx@@UEBAGI@Z 000000018000cb00 f i GuBounds.obj
 0001:0000bb30       ?getTriangleNormal@HeightField@Gu@physx@@UEBA?AVPxVec3@3@I@Z 000000018000cb30 f i GuBounds.obj
 0001:0000bc30       ?getVertices@ConvexMesh@Gu@physx@@UEBAPEBVPxVec3@3@XZ 000000018000cc30 f i GuBounds.obj
 0001:0000bc50       ?isKindOf@PxBase@physx@@MEBA_NPEBD@Z 000000018000cc50 f i GuBounds.obj
 0001:0000bc80       ?isKindOf@PxConvexMesh@physx@@MEBA_NPEBD@Z 000000018000cc80 f i GuBounds.obj
 0001:0000bcd0       ?isKindOf@PxHeightField@physx@@MEBA_NPEBD@Z 000000018000ccd0 f i GuBounds.obj
 0001:0000bd20       ?isReleasable@PxBase@physx@@UEBA_NXZ 000000018000cd20 f i GuBounds.obj
 0001:0000bd30       ?isValid@Box@Gu@physx@@QEBA_NXZ 000000018000cd30 f i GuBounds.obj
 0001:0000bd50       ?preExportDataReset@ConvexMesh@Gu@physx@@QEAAXXZ 000000018000cd50 f i GuBounds.obj
 0001:0000bd50       ?preExportDataReset@HeightField@Gu@physx@@QEAAXXZ 000000018000cd50 f i GuBounds.obj
 0001:0000bd60       ?rotate@Box@Gu@physx@@QEBA?AVPxVec3@3@AEBV43@@Z 000000018000cd60 f i GuBounds.obj
 0001:0000bdf0       ?rotateInv@Box@Gu@physx@@QEBA?AVPxVec3@3@AEBV43@@Z 000000018000cdf0 f i GuBounds.obj
 0001:0000be80       ?setAxes@Box@Gu@physx@@QEAAXAEBVPxVec3@3@00@Z 000000018000ce80 f i GuBounds.obj
 0001:0000bec0       ?setEmpty@Box@Gu@physx@@QEAAXXZ 000000018000cec0 f i GuBounds.obj
 0001:0000bf00       ?transform@Box@Gu@physx@@QEBA?AVPxVec3@3@AEBV43@@Z 000000018000cf00 f i GuBounds.obj
 0001:0000bfa0       ?computeOBBPoints@Gu@physx@@YAXPEIAVPxVec3@2@AEBV32@1111@Z 000000018000cfa0 f   GuBox.obj
 0001:0000c220       ?create@Box@Gu@physx@@QEAAXAEBVCapsule@23@@Z 000000018000d220 f   GuBox.obj
 0001:0000c450       ?getBoxEdges@Gu@physx@@YAPEBEXZ 000000018000d450 f   GuBox.obj
 0001:0000c460       ?computeBasis@shdfnd@physx@@YAXAEBVPxVec3@2@0AEAV32@11@Z 000000018000d460 f i GuCapsule.obj
 0001:0000c600       ?computeBoxAroundCapsule@Gu@physx@@YAXAEBVCapsule@12@AEAVBox@12@@Z 000000018000d600 f   GuCapsule.obj
 0001:0000c750       ??0HeightFieldUtil@Gu@physx@@QEAA@AEBVPxHeightFieldGeometry@2@@Z 000000018000d750 f i GuCCTSweepTests.obj
 0001:0000c750       ??0HeightFieldTraceUtil@Gu@physx@@QEAA@AEBVPxHeightFieldGeometry@2@@Z 000000018000d750 f i GuCCTSweepTests.obj
 0001:0000c790       ??4HeightFieldTraceUtil@Gu@physx@@QEAAAEAV012@$$QEAV012@@Z 000000018000d790 f i GuCCTSweepTests.obj
 0001:0000c790       ??4HeightFieldUtil@Gu@physx@@QEAAAEAV012@AEBV012@@Z 000000018000d790 f i GuCCTSweepTests.obj
 0001:0000c790       ??4HeightFieldTraceUtil@Gu@physx@@QEAAAEAV012@AEBV012@@Z 000000018000d790 f i GuCCTSweepTests.obj
 0001:0000c7b0       ??4HeightFieldUtil@Gu@physx@@QEAAAEAV012@$$QEAV012@@Z 000000018000d7b0 f i GuCCTSweepTests.obj
 0001:0000c7e0       ??_G?$EntityReport@I@Gu@physx@@UEAAPEAXI@Z 000000018000d7e0 f i GuCCTSweepTests.obj
 0001:0000c7e0       ??_E?$EntityReport@I@Gu@physx@@UEAAPEAXI@Z 000000018000d7e0 f i GuCCTSweepTests.obj
 0001:0000c840       ?ceilUp@HeightFieldTraceUtil@Gu@physx@@SAMM@Z 000000018000d840 f i GuCCTSweepTests.obj
 0001:0000c880       ?computePointNormal@HeightFieldUtil@Gu@physx@@QEBA?AVPxVec3@3@IAEBV43@AEBVPxTransform@3@MMMMAEAM@Z 000000018000d880 f i GuCCTSweepTests.obj
 0001:0000cca0       ?floorDown@HeightFieldTraceUtil@Gu@physx@@SAMM@Z 000000018000dca0 f i GuCCTSweepTests.obj
 0001:0000cce0       ?getFeatureIndex@HeightFieldUtil@Gu@physx@@SAII@Z 000000018000dce0 f i GuCCTSweepTests.obj
 0001:0000ccf0       ?getFeatureType@HeightFieldUtil@Gu@physx@@SA?AW4Feature@123@I@Z 000000018000dcf0 f i GuCCTSweepTests.obj
 0001:0000cd00       ?getHeightAtShapePoint@HeightFieldUtil@Gu@physx@@QEBAMMM@Z 000000018000dd00 f i GuCCTSweepTests.obj
 0001:0000cd60       ?getNormalAtShapePoint@HeightFieldUtil@Gu@physx@@QEBA?AVPxVec3@3@MM@Z 000000018000dd60 f i GuCCTSweepTests.obj
 0001:0000ce20       ?getNormal_2@HeightField@Gu@physx@@QEBA?AVPxVec3@3@IMMMMM@Z 000000018000de20 f i GuCCTSweepTests.obj
 0001:0000cf40       ?getOneOverColumnScale@HeightFieldUtil@Gu@physx@@QEBAMXZ 000000018000df40 f i GuCCTSweepTests.obj
 0001:0000cf50       ?getOneOverHeightScale@HeightFieldUtil@Gu@physx@@QEBAMXZ 000000018000df50 f i GuCCTSweepTests.obj
 0001:0000cf60       ?getOneOverRowScale@HeightFieldUtil@Gu@physx@@QEBAMXZ 000000018000df60 f i GuCCTSweepTests.obj
 0001:0000cf70       ?getVertexNormal@HeightFieldUtil@Gu@physx@@QEBA?AVPxVec3@3@I@Z 000000018000df70 f i GuCCTSweepTests.obj
 0001:0000cfb0       ?shape2hfp@HeightFieldUtil@Gu@physx@@QEBA?AVPxVec3@3@AEBV43@@Z 000000018000dfb0 f i GuCCTSweepTests.obj
 0001:0000cfb0       ?hf2shapen@HeightFieldUtil@Gu@physx@@QEBA?AVPxVec3@3@AEBV43@@Z 000000018000dfb0 f i GuCCTSweepTests.obj
 0001:0000cff0       ?hf2shapep@HeightFieldUtil@Gu@physx@@QEBA?AVPxVec3@3@AEBV43@@Z 000000018000dff0 f i GuCCTSweepTests.obj
 0001:0000d030       ?hf2worldn@HeightFieldUtil@Gu@physx@@QEBA?AVPxVec3@3@AEBVPxTransform@3@AEBV43@@Z 000000018000e030 f i GuCCTSweepTests.obj
 0001:0000d1a0       ?hf2worldp@HeightFieldUtil@Gu@physx@@QEBA?AVPxVec3@3@AEBVPxTransform@3@AEBV43@@Z 000000018000e1a0 f i GuCCTSweepTests.obj
 0001:0000d320       ?isCollisionVertex@HeightFieldUtil@Gu@physx@@QEBA_NIII@Z 000000018000e320 f i GuCCTSweepTests.obj
 0001:0000d340       ?isQueryVertex@HeightFieldUtil@Gu@physx@@QEBA_NIII@Z 000000018000e340 f i GuCCTSweepTests.obj
 0001:0000d400       ?isShapePointOnHeightField@HeightFieldUtil@Gu@physx@@QEBA_NMM@Z 000000018000e400 f i GuCCTSweepTests.obj
 0001:0000d450       ?makeFeatureCode@HeightFieldUtil@Gu@physx@@SAIIW4Feature@123@@Z 000000018000e450 f i GuCCTSweepTests.obj
 0001:0000d610       ?sweepBoxTriangles_Precise@Gu@physx@@YA_NIPEBVPxTriangle@2@_NAEBVPxBoxGeometry@2@AEBVPxTransform@2@AEBVPxVec3@2@MAEAUPxSweepHit@2@PEBIMV?$PxFlags@W4Enum@PxHitFlag@physx@@G@2@@Z 000000018000e610 f   GuCCTSweepTests.obj
 0001:0000e390       ?sweepBox_BoxGeom_Precise@@YA_NAEBVPxGeometry@physx@@AEBVPxTransform@2@AEBVPxBoxGeometry@2@1AEBVBox@Gu@2@AEBVPxVec3@2@MAEAUPxSweepHit@2@V?$PxFlags@W4Enum@PxHitFlag@physx@@G@2@M@Z 000000018000f390 f   GuCCTSweepTests.obj
 0001:0000e550       ?sweepBox_CapsuleGeom_Precise@@YA_NAEBVPxGeometry@physx@@AEBVPxTransform@2@AEBVPxBoxGeometry@2@1AEBVBox@Gu@2@AEBVPxVec3@2@MAEAUPxSweepHit@2@V?$PxFlags@W4Enum@PxHitFlag@physx@@G@2@M@Z 000000018000f550 f   GuCCTSweepTests.obj
 0001:0000e920       ?sweepBox_HeightFieldGeom_Precise@@YA_NAEBVPxGeometry@physx@@AEBVPxTransform@2@AEBVPxBoxGeometry@2@1AEBVBox@Gu@2@AEBVPxVec3@2@MAEAUPxSweepHit@2@V?$PxFlags@W4Enum@PxHitFlag@physx@@G@2@M@Z 000000018000f920 f   GuCCTSweepTests.obj
 0001:0000ecf0       ?sweepBox_SphereGeom_Precise@@YA_NAEBVPxGeometry@physx@@AEBVPxTransform@2@AEBVPxBoxGeometry@2@1AEBVBox@Gu@2@AEBVPxVec3@2@MAEAUPxSweepHit@2@V?$PxFlags@W4Enum@PxHitFlag@physx@@G@2@M@Z 000000018000fcf0 f   GuCCTSweepTests.obj
 0001:0000efc0       ?sweepCapsule_BoxGeom_Precise@@YA_NAEBVPxGeometry@physx@@AEBVPxTransform@2@AEBVPxCapsuleGeometry@2@1AEBVCapsule@Gu@2@AEBVPxVec3@2@MAEAUPxSweepHit@2@V?$PxFlags@W4Enum@PxHitFlag@physx@@G@2@M@Z 000000018000ffc0 f   GuCCTSweepTests.obj
 0001:0000f620       ?computePenetration@PxGeometryQuery@physx@@SA_NAEAVPxVec3@2@AEAMAEBVPxGeometry@2@AEBVPxTransform@2@23@Z 0000000180010620 f   GuGeometryQuery.obj
 0001:0000f7a0       ?getWorldBounds@PxGeometryQuery@physx@@SA?AVPxBounds3@2@AEBVPxGeometry@2@AEBVPxTransform@2@M@Z 00000001800107a0 f   GuGeometryQuery.obj
 0001:0000f900       ?isFinite@PxQuat@physx@@QEBA_NXZ 0000000180010900 f i GuGeometryQuery.obj
 0001:0000f970       ?isFinite@PxVec3@physx@@QEBA_NXZ 0000000180010970 f i GuGeometryQuery.obj
 0001:0000f9d0       ?isUnit@PxQuat@physx@@QEBA_NXZ 00000001800109d0 f i GuGeometryQuery.obj
 0001:0000fa40       ?isValid@PxGeometryQuery@physx@@SA_NAEBVPxGeometry@2@@Z 0000000180010a40 f   GuGeometryQuery.obj
 0001:0000fbc0       ?isValid@PxTransform@physx@@QEBA_NXZ 0000000180010bc0 f i GuGeometryQuery.obj
 0001:0000fc30       ?overlap@PxGeometryQuery@physx@@SA_NAEBVPxGeometry@2@AEBVPxTransform@2@01@Z 0000000180010c30 f   GuGeometryQuery.obj
 0001:0000fd80       ?pointDistance@PxGeometryQuery@physx@@SAMAEBVPxVec3@2@AEBVPxGeometry@2@AEBVPxTransform@2@PEAV32@@Z 0000000180010d80 f   GuGeometryQuery.obj
 0001:000104b0       ?raycast@PxGeometryQuery@physx@@SAIAEBVPxVec3@2@0AEBVPxGeometry@2@AEBVPxTransform@2@MV?$PxFlags@W4Enum@PxHitFlag@physx@@G@2@IPEIAUPxRaycastHit@2@@Z 00000001800114b0 f   GuGeometryQuery.obj
 0001:000107c0       ?sweep@PxGeometryQuery@physx@@SA_NAEBVPxVec3@2@MAEBVPxGeometry@2@AEBVPxTransform@2@12AEAUPxSweepHit@2@V?$PxFlags@W4Enum@PxHitFlag@physx@@G@2@M@Z 00000001800117c0 f   GuGeometryQuery.obj
 0001:00010e10       ??0GeometryUnion@Gu@physx@@QEAA@AEBVPxGeometry@2@@Z 0000000180011e10 f i GuGeometryUnion.obj
 0001:00010e30       ??0GeometryUnion@Gu@physx@@QEAA@XZ 0000000180011e30 f i GuGeometryUnion.obj
 0001:00010e40       ??0MaterialIndicesStruct@physx@@QEAA@XZ 0000000180011e40 f i GuGeometryUnion.obj
 0001:00010e60       ??4GeometryUnion@Gu@physx@@QEAAAEAV012@AEBV012@@Z 0000000180011e60 f i GuGeometryUnion.obj
 0001:00010e60       ??4GeometryUnion@Gu@physx@@QEAAAEAV012@$$QEAV012@@Z 0000000180011e60 f i GuGeometryUnion.obj
 0001:00010e90       ?allocate@MaterialIndicesStruct@physx@@QEAAXG@Z 0000000180011e90 f i GuGeometryUnion.obj
 0001:00010f00       ?deallocate@MaterialIndicesStruct@physx@@QEAAXXZ 0000000180011f00 f i GuGeometryUnion.obj
 0001:00010f50       ?getNumAxes@SeparatingAxes@Gu@physx@@QEBAIXZ 0000000180011f50 f i GuMTD.obj
 0001:00010f50       ?getCount@BuildStats@Gu@physx@@QEBAIXZ 0000000180011f50 f i GuAABBTreeBuild.obj
 0001:00010f50       ?getType@GeometryUnion@Gu@physx@@QEBA?AW4Enum@PxGeometryType@3@XZ 0000000180011f50 f i GuGeometryUnion.obj
 0001:00010f60       ?set@GeometryUnion@Gu@physx@@QEAAXAEBVPxGeometry@3@@Z 0000000180011f60 f   GuGeometryUnion.obj
 0001:00011140       ?computeBoundsAroundVertices@Gu@physx@@YAXAEAVPxBounds3@2@IPEIBVPxVec3@2@@Z 0000000180012140 f   GuInternal.obj
 0001:000111f0       ?computeBoxPoints@Gu@physx@@YAXAEBVPxBounds3@2@PEIAVPxVec3@2@@Z 00000001800121f0 f   GuInternal.obj
 0001:00011290       ?computeSweptBox@Gu@physx@@YAXAEAVBox@12@AEBVPxVec3@2@1AEBVPxMat33@2@1M@Z 0000000180012290 f   GuInternal.obj
 0001:000117c0       ?getPlane@Gu@physx@@YA?AVPxPlane@2@AEBVPxTransform@2@@Z 00000001800127c0 f   GuInternal.obj
 0001:00011870       ??$?_UI@@YAPEAX_KV?$ReflectionAllocator@I@shdfnd@physx@@PEBDH@Z 0000000180012870 f i GuMeshFactory.obj
 0001:00011910       ??0GuMeshFactory@physx@@QEAA@XZ 0000000180012910 f   GuMeshFactory.obj
 0001:00011ad0       ??1GuMeshFactory@physx@@MEAA@XZ 0000000180012ad0 f   GuMeshFactory.obj
 0001:00011bc0       ??1MeshDataBase@Gu@physx@@UEAA@XZ 0000000180012bc0 f i GuMeshFactory.obj
 0001:00011cb0       ??1TriangleMeshData@Gu@physx@@UEAA@XZ 0000000180012cb0 f i GuMeshFactory.obj
 0001:00011d80       ??_EGuMeshFactory@physx@@MEAAPEAXI@Z 0000000180012d80 f i GuMeshFactory.obj
 0001:00011e90       ??_EBV4TriangleData@Gu@physx@@UEAAPEAXI@Z 0000000180012e90 f i GuMeshFactory.obj
 0001:00011e90       ??_GBV4TriangleData@Gu@physx@@UEAAPEAXI@Z 0000000180012e90 f i GuMeshFactory.obj
 0001:00011f20       ??_GMeshDataBase@Gu@physx@@UEAAPEAXI@Z 0000000180012f20 f i GuMeshFactory.obj
 0001:00011f20       ??_EMeshDataBase@Gu@physx@@UEAAPEAXI@Z 0000000180012f20 f i GuMeshFactory.obj
 0001:00011f90       ??_ERTreeTriangleData@Gu@physx@@UEAAPEAXI@Z 0000000180012f90 f i GuMeshFactory.obj
 0001:00011f90       ??_GRTreeTriangleData@Gu@physx@@UEAAPEAXI@Z 0000000180012f90 f i GuMeshFactory.obj
 0001:00012040       ??_ETriangleMeshData@Gu@physx@@UEAAPEAXI@Z 0000000180013040 f i GuMeshFactory.obj
 0001:00012040       ??_GTriangleMeshData@Gu@physx@@UEAAPEAXI@Z 0000000180013040 f i GuMeshFactory.obj
 0001:000120b0       ?__global_array_delete@@YAXPEAX_K@Z 00000001800130b0 f i GuMeshFactory.obj
 0001:000120c0       ?__global_delete@@YAXPEAX_K@Z 00000001800130c0 f i GuMeshFactory.obj
 0001:000120c0       ??_V@YAXPEAX_K@Z           00000001800130c0 f i LIBCMT:delete_array_size.obj
 0001:000120d0       ?addBVHStructure@GuMeshFactory@physx@@QEAAXPEAVBVHStructure@Gu@2@_N@Z 00000001800130d0 f   GuMeshFactory.obj
 0001:00012150       ?addConvexMesh@GuMeshFactory@physx@@QEAAXPEAVConvexMesh@Gu@2@_N@Z 0000000180013150 f   GuMeshFactory.obj
 0001:000121d0       ?addFactoryListener@GuMeshFactory@physx@@QEAAXAEAVGuMeshFactoryListener@2@@Z 00000001800131d0 f   GuMeshFactory.obj
 0001:00012240       ?addHeightField@GuMeshFactory@physx@@QEAAXPEAVHeightField@Gu@2@_N@Z 0000000180013240 f   GuMeshFactory.obj
 0001:000122c0       ?addTriangleMesh@GuMeshFactory@physx@@QEAAXPEAVTriangleMesh@Gu@2@_N@Z 00000001800132c0 f   GuMeshFactory.obj
 0001:00012340       ?create@?$HashBase@PEAVHeightField@Gu@physx@@PEAV123@U?$Hash@PEAVHeightField@Gu@physx@@@shdfnd@3@UGetKey@?$HashSetBase@PEAVHeightField@Gu@physx@@U?$Hash@PEAVHeightField@Gu@physx@@@shdfnd@3@VNonTrackingAllocator@53@$00@internal@53@VNonTrackingAllocator@53@$00@internal@shdfnd@physx@@QEAAPEAPEAVHeightField@Gu@4@AEBQEAV564@AEA_N@Z 0000000180013340 f i GuMeshFactory.obj
 0001:00012340       ?create@?$HashBase@PEAVBVHStructure@Gu@physx@@PEAV123@U?$Hash@PEAVBVHStructure@Gu@physx@@@shdfnd@3@UGetKey@?$HashSetBase@PEAVBVHStructure@Gu@physx@@U?$Hash@PEAVBVHStructure@Gu@physx@@@shdfnd@3@VNonTrackingAllocator@53@$00@internal@53@VNonTrackingAllocator@53@$00@internal@shdfnd@physx@@QEAAPEAPEAVBVHStructure@Gu@4@AEBQEAV564@AEA_N@Z 0000000180013340 f i GuMeshFactory.obj
 0001:00012340       ?create@?$HashBase@PEAVTriangleMesh@Gu@physx@@PEAV123@U?$Hash@PEAVTriangleMesh@Gu@physx@@@shdfnd@3@UGetKey@?$HashSetBase@PEAVTriangleMesh@Gu@physx@@U?$Hash@PEAVTriangleMesh@Gu@physx@@@shdfnd@3@VNonTrackingAllocator@53@$00@internal@53@VNonTrackingAllocator@53@$00@internal@shdfnd@physx@@QEAAPEAPEAVTriangleMesh@Gu@4@AEBQEAV564@AEA_N@Z 0000000180013340 f i GuMeshFactory.obj
 0001:00012340       ?create@?$HashBase@PEAVConvexMesh@Gu@physx@@PEAV123@U?$Hash@PEAVConvexMesh@Gu@physx@@@shdfnd@3@UGetKey@?$HashSetBase@PEAVConvexMesh@Gu@physx@@U?$Hash@PEAVConvexMesh@Gu@physx@@@shdfnd@3@VNonTrackingAllocator@53@$00@internal@53@VNonTrackingAllocator@53@$00@internal@shdfnd@physx@@QEAAPEAPEAVConvexMesh@Gu@4@AEBQEAV564@AEA_N@Z 0000000180013340 f i GuMeshFactory.obj
 0001:000124e0       ?createBVHStructure@GuMeshFactory@physx@@IEAAPEAVPxBVHStructure@2@AEAUBVHStructureData@Gu@2@@Z 00000001800134e0 f   GuMeshFactory.obj
 0001:000125f0       ?createBVHStructure@GuMeshFactory@physx@@QEAAPEAVPxBVHStructure@2@AEAVPxInputStream@2@@Z 00000001800135f0 f   GuMeshFactory.obj
 0001:00012730       ?createBVHStructure@GuMeshFactory@physx@@QEAAPEAVPxBVHStructure@2@PEAX@Z 0000000180013730 f   GuMeshFactory.obj
 0001:00012740       ?createConvexMesh@GuMeshFactory@physx@@IEAAPEAVPxConvexMesh@2@AEAUConvexHullInitData@Gu@2@@Z 0000000180013740 f   GuMeshFactory.obj
 0001:00012870       ?createConvexMesh@GuMeshFactory@physx@@QEAAPEAVPxConvexMesh@2@AEAVPxInputStream@2@@Z 0000000180013870 f   GuMeshFactory.obj
 0001:000129d0       ?createConvexMesh@GuMeshFactory@physx@@QEAAPEAVPxConvexMesh@2@PEAX@Z 00000001800139d0 f   GuMeshFactory.obj
 0001:000129e0       ?createHeightField@GuMeshFactory@physx@@QEAAPEAVPxHeightField@2@AEAVPxInputStream@2@@Z 00000001800139e0 f   GuMeshFactory.obj
 0001:00012b30       ?createHeightField@GuMeshFactory@physx@@QEAAPEAVPxHeightField@2@PEAX@Z 0000000180013b30 f   GuMeshFactory.obj
 0001:00012c60       ?createTriangleMesh@GuMeshFactory@physx@@IEAAPEAVPxTriangleMesh@2@AEAVTriangleMeshData@Gu@2@@Z 0000000180013c60 f   GuMeshFactory.obj
 0001:00012e80       ?createTriangleMesh@GuMeshFactory@physx@@QEAAPEAVPxTriangleMesh@2@AEAVPxInputStream@2@@Z 0000000180013e80 f   GuMeshFactory.obj
 0001:00012ee0       ?createTriangleMesh@GuMeshFactory@physx@@QEAAPEAVPxTriangleMesh@2@PEAX@Z 0000000180013ee0 f   GuMeshFactory.obj
 0001:00012ef0       ?erase@?$HashBase@PEAVConvexMesh@Gu@physx@@PEAV123@U?$Hash@PEAVConvexMesh@Gu@physx@@@shdfnd@3@UGetKey@?$HashSetBase@PEAVConvexMesh@Gu@physx@@U?$Hash@PEAVConvexMesh@Gu@physx@@@shdfnd@3@VNonTrackingAllocator@53@$00@internal@53@VNonTrackingAllocator@53@$00@internal@shdfnd@physx@@QEAA_NAEBQEAVConvexMesh@Gu@4@@Z 0000000180013ef0 f i GuMeshFactory.obj
 0001:00012ef0       ?erase@?$HashBase@PEAVBVHStructure@Gu@physx@@PEAV123@U?$Hash@PEAVBVHStructure@Gu@physx@@@shdfnd@3@UGetKey@?$HashSetBase@PEAVBVHStructure@Gu@physx@@U?$Hash@PEAVBVHStructure@Gu@physx@@@shdfnd@3@VNonTrackingAllocator@53@$00@internal@53@VNonTrackingAllocator@53@$00@internal@shdfnd@physx@@QEAA_NAEBQEAVBVHStructure@Gu@4@@Z 0000000180013ef0 f i GuMeshFactory.obj
 0001:00012ef0       ?erase@?$HashBase@PEAVHeightField@Gu@physx@@PEAV123@U?$Hash@PEAVHeightField@Gu@physx@@@shdfnd@3@UGetKey@?$HashSetBase@PEAVHeightField@Gu@physx@@U?$Hash@PEAVHeightField@Gu@physx@@@shdfnd@3@VNonTrackingAllocator@53@$00@internal@53@VNonTrackingAllocator@53@$00@internal@shdfnd@physx@@QEAA_NAEBQEAVHeightField@Gu@4@@Z 0000000180013ef0 f i GuMeshFactory.obj
 0001:00012ef0       ?erase@?$HashBase@PEAVTriangleMesh@Gu@physx@@PEAV123@U?$Hash@PEAVTriangleMesh@Gu@physx@@@shdfnd@3@UGetKey@?$HashSetBase@PEAVTriangleMesh@Gu@physx@@U?$Hash@PEAVTriangleMesh@Gu@physx@@@shdfnd@3@VNonTrackingAllocator@53@$00@internal@53@VNonTrackingAllocator@53@$00@internal@shdfnd@physx@@QEAA_NAEBQEAVTriangleMesh@Gu@4@@Z 0000000180013ef0 f i GuMeshFactory.obj
 0001:00013060       ?getBVHStructures@GuMeshFactory@physx@@QEBAIPEAPEAVPxBVHStructure@2@II@Z 0000000180014060 f   GuMeshFactory.obj
 0001:00013100       ?getConvexMeshes@GuMeshFactory@physx@@QEBAIPEAPEAVPxConvexMesh@2@II@Z 0000000180014100 f   GuMeshFactory.obj
 0001:00013190       ?getHeightFields@GuMeshFactory@physx@@QEBAIPEAPEAVPxHeightField@2@II@Z 0000000180014190 f   GuMeshFactory.obj
 0001:00013230       ?getNbBVHStructures@GuMeshFactory@physx@@QEBAIXZ 0000000180014230 f   GuMeshFactory.obj
 0001:00013270       ?getNbConvexMeshes@GuMeshFactory@physx@@QEBAIXZ 0000000180014270 f   GuMeshFactory.obj
 0001:000132b0       ?getNbHeightFields@GuMeshFactory@physx@@QEBAIXZ 00000001800142b0 f   GuMeshFactory.obj
 0001:000132f0       ?getNbTriangleMeshes@GuMeshFactory@physx@@QEBAIXZ 00000001800142f0 f   GuMeshFactory.obj
 0001:00013330       ?getTriangleMeshes@GuMeshFactory@physx@@QEBAIPEAPEAVPxTriangleMesh@2@II@Z 0000000180014330 f   GuMeshFactory.obj
 0001:000133c0       ?growAndPushBack@?$Array@PEAVGuMeshFactoryListener@physx@@VNamedAllocator@shdfnd@2@@shdfnd@physx@@IEAAAEAPEAVGuMeshFactoryListener@3@AEBQEAV43@@Z 00000001800143c0 f i GuMeshFactory.obj
 0001:00014330       ?notifyFactoryListener@GuMeshFactory@physx@@QEAAXPEBVPxBase@2@G@Z 0000000180015330 f   GuMeshFactory.obj
 0001:000143a0       ?release@GuMeshFactory@physx@@QEAAXXZ 00000001800153a0 f   GuMeshFactory.obj
 0001:00014440       ?removeBVHStructure@GuMeshFactory@physx@@QEAA_NAEAVPxBVHStructure@2@@Z 0000000180015440 f   GuMeshFactory.obj
 0001:00014490       ?removeConvexMesh@GuMeshFactory@physx@@QEAA_NAEAVPxConvexMesh@2@@Z 0000000180015490 f   GuMeshFactory.obj
 0001:000144e0       ?removeFactoryListener@GuMeshFactory@physx@@QEAAXAEAVGuMeshFactoryListener@2@@Z 00000001800154e0 f   GuMeshFactory.obj
 0001:00014570       ?removeHeightField@GuMeshFactory@physx@@QEAA_NAEAVPxHeightField@2@@Z 0000000180015570 f   GuMeshFactory.obj
 0001:000145c0       ?removeTriangleMesh@GuMeshFactory@physx@@QEAA_NAEAVPxTriangleMesh@2@@Z 00000001800155c0 f   GuMeshFactory.obj
 0001:00014610       ?reserveInternal@?$HashBase@PEAVTriangleMesh@Gu@physx@@PEAV123@U?$Hash@PEAVTriangleMesh@Gu@physx@@@shdfnd@3@UGetKey@?$HashSetBase@PEAVTriangleMesh@Gu@physx@@U?$Hash@PEAVTriangleMesh@Gu@physx@@@shdfnd@3@VNonTrackingAllocator@53@$00@internal@53@VNonTrackingAllocator@53@$00@internal@shdfnd@physx@@AEAAXI@Z 0000000180015610 f i GuMeshFactory.obj
 0001:00014610       ?reserveInternal@?$HashBase@PEAVConvexMesh@Gu@physx@@PEAV123@U?$Hash@PEAVConvexMesh@Gu@physx@@@shdfnd@3@UGetKey@?$HashSetBase@PEAVConvexMesh@Gu@physx@@U?$Hash@PEAVConvexMesh@Gu@physx@@@shdfnd@3@VNonTrackingAllocator@53@$00@internal@53@VNonTrackingAllocator@53@$00@internal@shdfnd@physx@@AEAAXI@Z 0000000180015610 f i GuMeshFactory.obj
 0001:00014610       ?reserveInternal@?$HashBase@PEAVBVHStructure@Gu@physx@@PEAV123@U?$Hash@PEAVBVHStructure@Gu@physx@@@shdfnd@3@UGetKey@?$HashSetBase@PEAVBVHStructure@Gu@physx@@U?$Hash@PEAVBVHStructure@Gu@physx@@@shdfnd@3@VNonTrackingAllocator@53@$00@internal@53@VNonTrackingAllocator@53@$00@internal@shdfnd@physx@@AEAAXI@Z 0000000180015610 f i GuMeshFactory.obj
 0001:00014610       ?reserveInternal@?$HashBase@PEAVHeightField@Gu@physx@@PEAV123@U?$Hash@PEAVHeightField@Gu@physx@@@shdfnd@3@UGetKey@?$HashSetBase@PEAVHeightField@Gu@physx@@U?$Hash@PEAVHeightField@Gu@physx@@@shdfnd@3@VNonTrackingAllocator@53@$00@internal@53@VNonTrackingAllocator@53@$00@internal@shdfnd@physx@@AEAAXI@Z 0000000180015610 f i GuMeshFactory.obj
 0001:000147e0       ??4BigConvexData@physx@@QEAAAEAV01@AEBV01@@Z 00000001800157e0 f i GuMetaData.obj
 0001:00014800       ?GetAdjacentVerts@BigConvexData@physx@@QEBAPEBEXZ 0000000180015800 f i GuMetaData.obj
 0001:00014810       ?GetValency@BigConvexData@physx@@QEBAGI@Z 0000000180015810 f i GuMetaData.obj
 0001:00014810       ?GetNbNeighbors@BigConvexData@physx@@QEBAGI@Z 0000000180015810 f i GuMetaData.obj
 0001:00014820       ?GetNbSamples@BigConvexData@physx@@QEBAIXZ 0000000180015820 f i GuMetaData.obj
 0001:00014830       ?length@pcharNode@@UEBAHXZ 0000000180015830 f i libvcruntime:undname.obj
 0001:00014830       ?raw_length@pcharNode@@UEBAHXZ 0000000180015830 f i libvcruntime:undname.obj
 0001:00014830       ?GetNbVerts@BigConvexData@physx@@QEBAIXZ 0000000180015830 f i GuMetaData.obj
 0001:00014840       ?GetNeighbors@BigConvexData@physx@@QEBAPEBEI@Z 0000000180015840 f i GuMetaData.obj
 0001:00014850       ?GetOffset@BigConvexData@physx@@QEBAGI@Z 0000000180015850 f i GuMetaData.obj
 0001:00014860       ?GetSubdiv@BigConvexData@physx@@QEBAIXZ 0000000180015860 f i GuMetaData.obj
 0001:00014870       ?getBinaryMetaData@BV4Tree@Gu@physx@@SAXAEAVPxOutputStream@3@@Z 0000000180015870 f   GuMetaData.obj
 0001:00014c00       ?getBinaryMetaData@BV4TriangleMesh@Gu@physx@@SAXAEAVPxOutputStream@3@@Z 0000000180015c00 f   GuMetaData.obj
 0001:00014ee0       ?getBinaryMetaData@BigConvexData@physx@@SAXAEAVPxOutputStream@2@@Z 0000000180015ee0 f   GuMetaData.obj
 0001:000151a0       ?getBinaryMetaData@ConvexMesh@Gu@physx@@SAXAEAVPxOutputStream@3@@Z 00000001800161a0 f   GuMetaData.obj
 0001:00015830       ?getBinaryMetaData@GeometryUnion@Gu@physx@@SAXAEAVPxOutputStream@3@@Z 0000000180016830 f   GuMetaData.obj
 0001:00015e80       ?getBinaryMetaData@HeightField@Gu@physx@@SAXAEAVPxOutputStream@3@@Z 0000000180016e80 f   GuMetaData.obj
 0001:000162b0       ?getBinaryMetaData@MaterialIndicesStruct@physx@@SAXAEAVPxOutputStream@2@@Z 00000001800172b0 f   GuMetaData.obj
 0001:00016450       ?getBinaryMetaData@RTree@Gu@physx@@SAXAEAVPxOutputStream@3@@Z 0000000180017450 f   GuMetaData.obj
 0001:00016780       ?getBinaryMetaData@RTreeTriangleMesh@Gu@physx@@SAXAEAVPxOutputStream@3@@Z 0000000180017780 f   GuMetaData.obj
 0001:00017020       ?getBinaryMetaData@TriangleMesh@Gu@physx@@SAXAEAVPxOutputStream@3@@Z 0000000180018020 f   GuMetaData.obj
 0001:00018490       ?doSupport@?$SupportLocalImpl@VConvexHullV@Gu@physx@@@Gu@physx@@UEBA?AT__m128@@AEBT4@@Z 0000000180019490 f i GuMTD.obj
 0001:00018570       ?doSupport@?$SupportLocalImpl@VConvexHullV@Gu@physx@@@Gu@physx@@UEBAXAEBT__m128@@AEAT4@1@Z 0000000180019570 f i GuMTD.obj
 0001:000188d0       ?populateVerts@?$SupportLocalImpl@VConvexHullV@Gu@physx@@@Gu@physx@@UEBAXPEBEIPEBVPxVec3@3@PEAT__m128@@@Z 00000001800198d0 f i GuMTD.obj
 0001:00018930       ??_G?$SupportLocalImpl@VConvexHullV@Gu@physx@@@Gu@physx@@UEAAPEAXI@Z 0000000180019930 f i GuMTD.obj
 0001:00018930       ??_G?$SupportLocalImpl@VConvexHullNoScaleV@Gu@physx@@@Gu@physx@@UEAAPEAXI@Z 0000000180019930 f i GuMTD.obj
 0001:00018930       ??_E?$SupportLocalImpl@VConvexHullV@Gu@physx@@@Gu@physx@@UEAAPEAXI@Z 0000000180019930 f i GuMTD.obj
 0001:00018930       ??_E?$SupportLocalImpl@VTriangleV@Gu@physx@@@Gu@physx@@UEAAPEAXI@Z 0000000180019930 f i GuPCMContactConvexCommon.obj
 0001:00018930       ??_G?$SupportLocalImpl@VBoxV@Gu@physx@@@Gu@physx@@UEAAPEAXI@Z 0000000180019930 f i GuMTD.obj
 0001:00018930       ??_E?$SupportLocalImpl@VConvexHullNoScaleV@Gu@physx@@@Gu@physx@@UEAAPEAXI@Z 0000000180019930 f i GuMTD.obj
 0001:00018930       ??_G?$SupportLocalImpl@VTriangleV@Gu@physx@@@Gu@physx@@UEAAPEAXI@Z 0000000180019930 f i GuPCMContactConvexCommon.obj
 0001:00018930       ??_E?$SupportLocalImpl@VBoxV@Gu@physx@@@Gu@physx@@UEAAPEAXI@Z 0000000180019930 f i GuMTD.obj
 0001:00018960       ?doSupport@?$SupportLocalImpl@VConvexHullNoScaleV@Gu@physx@@@Gu@physx@@UEBA?AT__m128@@AEBT4@@Z 0000000180019960 f i GuMTD.obj
 0001:000189b0       ?doSupport@?$SupportLocalImpl@VConvexHullNoScaleV@Gu@physx@@@Gu@physx@@UEBAXAEBT__m128@@AEAT4@1@Z 00000001800199b0 f i GuMTD.obj
 0001:00018b30       ?populateVerts@?$SupportLocalImpl@VConvexHullNoScaleV@Gu@physx@@@Gu@physx@@UEBAXPEBEIPEBVPxVec3@3@PEAT__m128@@@Z 0000000180019b30 f i GuMTD.obj
 0001:00018b30       ?populateVerts@?$SupportLocalImpl@VBoxV@Gu@physx@@@Gu@physx@@UEBAXPEBEIPEBVPxVec3@3@PEAT__m128@@@Z 0000000180019b30 f i GuMTD.obj
 0001:00018b70       ?doSupport@?$SupportLocalImpl@VBoxV@Gu@physx@@@Gu@physx@@UEBA?AT__m128@@AEBT4@@Z 0000000180019b70 f i GuMTD.obj
 0001:00018ba0       ?doSupport@?$SupportLocalImpl@VBoxV@Gu@physx@@@Gu@physx@@UEBAXAEBT__m128@@AEAT4@1@Z 0000000180019ba0 f i GuMTD.obj
 0001:00018ce0       ??_ESupportLocal@Gu@physx@@UEAAPEAXI@Z 0000000180019ce0 f i GuMTD.obj
 0001:00018ce0       ??_GSupportLocal@Gu@physx@@UEAAPEAXI@Z 0000000180019ce0 f i GuMTD.obj
 0001:0001a9c0       ??$gjk@U?$LocalConvex@VCapsuleV@Gu@physx@@@Gu@physx@@U?$LocalConvex@VConvexHullV@Gu@physx@@@23@@Gu@physx@@YA?AW4GjkStatus@01@AEBU?$LocalConvex@VCapsuleV@Gu@physx@@@01@AEBU?$LocalConvex@VConvexHullV@Gu@physx@@@01@AEBT__m128@@2AEAT5@333@Z 000000018001b9c0 f i GuMTD.obj
 0001:0001b730       ??0MultiplePersistentContactManifold@Gu@physx@@QEAA@XZ 000000018001c730 f i GuMTD.obj
 0001:0001b780       ??0PolygonalBox@Gu@physx@@QEAA@AEBV012@@Z 000000018001c780 f i GuMTD.obj
 0001:0001ba00       ??0SeparatingAxes@Gu@physx@@QEAA@$$QEAV012@@Z 000000018001ca00 f i GuMTD.obj
 0001:0001ba00       ??0SeparatingAxes@Gu@physx@@QEAA@AEBV012@@Z 000000018001ca00 f i GuMTD.obj
 0001:0001bb10       ??0SeparatingAxes@Gu@physx@@QEAA@XZ 000000018001cb10 f i GuMTD.obj
 0001:0001bb20       ??4MultiplePersistentContactManifold@Gu@physx@@QEAAAEAV012@$$QEAV012@@Z 000000018001cb20 f i GuMTD.obj
 0001:0001be30       ??4MultiplePersistentContactManifold@Gu@physx@@QEAAAEAV012@AEBV012@@Z 000000018001ce30 f i GuMTD.obj
 0001:0001be50       ??4SeparatingAxes@Gu@physx@@QEAAAEAV012@AEBV012@@Z 000000018001ce50 f i GuMTD.obj
 0001:0001be50       ??4SeparatingAxes@Gu@physx@@QEAAAEAV012@$$QEAV012@@Z 000000018001ce50 f i GuMTD.obj
 0001:0001bf60       ??_EGjkConvexBase@Gu@physx@@UEAAPEAXI@Z 000000018001cf60 f i GuMTD.obj
 0001:0001bf60       ??_G?$LocalConvex@VConvexHullV@Gu@physx@@@Gu@physx@@UEAAPEAXI@Z 000000018001cf60 f i GuMTD.obj
 0001:0001bf60       ??_E?$LocalConvex@VBoxV@Gu@physx@@@Gu@physx@@UEAAPEAXI@Z 000000018001cf60 f i GuSweepTests.obj
 0001:0001bf60       ??_G?$LocalConvex@VConvexHullNoScaleV@Gu@physx@@@Gu@physx@@UEAAPEAXI@Z 000000018001cf60 f i GuPCMContactBoxConvex.obj
 0001:0001bf60       ??_E?$LocalConvex@VConvexHullV@Gu@physx@@@Gu@physx@@UEAAPEAXI@Z 000000018001cf60 f i GuMTD.obj
 0001:0001bf60       ??_E?$LocalConvex@VTriangleV@Gu@physx@@@Gu@physx@@UEAAPEAXI@Z 000000018001cf60 f i GuSweepTests.obj
 0001:0001bf60       ??_G?$LocalConvex@VTriangleV@Gu@physx@@@Gu@physx@@UEAAPEAXI@Z 000000018001cf60 f i GuSweepTests.obj
 0001:0001bf60       ??_GGjkConvexBase@Gu@physx@@UEAAPEAXI@Z 000000018001cf60 f i GuMTD.obj
 0001:0001bf60       ??_E?$LocalConvex@VCapsuleV@Gu@physx@@@Gu@physx@@UEAAPEAXI@Z 000000018001cf60 f i GuMTD.obj
 0001:0001bf60       ??_G?$LocalConvex@VCapsuleV@Gu@physx@@@Gu@physx@@UEAAPEAXI@Z 000000018001cf60 f i GuMTD.obj
 0001:0001bf60       ??_E?$LocalConvex@VConvexHullNoScaleV@Gu@physx@@@Gu@physx@@UEAAPEAXI@Z 000000018001cf60 f i GuPCMContactBoxConvex.obj
 0001:0001bf60       ??_G?$LocalConvex@VBoxV@Gu@physx@@@Gu@physx@@UEAAPEAXI@Z 000000018001cf60 f i GuSweepTests.obj
 0001:0001c6f0       ?clearManifold@MultiplePersistentContactManifold@Gu@physx@@QEAAXXZ 000000018001d6f0 f i GuMTD.obj
 0001:000202f0       ?getAxes@SeparatingAxes@Gu@physx@@QEBAPEBVPxVec3@3@XZ 00000001800212f0 f i GuMTD.obj
 0001:00020300       ?getCenter@?$LocalConvex@VConvexHullNoScaleV@Gu@physx@@@Gu@physx@@UEBA?AT__m128@@XZ 0000000180021300 f i GuPCMContactBoxConvex.obj
 0001:00020300       ?getCenter@?$LocalConvex@VConvexHullV@Gu@physx@@@Gu@physx@@UEBA?AT__m128@@XZ 0000000180021300 f i GuMTD.obj
 0001:00020300       ?getCenter@?$LocalConvex@VBoxV@Gu@physx@@@Gu@physx@@UEBA?AT__m128@@XZ 0000000180021300 f i GuSweepTests.obj
 0001:00020300       ?getCenter@?$LocalConvex@VTriangleV@Gu@physx@@@Gu@physx@@UEBA?AT__m128@@XZ 0000000180021300 f i GuSweepTests.obj
 0001:00020300       ?getCenter@?$LocalConvex@VCapsuleV@Gu@physx@@@Gu@physx@@UEBA?AT__m128@@XZ 0000000180021300 f i GuMTD.obj
 0001:00020310       ?getEmptyManifold@MultiplePersistentContactManifold@Gu@physx@@QEAAPEAVSinglePersistentContactManifold@23@XZ 0000000180021310 f i GuMTD.obj
 0001:00020330       ?getManifold@MultiplePersistentContactManifold@Gu@physx@@QEAAPEAVSinglePersistentContactManifold@23@I@Z 0000000180021330 f i GuMTD.obj
 0001:00020350       ?getSweepMargin@?$LocalConvex@VCapsuleV@Gu@physx@@@Gu@physx@@UEBA?AT__m128@@XZ 0000000180021350 f i GuMTD.obj
 0001:00020350       ?getSweepMargin@?$RelativeConvex@VCapsuleV@Gu@physx@@@Gu@physx@@UEBA?AT__m128@@XZ 0000000180021350 f i GuCCDSweepPrimitives.obj
 0001:00020360       ?getSweepMargin@?$RelativeConvex@VConvexHullNoScaleV@Gu@physx@@@Gu@physx@@UEBA?AT__m128@@XZ 0000000180021360 f i GuPCMContactConvexConvex.obj
 0001:00020360       ?getSweepMargin@?$RelativeConvex@VConvexHullV@Gu@physx@@@Gu@physx@@UEBA?AT__m128@@XZ 0000000180021360 f i GuOverlapTests.obj
 0001:00020360       ?getSweepMargin@?$LocalConvex@VBoxV@Gu@physx@@@Gu@physx@@UEBA?AT__m128@@XZ 0000000180021360 f i GuSweepTests.obj
 0001:00020360       ?getSweepMargin@?$LocalConvex@VConvexHullNoScaleV@Gu@physx@@@Gu@physx@@UEBA?AT__m128@@XZ 0000000180021360 f i GuPCMContactBoxConvex.obj
 0001:00020360       ?getSweepMargin@?$RelativeConvex@VBoxV@Gu@physx@@@Gu@physx@@UEBA?AT__m128@@XZ 0000000180021360 f i GuOverlapTests.obj
 0001:00020360       ?getSweepMargin@?$LocalConvex@VConvexHullV@Gu@physx@@@Gu@physx@@UEBA?AT__m128@@XZ 0000000180021360 f i GuMTD.obj
 0001:00020380       ?hillClimbing@ConvexHullV@Gu@physx@@QEBAIAEBT__m128@@@Z 0000000180021380 f i GuMTD.obj
 0001:000205b0       ?initialize@MultiplePersistentContactManifold@Gu@physx@@QEAAXXZ 00000001800215b0 f i GuMTD.obj
 0001:00020610       ?invalidate@MultiplePersistentContactManifold@Gu@physx@@QEAAIAEBVPsTransformV@aos@shdfnd@3@AEBT__m128@@1@Z 0000000180021610 f i GuMTD.obj
 0001:00020690       ?invalidate@MultiplePersistentContactManifold@Gu@physx@@QEAAIAEBVPsTransformV@aos@shdfnd@3@AEBT__m128@@@Z 0000000180021690 f i GuMTD.obj
 0001:00020710       ?maxTransformPositionDelta@MultiplePersistentContactManifold@Gu@physx@@QEAA?AT__m128@@AEBT4@@Z 0000000180021710 f i GuMTD.obj
 0001:00020750       ?maxTransformQuatDelta@MultiplePersistentContactManifold@Gu@physx@@QEAA?AT__m128@@AEBT4@@Z 0000000180021750 f i GuMTD.obj
 0001:00020790       ?pointConvexDistance@@YA_NAEAVPxVec3@physx@@0AEAMAEBV12@PEBVConvexMesh@Gu@2@AEBVPxMeshScale@2@AEBVPxTransform@2@@Z 0000000180021790 f   GuMTD.obj
 0001:00021550       ?reduceManifoldContactsInDifferentPatches@MultiplePersistentContactManifold@Gu@physx@@QEAAIPEAPEAUPCMContactPatch@23@IPEAVMeshPersistentContact@23@IAEBT__m128@@@Z 0000000180022550 f i GuMTD.obj
 0001:000216b0       ?refineContactPatchConnective@MultiplePersistentContactManifold@Gu@physx@@QEAAXPEAPEAUPCMContactPatch@23@IPEAVMeshPersistentContact@23@AEBT__m128@@@Z 00000001800226b0 f i GuMTD.obj
 0001:000217a0       ?refreshManifold@MultiplePersistentContactManifold@Gu@physx@@QEAAXAEBVPsMatTransformV@aos@shdfnd@3@AEBT__m128@@1@Z 00000001800227a0 f i GuMTD.obj
 0001:000218a0       ?reset@SeparatingAxes@Gu@physx@@QEAAXXZ 00000001800228a0 f i GuMTD.obj
 0001:000218b0       ?setRelativeTransform@MultiplePersistentContactManifold@Gu@physx@@QEAAXAEBVPsTransformV@aos@shdfnd@3@@Z 00000001800228b0 f i GuMTD.obj
 0001:000218c0       ?support@?$LocalConvex@VCapsuleV@Gu@physx@@@Gu@physx@@UEBA?AT__m128@@AEBT4@@Z 00000001800228c0 f i GuMTD.obj
 0001:00021920       ?support@?$LocalConvex@VCapsuleV@Gu@physx@@@Gu@physx@@UEBA?AT__m128@@AEBT4@AEAH@Z 0000000180022920 f i GuMTD.obj
 0001:00021990       ?support@?$LocalConvex@VConvexHullV@Gu@physx@@@Gu@physx@@UEBA?AT__m128@@AEBT4@@Z 0000000180022990 f i GuMTD.obj
 0001:00021a70       ?support@?$LocalConvex@VConvexHullV@Gu@physx@@@Gu@physx@@UEBA?AT__m128@@AEBT4@AEAH@Z 0000000180022a70 f i GuMTD.obj
 0001:00021b40       ?supportPoint@?$LocalConvex@VCapsuleV@Gu@physx@@@Gu@physx@@UEBA?AT__m128@@H@Z 0000000180022b40 f i GuMTD.obj
 0001:00021b70       ?supportPoint@?$LocalConvex@VConvexHullV@Gu@physx@@@Gu@physx@@UEBA?AT__m128@@H@Z 0000000180022b70 f i GuMTD.obj
 0001:00021bc0       ?supportVertexIndex@ConvexHullV@Gu@physx@@QEBAIAEBT__m128@@@Z 0000000180022bc0 f i GuMTD.obj
 0001:00021e40       ?toBuffer@MultiplePersistentContactManifold@Gu@physx@@QEAAXPEIAE@Z 0000000180022e40 f i GuMTD.obj
 0001:00021f20       ?supportPoint@?$RelativeConvex@VBoxV@Gu@physx@@@Gu@physx@@UEBA?AT__m128@@H@Z 0000000180022f20 f i GuOverlapTests.obj
 0001:00021f90       ?support@?$RelativeConvex@VBoxV@Gu@physx@@@Gu@physx@@UEBA?AT__m128@@AEBT4@@Z 0000000180022f90 f i GuOverlapTests.obj
 0001:00022010       ?support@?$RelativeConvex@VBoxV@Gu@physx@@@Gu@physx@@UEBA?AT__m128@@AEBT4@AEAH@Z 0000000180023010 f i GuOverlapTests.obj
 0001:000220a0       ?getCenter@?$RelativeConvex@VTriangleV@Gu@physx@@@Gu@physx@@UEBA?AT__m128@@XZ 00000001800230a0 f i GuCCDSweepPrimitives.obj
 0001:000220a0       ?getCenter@?$RelativeConvex@VConvexHullNoScaleV@Gu@physx@@@Gu@physx@@UEBA?AT__m128@@XZ 00000001800230a0 f i GuPCMContactConvexConvex.obj
 0001:000220a0       ?getCenter@?$RelativeConvex@VBoxV@Gu@physx@@@Gu@physx@@UEBA?AT__m128@@XZ 00000001800230a0 f i GuOverlapTests.obj
 0001:000220a0       ?getCenter@?$RelativeConvex@VCapsuleV@Gu@physx@@@Gu@physx@@UEBA?AT__m128@@XZ 00000001800230a0 f i GuCCDSweepPrimitives.obj
 0001:000220a0       ?getCenter@?$RelativeConvex@VConvexHullV@Gu@physx@@@Gu@physx@@UEBA?AT__m128@@XZ 00000001800230a0 f i GuOverlapTests.obj
 0001:000220e0       ??_G?$RelativeConvex@VCapsuleV@Gu@physx@@@Gu@physx@@UEAAPEAXI@Z 00000001800230e0 f i GuCCDSweepPrimitives.obj
 0001:000220e0       ??_E?$RelativeConvex@VBoxV@Gu@physx@@@Gu@physx@@UEAAPEAXI@Z 00000001800230e0 f i GuOverlapTests.obj
 0001:000220e0       ??_G?$RelativeConvex@VConvexHullNoScaleV@Gu@physx@@@Gu@physx@@UEAAPEAXI@Z 00000001800230e0 f i GuPCMContactConvexConvex.obj
 0001:000220e0       ??_G?$RelativeConvex@VTriangleV@Gu@physx@@@Gu@physx@@UEAAPEAXI@Z 00000001800230e0 f i GuCCDSweepPrimitives.obj
 0001:000220e0       ??_E?$RelativeConvex@VCapsuleV@Gu@physx@@@Gu@physx@@UEAAPEAXI@Z 00000001800230e0 f i GuCCDSweepPrimitives.obj
 0001:000220e0       ??_G?$RelativeConvex@VBoxV@Gu@physx@@@Gu@physx@@UEAAPEAXI@Z 00000001800230e0 f i GuOverlapTests.obj
 0001:000220e0       ??_E?$RelativeConvex@VConvexHullNoScaleV@Gu@physx@@@Gu@physx@@UEAAPEAXI@Z 00000001800230e0 f i GuPCMContactConvexConvex.obj
 0001:000220e0       ??_E?$RelativeConvex@VConvexHullV@Gu@physx@@@Gu@physx@@UEAAPEAXI@Z 00000001800230e0 f i GuOverlapTests.obj
 0001:000220e0       ??_E?$RelativeConvex@VTriangleV@Gu@physx@@@Gu@physx@@UEAAPEAXI@Z 00000001800230e0 f i GuCCDSweepPrimitives.obj
 0001:000220e0       ??_G?$RelativeConvex@VConvexHullV@Gu@physx@@@Gu@physx@@UEAAPEAXI@Z 00000001800230e0 f i GuOverlapTests.obj
 0001:000242a0       ?supportPoint@?$RelativeConvex@VConvexHullV@Gu@physx@@@Gu@physx@@UEBA?AT__m128@@H@Z 00000001800252a0 f i GuOverlapTests.obj
 0001:00024320       ?support@?$RelativeConvex@VConvexHullV@Gu@physx@@@Gu@physx@@UEBA?AT__m128@@AEBT4@@Z 0000000180025320 f i GuOverlapTests.obj
 0001:00024450       ?support@?$RelativeConvex@VConvexHullV@Gu@physx@@@Gu@physx@@UEBA?AT__m128@@AEBT4@AEAH@Z 0000000180025450 f i GuOverlapTests.obj
 0001:000245b0       ??$gjk@U?$RelativeConvex@VBoxV@Gu@physx@@@Gu@physx@@U?$LocalConvex@VConvexHullV@Gu@physx@@@23@@Gu@physx@@YA?AW4GjkStatus@01@AEBU?$RelativeConvex@VBoxV@Gu@physx@@@01@AEBU?$LocalConvex@VConvexHullV@Gu@physx@@@01@AEBT__m128@@2AEAT5@333@Z 00000001800255b0 f i GuOverlapTests.obj
 0001:00025370       ??$gjk@U?$RelativeConvex@VConvexHullV@Gu@physx@@@Gu@physx@@U?$LocalConvex@VConvexHullV@Gu@physx@@@23@@Gu@physx@@YA?AW4GjkStatus@01@AEBU?$RelativeConvex@VConvexHullV@Gu@physx@@@01@AEBU?$LocalConvex@VConvexHullV@Gu@physx@@@01@AEBT__m128@@2AEAT5@333@Z 0000000180026370 f i GuOverlapTests.obj
 0001:00026200       ?ComputeCubemapNearestOffset@physx@@YAIAEBVPxVec3@1@I@Z 0000000180027200 f i GuOverlapTests.obj
 0001:00026300       ?getOverlapFuncTable@Gu@physx@@YAPEAY06Q6A_NAEBVPxGeometry@2@AEBVPxTransform@2@01PEAUTriggerCache@12@@ZXZ 0000000180027300 f   GuOverlapTests.obj
 0001:00027d90       ?registerHeightFields@Gu@physx@@YAXXZ 0000000180028d90 f   GuOverlapTests.obj
 0001:00027de0       ?raycast_box@@YAIAEBVPxGeometry@physx@@AEBVPxTransform@2@AEBVPxVec3@2@2MV?$PxFlags@W4Enum@PxHitFlag@physx@@G@2@IPEIAUPxRaycastHit@2@@Z 0000000180028de0 f   GuRaycastTests.obj
 0001:00028410       ?raycast_sphere@@YAIAEBVPxGeometry@physx@@AEBVPxTransform@2@AEBVPxVec3@2@2MV?$PxFlags@W4Enum@PxHitFlag@physx@@G@2@IPEIAUPxRaycastHit@2@@Z 0000000180029410 f   GuRaycastTests.obj
 0001:000285a0       ?raycast_capsule@@YAIAEBVPxGeometry@physx@@AEBVPxTransform@2@AEBVPxVec3@2@2MV?$PxFlags@W4Enum@PxHitFlag@physx@@G@2@IPEIAUPxRaycastHit@2@@Z 00000001800295a0 f   GuRaycastTests.obj
 0001:00028b00       ?raycast_plane@@YAIAEBVPxGeometry@physx@@AEBVPxTransform@2@AEBVPxVec3@2@2MV?$PxFlags@W4Enum@PxHitFlag@physx@@G@2@IPEIAUPxRaycastHit@2@@Z 0000000180029b00 f   GuRaycastTests.obj
 0001:00028c70       ?raycast_convexMesh@@YAIAEBVPxGeometry@physx@@AEBVPxTransform@2@AEBVPxVec3@2@2MV?$PxFlags@W4Enum@PxHitFlag@physx@@G@2@IPEIAUPxRaycastHit@2@@Z 0000000180029c70 f   GuRaycastTests.obj
 0001:000297a0       ?raycast_triangleMesh@@YAIAEBVPxGeometry@physx@@AEBVPxTransform@2@AEBVPxVec3@2@2MV?$PxFlags@W4Enum@PxHitFlag@physx@@G@2@IPEIAUPxRaycastHit@2@@Z 000000018002a7a0 f   GuRaycastTests.obj
 0001:0002aac0       ??Dphysx@@YA?AVMatrix34@Cm@0@AEBVPxMeshScale@0@AEBVPxTransform@0@@Z 000000018002bac0 f i GuRaycastTests.obj
 0001:0002b700       ?getRaycastFuncTable@Gu@physx@@YAAEAY06Q6AIAEBVPxGeometry@2@AEBVPxTransform@2@AEBVPxVec3@2@2MV?$PxFlags@W4Enum@PxHitFlag@physx@@G@2@IPEIAUPxRaycastHit@2@@ZXZ 000000018002c700 f   GuRaycastTests.obj
 0001:0002b710       ?raycast_heightField@@YAIAEBVPxGeometry@physx@@AEBVPxTransform@2@AEBVPxVec3@2@2MV?$PxFlags@W4Enum@PxHitFlag@physx@@G@2@IPEIAUPxRaycastHit@2@@Z 000000018002c710 f   GuRaycastTests.obj
 0001:0002be50       ?registerHeightFields_Raycasts@@YAXXZ 000000018002ce50 f   GuRaycastTests.obj
 0001:0002be60       ?ReadHeader@Gu@physx@@YA_NEEEEAEAIAEA_NAEAVPxInputStream@2@@Z 000000018002ce60 f   GuSerialize.obj
 0001:0002bfc0       ?ReadIndices@Gu@physx@@YAXGIPEAGAEAVPxInputStream@2@_N@Z 000000018002cfc0 f   GuSerialize.obj
 0001:0002c110       ?StoreIndices@Gu@physx@@YAXGIPEBGAEAVPxOutputStream@2@_N@Z 000000018002d110 f   GuSerialize.obj
 0001:0002c1d0       ?StoreIndices@Gu@physx@@YAXIIPEBIAEAVPxOutputStream@2@_N@Z 000000018002d1d0 f   GuSerialize.obj
 0001:0002c2f0       ?WriteHeader@Gu@physx@@YA_NEEEEI_NAEAVPxOutputStream@2@@Z 000000018002d2f0 f   GuSerialize.obj
 0001:0002c420       ?computeMaxIndex@physx@@YAGPEBGI@Z 000000018002d420 f   GuSerialize.obj
 0001:0002c450       ?computeMaxIndex@physx@@YAIPEBII@Z 000000018002d450 f   GuSerialize.obj
 0001:0002c480       ?readChunk@physx@@YAXAEAC000AEAVPxInputStream@1@@Z 000000018002d480 f   GuSerialize.obj
 0001:0002c500       ?readDword@physx@@YAI_NAEAVPxInputStream@1@@Z 000000018002d500 f   GuSerialize.obj
 0001:0002c560       ?readFloat@physx@@YAM_NAEAVPxInputStream@1@@Z 000000018002d560 f   GuSerialize.obj
 0001:0002c5c0       ?readFloatBuffer@physx@@YA_NPEAMI_NAEAVPxInputStream@1@@Z 000000018002d5c0 f   GuSerialize.obj
 0001:0002c640       ?readHeader@physx@@YA_NCCCCAEAIAEA_NAEAVPxInputStream@1@@Z 000000018002d640 f   GuSerialize.obj
 0001:0002c790       ?readIndices@physx@@YAXIIPEAIAEAVPxInputStream@1@_N@Z 000000018002d790 f   GuSerialize.obj
 0001:0002c880       ?readWord@physx@@YAG_NAEAVPxInputStream@1@@Z 000000018002d880 f   GuSerialize.obj
 0001:0002c8c0       ?readWordBuffer@physx@@YAXPEAGI_NAEAVPxInputStream@1@@Z 000000018002d8c0 f   GuSerialize.obj
 0001:0002c930       ?storeIndices@physx@@YAXIIPEBIAEAVPxOutputStream@1@_N@Z 000000018002d930 f   GuSerialize.obj
 0001:0002ca20       ?writeDword@physx@@YAXI_NAEAVPxOutputStream@1@@Z 000000018002da20 f   GuSerialize.obj
 0001:0002ca70       ?writeFloat@physx@@YAXM_NAEAVPxOutputStream@1@@Z 000000018002da70 f   GuSerialize.obj
 0001:0002cac0       ?writeFloatBuffer@physx@@YAXPEBMI_NAEAVPxOutputStream@1@@Z 000000018002dac0 f   GuSerialize.obj
 0001:0002cb60       ?writeHeader@physx@@YA_NCCCCI_NAEAVPxOutputStream@1@@Z 000000018002db60 f   GuSerialize.obj
 0001:0002cc90       ?writeWord@physx@@YAXG_NAEAVPxOutputStream@1@@Z 000000018002dc90 f   GuSerialize.obj
 0001:0002ccd0       ?writeWordBuffer@physx@@YAXPEBGI_NAEAVPxOutputStream@1@@Z 000000018002dcd0 f   GuSerialize.obj
 0001:0002cd50       ??Dphysx@@YA?AVMatrix34@Cm@0@AEBVPxTransform@0@AEBVPxMeshScale@0@@Z 000000018002dd50 f i GuSweepMTD.obj
 0001:0002d3a0       ??_G?$MeshHitCallback@UPxRaycastHit@physx@@@Gu@physx@@UEAAPEAXI@Z 000000018002e3a0 f i GuSweepMTD.obj
 0001:0002d3a0       ??_E?$MeshHitCallback@UPxRaycastHit@physx@@@Gu@physx@@UEAAPEAXI@Z 000000018002e3a0 f i GuSweepMTD.obj
 0001:0002d3d0       ??_EMeshMTDGenerationCallback@@UEAAPEAXI@Z 000000018002e3d0 f i GuSweepMTD.obj
 0001:0002d3d0       ??_GMeshMTDGenerationCallback@@UEAAPEAXI@Z 000000018002e3d0 f i GuSweepMTD.obj
 0001:0002d400       ??_EMidPhaseQueryLocalReport@@UEAAPEAXI@Z 000000018002e400 f i GuSweepMTD.obj
 0001:0002d400       ??_GMidPhaseQueryLocalReport@@UEAAPEAXI@Z 000000018002e400 f i GuSweepMTD.obj
 0001:0002d430       ?computeBox_HeightFieldMTD@Gu@physx@@YA_NAEBVPxHeightFieldGeometry@2@AEBVPxTransform@2@AEBVBox@12@1M_NIAEAUPxSweepHit@2@@Z 000000018002e430 f   GuSweepMTD.obj
 0001:0002e280       ?computeBox_TriangleMeshMTD@Gu@physx@@YA_NAEBVPxTriangleMeshGeometry@2@AEBVPxTransform@2@AEBVBox@12@1M_NAEAUPxSweepHit@2@@Z 000000018002f280 f   GuSweepMTD.obj
 0001:0002ef10       ?computeCapsule_CapsuleMTD@Gu@physx@@YA_NAEBVCapsule@12@0AEAUPxSweepHit@2@@Z 000000018002ff10 f   GuSweepMTD.obj
 0001:0002f150       ?computeCapsule_HeightFieldMTD@Gu@physx@@YA_NAEBVPxHeightFieldGeometry@2@AEBVPxTransform@2@AEAVCapsuleV@12@M_NIAEAUPxSweepHit@2@@Z 0000000180030150 f   GuSweepMTD.obj
 0001:0002f9c0       ?computeCapsule_TriangleMeshMTD@Gu@physx@@YA_NAEBVPxTriangleMeshGeometry@2@AEBVPxTransform@2@AEAVCapsuleV@12@M_NAEAUPxSweepHit@2@@Z 00000001800309c0 f   GuSweepMTD.obj
 0001:000302a0       ?computeConvex_HeightFieldMTD@Gu@physx@@YA_NAEBVPxHeightFieldGeometry@2@AEBVPxTransform@2@AEBVPxConvexMeshGeometry@2@1M_NIAEAUPxSweepHit@2@@Z 00000001800312a0 f   GuSweepMTD.obj
 0001:00031620       ?computeConvex_TriangleMeshMTD@Gu@physx@@YA_NAEBVPxTriangleMeshGeometry@2@AEBVPxTransform@2@AEBVPxConvexMeshGeometry@2@1M_NAEAUPxSweepHit@2@@Z 0000000180032620 f   GuSweepMTD.obj
 0001:00032870       ?computePlane_BoxMTD@Gu@physx@@YA_NAEBVPxPlane@2@AEBVBox@12@AEAUPxSweepHit@2@@Z 0000000180033870 f   GuSweepMTD.obj
 0001:00032ba0       ?computePlane_CapsuleMTD@Gu@physx@@YA_NAEBVPxPlane@2@AEBVCapsule@12@AEAUPxSweepHit@2@@Z 0000000180033ba0 f   GuSweepMTD.obj
 0001:00032cc0       ?computePlane_ConvexMTD@Gu@physx@@YA_NAEBVPxPlane@2@AEBVPxConvexMeshGeometry@2@AEBVPxTransform@2@AEAUPxSweepHit@2@@Z 0000000180033cc0 f   GuSweepMTD.obj
 0001:00033830       ?computeSphere_CapsuleMTD@Gu@physx@@YA_NAEBVSphere@12@AEBVCapsule@12@AEAUPxSweepHit@2@@Z 0000000180034830 f   GuSweepMTD.obj
 0001:000339e0       ?computeSphere_SphereMTD@Gu@physx@@YA_NAEBVSphere@12@0AEAUPxSweepHit@2@@Z 00000001800349e0 f   GuSweepMTD.obj
 0001:00033ad0       ?getInverse@PxMat33@physx@@QEBA?BV12@XZ 0000000180034ad0 f i GuSweepMTD.obj
 0001:00033d20       ?growAndPushBack@?$Array@IVNamedAllocator@shdfnd@physx@@@shdfnd@physx@@IEAAAEAIAEBI@Z 0000000180034d20 f i GuSweepMTD.obj
 0001:00033e10       ?init@FastVertex2ShapeScaling@Cm@physx@@QEAAXAEBVPxVec3@3@AEBVPxQuat@3@@Z 0000000180034e10 f i GuSweepMTD.obj
 0001:000341f0       ?onEvent@MidPhaseQueryLocalReport@@UEAA_NIPEAI@Z 00000001800351f0 f i GuSweepMTD.obj
 0001:00034260       ?processHit@MeshMTDGenerationCallback@@UEAA_NAEBUPxRaycastHit@physx@@AEBVPxVec3@3@11AEAMPEBI@Z 0000000180035260 f i GuSweepMTD.obj
 0001:000342b0       ?recreate@?$Array@IVNamedAllocator@shdfnd@physx@@@shdfnd@physx@@IEAAXI@Z 00000001800352b0 f i GuSweepMTD.obj
 0001:00034360       ??$gjkPenetration@U?$LocalConvex@VCapsuleV@Gu@physx@@@Gu@physx@@U?$LocalConvex@VConvexHullV@Gu@physx@@@23@@Gu@physx@@YA?AW4GjkStatus@01@AEBU?$LocalConvex@VCapsuleV@Gu@physx@@@01@AEBU?$LocalConvex@VConvexHullV@Gu@physx@@@01@AEBT__m128@@2_NPEIAE4AEAEAEAUGjkOutput@01@@Z 0000000180035360 f i GuSweepSharedTests.obj
 0001:00035930       ??$gjkPenetration@U?$RelativeConvex@VBoxV@Gu@physx@@@Gu@physx@@U?$LocalConvex@VConvexHullV@Gu@physx@@@23@@Gu@physx@@YA?AW4GjkStatus@01@AEBU?$RelativeConvex@VBoxV@Gu@physx@@@01@AEBU?$LocalConvex@VConvexHullV@Gu@physx@@@01@AEBT__m128@@2_NPEIAE4AEAEAEAUGjkOutput@01@@Z 0000000180036930 f i GuSweepSharedTests.obj
 0001:00036f20       ??$gjkPenetration@U?$RelativeConvex@VConvexHullV@Gu@physx@@@Gu@physx@@U?$LocalConvex@VConvexHullV@Gu@physx@@@23@@Gu@physx@@YA?AW4GjkStatus@01@AEBU?$RelativeConvex@VConvexHullV@Gu@physx@@@01@AEBU?$LocalConvex@VConvexHullV@Gu@physx@@@01@AEBT__m128@@2_NPEIAE4AEAEAEAUGjkOutput@01@@Z 0000000180037f20 f i GuSweepSharedTests.obj
 0001:00038580       ??$gjkRaycast@U?$LocalConvex@VCapsuleV@Gu@physx@@@Gu@physx@@U?$LocalConvex@VConvexHullV@Gu@physx@@@23@@Gu@physx@@YA_NAEBU?$LocalConvex@VCapsuleV@Gu@physx@@@01@AEBU?$LocalConvex@VConvexHullV@Gu@physx@@@01@AEBT__m128@@222AEAT4@33M@Z 0000000180039580 f i GuSweepSharedTests.obj
 0001:000392d0       ??$gjkRaycast@U?$RelativeConvex@VBoxV@Gu@physx@@@Gu@physx@@U?$LocalConvex@VConvexHullV@Gu@physx@@@23@@Gu@physx@@YA_NAEBU?$RelativeConvex@VBoxV@Gu@physx@@@01@AEBU?$LocalConvex@VConvexHullV@Gu@physx@@@01@AEBT__m128@@222AEAT4@33M@Z 000000018003a2d0 f i GuSweepSharedTests.obj
 0001:0003a090       ??$gjkRaycast@U?$RelativeConvex@VConvexHullV@Gu@physx@@@Gu@physx@@U?$LocalConvex@VConvexHullV@Gu@physx@@@23@@Gu@physx@@YA_NAEBU?$RelativeConvex@VConvexHullV@Gu@physx@@@01@AEBU?$LocalConvex@VConvexHullV@Gu@physx@@@01@AEBT__m128@@222AEAT4@33M@Z 000000018003b090 f i GuSweepSharedTests.obj
 0001:0003af20       ??$gjkRaycastPenetration@U?$RelativeConvex@VConvexHullV@Gu@physx@@@Gu@physx@@U?$LocalConvex@VConvexHullV@Gu@physx@@@23@@Gu@physx@@YA_NAEBU?$RelativeConvex@VConvexHullV@Gu@physx@@@01@AEBU?$LocalConvex@VConvexHullV@Gu@physx@@@01@AEBT__m128@@222AEAT4@33M_N@Z 000000018003bf20 f i GuSweepSharedTests.obj
 0001:0003bb50       ?sweepBox_ConvexGeom@@YA_NAEBVPxGeometry@physx@@AEBVPxTransform@2@AEBVPxBoxGeometry@2@1AEBVBox@Gu@2@AEBVPxVec3@2@MAEAUPxSweepHit@2@V?$PxFlags@W4Enum@PxHitFlag@physx@@G@2@M@Z 000000018003cb50 f   GuSweepSharedTests.obj
 0001:0003c970       ?sweepBox_PlaneGeom@@YA_NAEBVPxGeometry@physx@@AEBVPxTransform@2@AEBVPxBoxGeometry@2@1AEBVBox@Gu@2@AEBVPxVec3@2@MAEAUPxSweepHit@2@V?$PxFlags@W4Enum@PxHitFlag@physx@@G@2@M@Z 000000018003d970 f   GuSweepSharedTests.obj
 0001:0003ce10       ?sweepCapsuleTriangles@Gu@physx@@YA_NIPEBVPxTriangle@2@_NAEBVPxCapsuleGeometry@2@AEBVPxTransform@2@AEBVPxVec3@2@MAEAUPxSweepHit@2@PEBIMV?$PxFlags@W4Enum@PxHitFlag@physx@@G@2@@Z 000000018003de10 f   GuSweepSharedTests.obj
 0001:0003d000       ?sweepCapsule_CapsuleGeom@@YA_NAEBVPxGeometry@physx@@AEBVPxTransform@2@AEBVPxCapsuleGeometry@2@1AEBVCapsule@Gu@2@AEBVPxVec3@2@MAEAUPxSweepHit@2@V?$PxFlags@W4Enum@PxHitFlag@physx@@G@2@M@Z 000000018003e000 f   GuSweepSharedTests.obj
 0001:0003d1e0       ?sweepCapsule_ConvexGeom@@YA_NAEBVPxGeometry@physx@@AEBVPxTransform@2@AEBVPxCapsuleGeometry@2@1AEBVCapsule@Gu@2@AEBVPxVec3@2@MAEAUPxSweepHit@2@V?$PxFlags@W4Enum@PxHitFlag@physx@@G@2@M@Z 000000018003e1e0 f   GuSweepSharedTests.obj
 0001:0003df70       ?sweepCapsule_PlaneGeom@@YA_NAEBVPxGeometry@physx@@AEBVPxTransform@2@AEBVPxCapsuleGeometry@2@1AEBVCapsule@Gu@2@AEBVPxVec3@2@MAEAUPxSweepHit@2@V?$PxFlags@W4Enum@PxHitFlag@physx@@G@2@M@Z 000000018003ef70 f   GuSweepSharedTests.obj
 0001:0003e260       ?sweepCapsule_SphereGeom@@YA_NAEBVPxGeometry@physx@@AEBVPxTransform@2@AEBVPxCapsuleGeometry@2@1AEBVCapsule@Gu@2@AEBVPxVec3@2@MAEAUPxSweepHit@2@V?$PxFlags@W4Enum@PxHitFlag@physx@@G@2@M@Z 000000018003f260 f   GuSweepSharedTests.obj
 0001:0003e3f0       ?sweepConvex_BoxGeom@@YA_NAEBVPxGeometry@physx@@AEBVPxTransform@2@AEBVPxConvexMeshGeometry@2@1AEBVPxVec3@2@MAEAUPxSweepHit@2@V?$PxFlags@W4Enum@PxHitFlag@physx@@G@2@M@Z 000000018003f3f0 f   GuSweepSharedTests.obj
 0001:0003e600       ?sweepConvex_CapsuleGeom@@YA_NAEBVPxGeometry@physx@@AEBVPxTransform@2@AEBVPxConvexMeshGeometry@2@1AEBVPxVec3@2@MAEAUPxSweepHit@2@V?$PxFlags@W4Enum@PxHitFlag@physx@@G@2@M@Z 000000018003f600 f   GuSweepSharedTests.obj
 0001:0003e820       ?sweepConvex_ConvexGeom@@YA_NAEBVPxGeometry@physx@@AEBVPxTransform@2@AEBVPxConvexMeshGeometry@2@1AEBVPxVec3@2@MAEAUPxSweepHit@2@V?$PxFlags@W4Enum@PxHitFlag@physx@@G@2@M@Z 000000018003f820 f   GuSweepSharedTests.obj
 0001:0003f7c0       ?sweepConvex_PlaneGeom@@YA_NAEBVPxGeometry@physx@@AEBVPxTransform@2@AEBVPxConvexMeshGeometry@2@1AEBVPxVec3@2@MAEAUPxSweepHit@2@V?$PxFlags@W4Enum@PxHitFlag@physx@@G@2@M@Z 00000001800407c0 f   GuSweepSharedTests.obj
 0001:0003fc10       ?sweepConvex_SphereGeom@@YA_NAEBVPxGeometry@physx@@AEBVPxTransform@2@AEBVPxConvexMeshGeometry@2@1AEBVPxVec3@2@MAEAUPxSweepHit@2@V?$PxFlags@W4Enum@PxHitFlag@physx@@G@2@M@Z 0000000180040c10 f   GuSweepSharedTests.obj
 0001:00040830       ?sweepCapsule_BoxGeom@@YA_NAEBVPxGeometry@physx@@AEBVPxTransform@2@AEBVPxCapsuleGeometry@2@1AEBVCapsule@Gu@2@AEBVPxVec3@2@MAEAUPxSweepHit@2@V?$PxFlags@W4Enum@PxHitFlag@physx@@G@2@M@Z 0000000180041830 f   GuSweepTests.obj
 0001:00041120       ?sweepBox_SphereGeom@@YA_NAEBVPxGeometry@physx@@AEBVPxTransform@2@AEBVPxBoxGeometry@2@1AEBVBox@Gu@2@AEBVPxVec3@2@MAEAUPxSweepHit@2@V?$PxFlags@W4Enum@PxHitFlag@physx@@G@2@M@Z 0000000180042120 f   GuSweepTests.obj
 0001:000417f0       ?sweepBox_CapsuleGeom@@YA_NAEBVPxGeometry@physx@@AEBVPxTransform@2@AEBVPxBoxGeometry@2@1AEBVBox@Gu@2@AEBVPxVec3@2@MAEAUPxSweepHit@2@V?$PxFlags@W4Enum@PxHitFlag@physx@@G@2@M@Z 00000001800427f0 f   GuSweepTests.obj
 0001:000420f0       ?sweepBox_BoxGeom@@YA_NAEBVPxGeometry@physx@@AEBVPxTransform@2@AEBVPxBoxGeometry@2@1AEBVBox@Gu@2@AEBVPxVec3@2@MAEAUPxSweepHit@2@V?$PxFlags@W4Enum@PxHitFlag@physx@@G@2@M@Z 00000001800430f0 f   GuSweepTests.obj
 0001:00042a90       ??$gjkPenetration@U?$LocalConvex@VCapsuleV@Gu@physx@@@Gu@physx@@U?$LocalConvex@VBoxV@Gu@physx@@@23@@Gu@physx@@YA?AW4GjkStatus@01@AEBU?$LocalConvex@VCapsuleV@Gu@physx@@@01@AEBU?$LocalConvex@VBoxV@Gu@physx@@@01@AEBT__m128@@2_NPEIAE4AEAEAEAUGjkOutput@01@@Z 0000000180043a90 f i GuSweepTests.obj
 0001:00043fb0       ??$gjkPenetration@U?$RelativeConvex@VBoxV@Gu@physx@@@Gu@physx@@U?$LocalConvex@VBoxV@Gu@physx@@@23@@Gu@physx@@YA?AW4GjkStatus@01@AEBU?$RelativeConvex@VBoxV@Gu@physx@@@01@AEBU?$LocalConvex@VBoxV@Gu@physx@@@01@AEBT__m128@@2_NPEIAE4AEAEAEAUGjkOutput@01@@Z 0000000180044fb0 f i GuSweepTests.obj
 0001:000454f0       ??$gjkRaycast@U?$LocalConvex@VCapsuleV@Gu@physx@@@Gu@physx@@U?$LocalConvex@VBoxV@Gu@physx@@@23@@Gu@physx@@YA_NAEBU?$LocalConvex@VCapsuleV@Gu@physx@@@01@AEBU?$LocalConvex@VBoxV@Gu@physx@@@01@AEBT__m128@@222AEAT4@33M@Z 00000001800464f0 f i GuSweepTests.obj
 0001:000460d0       ??$gjkRaycast@U?$LocalConvex@VTriangleV@Gu@physx@@@Gu@physx@@U?$LocalConvex@VBoxV@Gu@physx@@@23@@Gu@physx@@YA_NAEBU?$LocalConvex@VTriangleV@Gu@physx@@@01@AEBU?$LocalConvex@VBoxV@Gu@physx@@@01@AEBT__m128@@222AEAT4@33M@Z 00000001800470d0 f i GuSweepTests.obj
 0001:00046d20       ??$gjkRaycast@U?$RelativeConvex@VBoxV@Gu@physx@@@Gu@physx@@U?$LocalConvex@VBoxV@Gu@physx@@@23@@Gu@physx@@YA_NAEBU?$RelativeConvex@VBoxV@Gu@physx@@@01@AEBU?$LocalConvex@VBoxV@Gu@physx@@@01@AEBT__m128@@222AEAT4@33M@Z 0000000180047d20 f i GuSweepTests.obj
 0001:00047960       ?getSweepFuncTable@Gu@physx@@YAAEBUGeomSweepFuncs@12@XZ 0000000180048960 f   GuSweepTests.obj
 0001:00047970       ?getSweepMargin@?$RelativeConvex@VTriangleV@Gu@physx@@@Gu@physx@@UEBA?AT__m128@@XZ 0000000180048970 f i GuCCDSweepPrimitives.obj
 0001:00047970       ?getSweepMargin@?$LocalConvex@VTriangleV@Gu@physx@@@Gu@physx@@UEBA?AT__m128@@XZ 0000000180048970 f i GuSweepTests.obj
 0001:00047980       ?registerHeightFields_Sweeps@@YAXXZ 0000000180048980 f   GuSweepTests.obj
 0001:000479c0       ?support@?$LocalConvex@VBoxV@Gu@physx@@@Gu@physx@@UEBA?AT__m128@@AEBT4@@Z 00000001800489c0 f i GuSweepTests.obj
 0001:000479f0       ?support@?$LocalConvex@VBoxV@Gu@physx@@@Gu@physx@@UEBA?AT__m128@@AEBT4@AEAH@Z 00000001800489f0 f i GuSweepTests.obj
 0001:00047a30       ?support@?$LocalConvex@VTriangleV@Gu@physx@@@Gu@physx@@UEBA?AT__m128@@AEBT4@@Z 0000000180048a30 f i GuSweepTests.obj
 0001:00047ac0       ?support@?$LocalConvex@VTriangleV@Gu@physx@@@Gu@physx@@UEBA?AT__m128@@AEBT4@AEAH@Z 0000000180048ac0 f i GuSweepTests.obj
 0001:00047ba0       ?supportPoint@?$LocalConvex@VBoxV@Gu@physx@@@Gu@physx@@UEBA?AT__m128@@H@Z 0000000180048ba0 f i GuSweepTests.obj
 0001:00047be0       ?supportPoint@?$LocalConvex@VTriangleV@Gu@physx@@@Gu@physx@@UEBA?AT__m128@@H@Z 0000000180048be0 f i GuSweepTests.obj
 0001:00047c00       ?sweepBoxTriangles@Gu@physx@@YA_NIPEBVPxTriangle@2@_NAEBVPxBoxGeometry@2@AEBVPxTransform@2@AEBVPxVec3@2@MAEAUPxSweepHit@2@PEBIMV?$PxFlags@W4Enum@PxHitFlag@physx@@G@2@@Z 0000000180048c00 f   GuSweepTests.obj
 0001:00048680       ??$?_UV?$ReflectionAllocator@VAABBTreeBuildNode@Gu@physx@@@shdfnd@physx@@@UserAllocated@shdfnd@physx@@SAPEAX_KV?$ReflectionAllocator@VAABBTreeBuildNode@Gu@physx@@@12@PEBDH@Z 0000000180049680 f i GuAABBTreeBuild.obj
 0001:00048720       ??$copy@VNamedAllocator@shdfnd@physx@@@?$Array@USlab@NodeAllocator@Gu@physx@@VNamedAllocator@shdfnd@4@@shdfnd@physx@@IEAAXAEBV012@@Z 0000000180049720 f i GuAABBTreeBuild.obj
 0001:000487a0       ??0AABBTreeBuildNode@Gu@physx@@QEAA@AEBV012@@Z 00000001800497a0 f i GuAABBTreeBuild.obj
 0001:000487a0       ??4AABBTreeBuildNode@Gu@physx@@QEAAAEAV012@AEBV012@@Z 00000001800497a0 f i GuAABBTreeBuild.obj
 0001:000487e0       ??0AABBTreeBuildParams@Gu@physx@@QEAA@IIPEBVPxBounds3@2@@Z 00000001800497e0 f i GuAABBTreeBuild.obj
 0001:00048800       ??0BuildStats@Gu@physx@@QEAA@XZ 0000000180049800 f i GuAABBTreeBuild.obj
 0001:00048810       ??0NodeAllocator@Gu@physx@@QEAA@AEBV012@@Z 0000000180049810 f i GuAABBTreeBuild.obj
 0001:00048880       ??0NodeAllocator@Gu@physx@@QEAA@XZ 0000000180049880 f   GuAABBTreeBuild.obj
 0001:000488e0       ?reset@AABBTreeBuildParams@Gu@physx@@QEAAXXZ 00000001800498e0 f i GuAABBTreeBuild.obj
 0001:000488e0       ??1AABBTreeBuildParams@Gu@physx@@QEAA@XZ 00000001800498e0 f i GuAABBTreeBuild.obj
 0001:00048940       ??1NodeAllocator@Gu@physx@@QEAA@XZ 0000000180049940 f   GuAABBTreeBuild.obj
 0001:00048980       ??4AABBTreeBuildParams@Gu@physx@@QEAAAEAV012@AEBV012@@Z 0000000180049980 f i GuAABBTreeBuild.obj
 0001:000489a0       ??4BuildStats@Gu@physx@@QEAAAEAU012@$$QEAU012@@Z 00000001800499a0 f i GuAABBTreeBuild.obj
 0001:000489b0       ??4BuildStats@Gu@physx@@QEAAAEAU012@AEBU012@@Z 00000001800499b0 f i GuAABBTreeBuild.obj
 0001:000489c0       ??4NodeAllocator@Gu@physx@@QEAAAEAV012@AEBV012@@Z 00000001800499c0 f i GuAABBTreeBuild.obj
 0001:00048a70       ??_FAABBTreeBuildParams@Gu@physx@@QEAAXXZ 0000000180049a70 f i GuAABBTreeBuild.obj
 0001:00048a90       ?_buildHierarchy@AABBTreeBuildNode@Gu@physx@@QEAAXAEAVAABBTreeBuildParams@23@AEAUBuildStats@23@AEAVNodeAllocator@23@QEAI@Z 0000000180049a90 f   GuAABBTreeBuild.obj
 0001:00048b20       ?allocate@?$Array@USlab@NodeAllocator@Gu@physx@@VNamedAllocator@shdfnd@4@@shdfnd@physx@@IEAAPEAUSlab@NodeAllocator@Gu@3@I@Z 0000000180049b20 f i GuAABBTreeBuild.obj
 0001:00048b90       ?buildAABBTree@Gu@physx@@YA_NAEAVAABBTreeBuildParams@12@AEAVNodeAllocator@12@AEAUBuildStats@12@AEAPEAI@Z 0000000180049b90 f   GuAABBTreeBuild.obj
 0001:00048bf0       ?getBiNode@NodeAllocator@Gu@physx@@QEAAPEAVAABBTreeBuildNode@23@XZ 0000000180049bf0 f   GuAABBTreeBuild.obj
 0001:00048d20       ?getNbPrimitives@AABBTreeBuildNode@Gu@physx@@QEBAIXZ 0000000180049d20 f i GuAABBTreeBuild.obj
 0001:00048d20       ?getNbTriangles@TriangleMesh@Gu@physx@@UEBAIXZ 0000000180049d20 f i GuTriangleMesh.obj
 0001:00048d20       ?getNbRuntimePrimitives@AABBTreeBuildNode@Gu@physx@@QEBAIXZ 0000000180049d20 f i GuAABBTreeBuild.obj
 0001:00048d30       ?getNeg@AABBTreeBuildNode@Gu@physx@@QEBAPEBV123@XZ 0000000180049d30 f i GuAABBTreeBuild.obj
 0001:00048d50       ?getPrimitives@AABBTreeBuildNode@Gu@physx@@QEAAPEAIPEAI@Z 0000000180049d50 f i GuAABBTreeBuild.obj
 0001:00048d50       ?getPrimitives@AABBTreeBuildNode@Gu@physx@@QEBAPEBIPEBI@Z 0000000180049d50 f i GuAABBTreeBuild.obj
 0001:00048d60       ?growAndPushBack@?$Array@USlab@NodeAllocator@Gu@physx@@VNamedAllocator@shdfnd@4@@shdfnd@physx@@IEAAAEAUSlab@NodeAllocator@Gu@3@AEBU4563@@Z 0000000180049d60 f i GuAABBTreeBuild.obj
 0001:00048e60       ?increaseCount@BuildStats@Gu@physx@@QEAAXI@Z 0000000180049e60 f i GuAABBTreeBuild.obj
 0001:00048e70       ?init@NodeAllocator@Gu@physx@@QEAAXII@Z 0000000180049e70 f   GuAABBTreeBuild.obj
 0001:00048f80       ?initAABBTreeBuild@Gu@physx@@YA_NAEAVAABBTreeBuildParams@12@AEAVNodeAllocator@12@AEAUBuildStats@12@AEAPEAI@Z 0000000180049f80 f   GuAABBTreeBuild.obj
 0001:00049180       ?isLeaf@AABBTreeBuildNode@Gu@physx@@QEBA_NXZ 000000018004a180 f i GuAABBTreeBuild.obj
 0001:00049190       ?recreate@?$Array@USlab@NodeAllocator@Gu@physx@@VNamedAllocator@shdfnd@4@@shdfnd@physx@@IEAAXI@Z 000000018004a190 f i GuAABBTreeBuild.obj
 0001:00049240       ?release@NodeAllocator@Gu@physx@@QEAAXXZ 000000018004a240 f   GuAABBTreeBuild.obj
 0001:000492f0       ?reset@BuildStats@Gu@physx@@QEAAXXZ 000000018004a2f0 f i GuAABBTreeBuild.obj
 0001:00049300       ?resize@?$Array@USlab@NodeAllocator@Gu@physx@@VNamedAllocator@shdfnd@4@@shdfnd@physx@@QEAAXIAEBUSlab@NodeAllocator@Gu@3@@Z 000000018004a300 f i GuAABBTreeBuild.obj
 0001:00049380       ?setCount@BuildStats@Gu@physx@@QEAAXI@Z 000000018004a380 f i GuAABBTreeBuild.obj
 0001:00049390       ?setNbRunTimePrimitives@AABBTreeBuildNode@Gu@physx@@QEAAXI@Z 000000018004a390 f i GuAABBTreeBuild.obj
 0001:00049500       ?subdivide@AABBTreeBuildNode@Gu@physx@@QEAAXAEBVAABBTreeBuildParams@23@AEAUBuildStats@23@AEAVNodeAllocator@23@QEAI@Z 000000018004a500 f   GuAABBTreeBuild.obj
 0001:000496e0       ??0?$InlineArray@PEBUBVHNode@Gu@physx@@$0BAA@VNamedAllocator@shdfnd@3@@shdfnd@physx@@QEAA@AEBVNamedAllocator@12@@Z 000000018004a6e0 f i GuBVHStructure.obj
 0001:000497a0       ??0BVHStructure@Gu@physx@@QEAA@PEAVGuMeshFactory@2@@Z 000000018004a7a0 f   GuBVHStructure.obj
 0001:00049800       ??0BVHStructure@Gu@physx@@QEAA@PEAVGuMeshFactory@2@AEAUBVHStructureData@12@@Z 000000018004a800 f   GuBVHStructure.obj
 0001:00049870       ??R?$AABBTreeOverlap@UAABBAABBTest@Gu@physx@@UBVHTree@23@UBVHNode@23@IUBVHCallback@23@@Gu@physx@@QEAA_NPEBIPEBVPxBounds3@2@AEBUBVHTree@12@AEBUAABBAABBTest@12@AEAUBVHCallback@12@@Z 000000018004a870 f i GuBVHStructure.obj
 0001:00049b10       ??R?$AABBTreeRaycast@$00UBVHTree@Gu@physx@@UBVHNode@23@IUBVHCallback@23@@Gu@physx@@QEAA_NPEBIPEBVPxBounds3@2@AEBUBVHTree@12@AEBVPxVec3@2@3AEAM3AEAUBVHCallback@12@@Z 000000018004ab10 f i GuBVHStructure.obj
 0001:0004a1b0       ??R?$AABBTreeRaycast@$0A@UBVHTree@Gu@physx@@UBVHNode@23@IUBVHCallback@23@@Gu@physx@@QEAA_NPEBIPEBVPxBounds3@2@AEBUBVHTree@12@AEBVPxVec3@2@3AEAM3AEAUBVHCallback@12@@Z 000000018004b1b0 f i GuBVHStructure.obj
 0001:0004a80c       ??_EBVHStructure@Gu@physx@@WBA@EAAPEAXI@Z 000000018004b80c f i GuBVHStructure.obj
 0001:0004a820       ??_EBVHStructure@Gu@physx@@UEAAPEAXI@Z 000000018004b820 f i GuBVHStructure.obj
 0001:0004a820       ??_GBVHStructure@Gu@physx@@UEAAPEAXI@Z 000000018004b820 f i GuBVHStructure.obj
 0001:0004a880       ??_GRefCountable@Cm@physx@@UEAAPEAXI@Z 000000018004b880 f i GuBVHStructure.obj
 0001:0004a880       ??_ERefCountable@Cm@physx@@UEAAPEAXI@Z 000000018004b880 f i GuBVHStructure.obj
 0001:0004a8b0       ?allocate@?$Array@PEBUBVHNode@Gu@physx@@V?$InlineAllocator@$0IAA@VNamedAllocator@shdfnd@physx@@@shdfnd@3@@shdfnd@physx@@IEAAPEAPEBUBVHNode@Gu@3@I@Z 000000018004b8b0 f i GuBVHStructure.obj
 0001:0004a940       ?createVolumes@BVHStructure@Gu@physx@@AEBAXXZ 000000018004b940 f   GuBVHStructure.obj
 0001:0004a9c0       ?getTriangles@TriangleMesh@Gu@physx@@UEBAPEBXXZ 000000018004b9c0 f i GuTriangleMesh.obj
 0001:0004a9c0       ?getBounds@BVHStructure@Gu@physx@@UEBAPEBVPxBounds3@3@XZ 000000018004b9c0 f i GuBVHStructure.obj
 0001:0004a9d0       ?getConcreteTypeName@PxBVHStructure@physx@@UEBAPEBDXZ 000000018004b9d0 f i GuBVHStructure.obj
 0001:0004a9e0       ?getNbBounds@BVHStructure@Gu@physx@@UEBAIXZ 000000018004b9e0 f i GuBVHStructure.obj
 0001:0004a9f0       ?isKindOf@PxBVHStructure@physx@@MEBA_NPEBD@Z 000000018004b9f0 f i GuBVHStructure.obj
 0001:0004aa40       ?load@BVHStructure@Gu@physx@@QEAA_NAEAVPxInputStream@3@@Z 000000018004ba40 f   GuBVHStructure.obj
 0001:0004ac20       ?onRefCountZero@BVHStructure@Gu@physx@@UEAAXXZ 000000018004bc20 f   GuBVHStructure.obj
 0001:0004ad50       ?onRefCountZero@RefCountable@Cm@physx@@UEAAXXZ 000000018004bd50 f i GuBVHStructure.obj
 0001:0004ad70       ?overlap@BVHStructure@Gu@physx@@UEBAIAEBVPxBounds3@3@IPEIAI@Z 000000018004bd70 f   GuBVHStructure.obj
 0001:0004aeb0       ?raycast@BVHStructure@Gu@physx@@UEBAIAEBVPxVec3@3@0MIPEIAI@Z 000000018004beb0 f   GuBVHStructure.obj
 0001:0004af80       ?recreate@?$Array@PEBUBVHNode@Gu@physx@@V?$InlineAllocator@$0IAA@VNamedAllocator@shdfnd@physx@@@shdfnd@3@@shdfnd@physx@@IEAAXI@Z 000000018004bf80 f i GuBVHStructure.obj
 0001:0004b020       ?release@TriangleMesh@Gu@physx@@UEAAXXZ 000000018004c020 f   GuTriangleMesh.obj
 0001:0004b020       ?release@BVHStructure@Gu@physx@@UEAAXXZ 000000018004c020 f   GuBVHStructure.obj
 0001:0004b020       ?release@ConvexMesh@Gu@physx@@UEAAXXZ 000000018004c020 f   GuConvexMesh.obj
 0001:0004b020       ?release@HeightField@Gu@physx@@UEAAXXZ 000000018004c020 f   GuHeightField.obj
 0001:0004b050       ?resizeUninitialized@?$Array@PEBUBVHNode@Gu@physx@@V?$InlineAllocator@$0IAA@VNamedAllocator@shdfnd@physx@@@shdfnd@3@@shdfnd@physx@@QEAAXI@Z 000000018004c050 f i GuBVHStructure.obj
 0001:0004b0a0       ?sweep@BVHStructure@Gu@physx@@UEBAIAEBVPxBounds3@3@AEBVPxVec3@3@MIPEIAI@Z 000000018004c0a0 f   GuBVHStructure.obj
 0001:0004b200       ??0?$InlineArray@I$0EA@VNamedAllocator@shdfnd@physx@@@shdfnd@physx@@QEAA@AEBVNamedAllocator@12@@Z 000000018004c200 f i GuCCDSweepConvexMesh.obj
 0001:0004b380       ?SweepAnyShapeHeightfield@Gu@physx@@YAMAEBUCCDShape@12@0AEBVPxTransform@2@111MAEAVPxVec3@2@2MAEAIM@Z 000000018004c380 f   GuCCDSweepConvexMesh.obj
 0001:0004c520       ?SweepAnyShapeMesh@Gu@physx@@YAMAEBUCCDShape@12@0AEBVPxTransform@2@111MAEAVPxVec3@2@2MAEAIM@Z 000000018004d520 f   GuCCDSweepConvexMesh.obj
 0001:0004dc20       ?SweepEstimateAnyShapeHeightfield@Gu@physx@@YAMAEBUCCDShape@12@0AEBVPxTransform@2@111MM@Z 000000018004ec20 f   GuCCDSweepConvexMesh.obj
 0001:0004e4a0       ?SweepEstimateAnyShapeMesh@Gu@physx@@YAMAEBUCCDShape@12@0AEBVPxTransform@2@111MM@Z 000000018004f4a0 f   GuCCDSweepConvexMesh.obj
 0001:0004e760       ?allocate@?$Array@IV?$InlineAllocator@$0BAA@VNamedAllocator@shdfnd@physx@@@shdfnd@physx@@@shdfnd@physx@@IEAAPEAII@Z 000000018004f760 f i GuCCDSweepConvexMesh.obj
 0001:0004f380       ?growAndPushBack@?$Array@IV?$InlineAllocator@$0BAA@VNamedAllocator@shdfnd@physx@@@shdfnd@physx@@@shdfnd@physx@@IEAAAEAIAEBI@Z 0000000180050380 f i GuCCDSweepConvexMesh.obj
 0001:0004fa70       ?recreate@?$Array@IV?$InlineAllocator@$0BAA@VNamedAllocator@shdfnd@physx@@@shdfnd@physx@@@shdfnd@physx@@IEAAXI@Z 0000000180050a70 f i GuCCDSweepConvexMesh.obj
 0001:0004fb10       ?resize@?$Array@IV?$InlineAllocator@$0BAA@VNamedAllocator@shdfnd@physx@@@shdfnd@physx@@@shdfnd@physx@@QEAAXIAEBI@Z 0000000180050b10 f i GuCCDSweepConvexMesh.obj
 0001:0004fbe0       ?resize@?$Array@IVNamedAllocator@shdfnd@physx@@@shdfnd@physx@@QEAAXIAEBI@Z 0000000180050be0 f i GuCCDSweepConvexMesh.obj
 0001:0004fca0       ?transformBoxOrthonormal@physx@@YA?AVBox@Gu@1@AEBV231@AEBVPxTransform@1@@Z 0000000180050ca0 f i GuCCDSweepConvexMesh.obj
 0001:00050130       ?UnimplementedSweep@Gu@physx@@YAMAEBUCCDShape@12@0AEBVPxTransform@2@111MAEAVPxVec3@2@2MAEAIM@Z 0000000180051130 f   GuCCDSweepPrimitives.obj
 0001:00050140       ??$SweepGeomGeom@VCapsuleV@Gu@physx@@V123@@Gu@physx@@YAMAEBUCCDShape@01@0AEBVPxTransform@1@111MAEAVPxVec3@1@2MAEAIM@Z 0000000180051140 f i GuCCDSweepPrimitives.obj
 0001:00050270       ??$SweepGeomGeom@VCapsuleV@Gu@physx@@VBoxV@23@@Gu@physx@@YAMAEBUCCDShape@01@0AEBVPxTransform@1@111MAEAVPxVec3@1@2MAEAIM@Z 0000000180051270 f i GuCCDSweepPrimitives.obj
 0001:000503d0       ??$SweepGeomGeom@VCapsuleV@Gu@physx@@VConvexHullV@23@@Gu@physx@@YAMAEBUCCDShape@01@0AEBVPxTransform@1@111MAEAVPxVec3@1@2MAEAIM@Z 00000001800513d0 f i GuCCDSweepPrimitives.obj
 0001:00050930       ??$SweepGeomGeom@VBoxV@Gu@physx@@V123@@Gu@physx@@YAMAEBUCCDShape@01@0AEBVPxTransform@1@111MAEAVPxVec3@1@2MAEAIM@Z 0000000180051930 f i GuCCDSweepPrimitives.obj
 0001:00050ac0       ??$SweepGeomGeom@VBoxV@Gu@physx@@VConvexHullV@23@@Gu@physx@@YAMAEBUCCDShape@01@0AEBVPxTransform@1@111MAEAVPxVec3@1@2MAEAIM@Z 0000000180051ac0 f i GuCCDSweepPrimitives.obj
 0001:00051040       ??$SweepGeomGeom@VConvexHullV@Gu@physx@@V123@@Gu@physx@@YAMAEBUCCDShape@01@0AEBVPxTransform@1@111MAEAVPxVec3@1@2MAEAIM@Z 0000000180052040 f i GuCCDSweepPrimitives.obj
 0001:00051960       ?UnimplementedTriangleSweep@Gu@physx@@YAMAEBVGeometryUnion@12@0AEBVPxTransform@2@111MAEAVPxVec3@2@2AEBVFastVertex2ShapeScaling@Cm@2@AEAVTriangleV@12@M@Z 0000000180052960 f   GuCCDSweepPrimitives.obj
 0001:00051970       ??$SweepGeomTriangles@VCapsuleV@Gu@physx@@@Gu@physx@@YAMAEBVGeometryUnion@01@0AEBVPxTransform@1@111MAEAVPxVec3@1@2AEBVFastVertex2ShapeScaling@Cm@1@AEAVTriangleV@01@M@Z 0000000180052970 f i GuCCDSweepPrimitives.obj
 0001:00051a40       ??$SweepGeomTriangles@VBoxV@Gu@physx@@@Gu@physx@@YAMAEBVGeometryUnion@01@0AEBVPxTransform@1@111MAEAVPxVec3@1@2AEBVFastVertex2ShapeScaling@Cm@1@AEAVTriangleV@01@M@Z 0000000180052a40 f i GuCCDSweepPrimitives.obj
 0001:00051b40       ??$SweepGeomTriangles@VConvexHullV@Gu@physx@@@Gu@physx@@YAMAEBVGeometryUnion@01@0AEBVPxTransform@1@111MAEAVPxVec3@1@2AEBVFastVertex2ShapeScaling@Cm@1@AEAVTriangleV@01@M@Z 0000000180052b40 f i GuCCDSweepPrimitives.obj
 0001:00052050       ?supportPoint@?$RelativeConvex@VCapsuleV@Gu@physx@@@Gu@physx@@UEBA?AT__m128@@H@Z 0000000180053050 f i GuCCDSweepPrimitives.obj
 0001:000520b0       ?support@?$RelativeConvex@VCapsuleV@Gu@physx@@@Gu@physx@@UEBA?AT__m128@@AEBT4@@Z 00000001800530b0 f i GuCCDSweepPrimitives.obj
 0001:00052160       ?support@?$RelativeConvex@VCapsuleV@Gu@physx@@@Gu@physx@@UEBA?AT__m128@@AEBT4@AEAH@Z 0000000180053160 f i GuCCDSweepPrimitives.obj
 0001:00052220       ?supportPoint@?$RelativeConvex@VTriangleV@Gu@physx@@@Gu@physx@@UEBA?AT__m128@@H@Z 0000000180053220 f i GuCCDSweepPrimitives.obj
 0001:00052270       ?support@?$RelativeConvex@VTriangleV@Gu@physx@@@Gu@physx@@UEBA?AT__m128@@AEBT4@@Z 0000000180053270 f i GuCCDSweepPrimitives.obj
 0001:00052370       ?support@?$RelativeConvex@VTriangleV@Gu@physx@@@Gu@physx@@UEBA?AT__m128@@AEBT4@AEAH@Z 0000000180053370 f i GuCCDSweepPrimitives.obj
 0001:00056290       ??$gjkPenetration@U?$RelativeConvex@VCapsuleV@Gu@physx@@@Gu@physx@@U?$LocalConvex@VBoxV@Gu@physx@@@23@@Gu@physx@@YA?AW4GjkStatus@01@AEBU?$RelativeConvex@VCapsuleV@Gu@physx@@@01@AEBU?$LocalConvex@VBoxV@Gu@physx@@@01@AEBT__m128@@2_NPEIAE4AEAEAEAUGjkOutput@01@@Z 0000000180057290 f i GuCCDSweepPrimitives.obj
 0001:00057820       ??$gjkPenetration@U?$RelativeConvex@VCapsuleV@Gu@physx@@@Gu@physx@@U?$LocalConvex@VCapsuleV@Gu@physx@@@23@@Gu@physx@@YA?AW4GjkStatus@01@AEBU?$RelativeConvex@VCapsuleV@Gu@physx@@@01@AEBU?$LocalConvex@VCapsuleV@Gu@physx@@@01@AEBT__m128@@2_NPEIAE4AEAEAEAUGjkOutput@01@@Z 0000000180058820 f i GuCCDSweepPrimitives.obj
 0001:00058db0       ??$gjkPenetration@U?$RelativeConvex@VCapsuleV@Gu@physx@@@Gu@physx@@U?$LocalConvex@VConvexHullV@Gu@physx@@@23@@Gu@physx@@YA?AW4GjkStatus@01@AEBU?$RelativeConvex@VCapsuleV@Gu@physx@@@01@AEBU?$LocalConvex@VConvexHullV@Gu@physx@@@01@AEBT__m128@@2_NPEIAE4AEAEAEAUGjkOutput@01@@Z 0000000180059db0 f i GuCCDSweepPrimitives.obj
 0001:0005a3c0       ??$gjkPenetration@U?$RelativeConvex@VTriangleV@Gu@physx@@@Gu@physx@@U?$LocalConvex@VBoxV@Gu@physx@@@23@@Gu@physx@@YA?AW4GjkStatus@01@AEBU?$RelativeConvex@VTriangleV@Gu@physx@@@01@AEBU?$LocalConvex@VBoxV@Gu@physx@@@01@AEBT__m128@@2_NPEIAE4AEAEAEAUGjkOutput@01@@Z 000000018005b3c0 f i GuCCDSweepPrimitives.obj
 0001:0005b950       ??$gjkPenetration@U?$RelativeConvex@VTriangleV@Gu@physx@@@Gu@physx@@U?$LocalConvex@VCapsuleV@Gu@physx@@@23@@Gu@physx@@YA?AW4GjkStatus@01@AEBU?$RelativeConvex@VTriangleV@Gu@physx@@@01@AEBU?$LocalConvex@VCapsuleV@Gu@physx@@@01@AEBT__m128@@2_NPEIAE4AEAEAEAUGjkOutput@01@@Z 000000018005c950 f i GuCCDSweepPrimitives.obj
 0001:0005cf00       ??$gjkPenetration@U?$RelativeConvex@VTriangleV@Gu@physx@@@Gu@physx@@U?$LocalConvex@VConvexHullV@Gu@physx@@@23@@Gu@physx@@YA?AW4GjkStatus@01@AEBU?$RelativeConvex@VTriangleV@Gu@physx@@@01@AEBU?$LocalConvex@VConvexHullV@Gu@physx@@@01@AEBT__m128@@2_NPEIAE4AEAEAEAUGjkOutput@01@@Z 000000018005df00 f i GuCCDSweepPrimitives.obj
 0001:0005e530       ??$gjkRaycast@U?$RelativeConvex@VCapsuleV@Gu@physx@@@Gu@physx@@U?$LocalConvex@VBoxV@Gu@physx@@@23@@Gu@physx@@YA_NAEBU?$RelativeConvex@VCapsuleV@Gu@physx@@@01@AEBU?$LocalConvex@VBoxV@Gu@physx@@@01@AEBT__m128@@222AEAT4@33M@Z 000000018005f530 f i GuCCDSweepPrimitives.obj
 0001:0005f1c0       ??$gjkRaycast@U?$RelativeConvex@VCapsuleV@Gu@physx@@@Gu@physx@@U?$LocalConvex@VCapsuleV@Gu@physx@@@23@@Gu@physx@@YA_NAEBU?$RelativeConvex@VCapsuleV@Gu@physx@@@01@AEBU?$LocalConvex@VCapsuleV@Gu@physx@@@01@AEBT__m128@@222AEAT4@33M@Z 00000001800601c0 f i GuCCDSweepPrimitives.obj
 0001:0005fe90       ??$gjkRaycast@U?$RelativeConvex@VCapsuleV@Gu@physx@@@Gu@physx@@U?$LocalConvex@VConvexHullV@Gu@physx@@@23@@Gu@physx@@YA_NAEBU?$RelativeConvex@VCapsuleV@Gu@physx@@@01@AEBU?$LocalConvex@VConvexHullV@Gu@physx@@@01@AEBT__m128@@222AEAT4@33M@Z 0000000180060e90 f i GuCCDSweepPrimitives.obj
 0001:00060c80       ??$gjkRaycast@U?$RelativeConvex@VTriangleV@Gu@physx@@@Gu@physx@@U?$LocalConvex@VBoxV@Gu@physx@@@23@@Gu@physx@@YA_NAEBU?$RelativeConvex@VTriangleV@Gu@physx@@@01@AEBU?$LocalConvex@VBoxV@Gu@physx@@@01@AEBT__m128@@222AEAT4@33M@Z 0000000180061c80 f i GuCCDSweepPrimitives.obj
 0001:00061990       ??$gjkRaycast@U?$RelativeConvex@VTriangleV@Gu@physx@@@Gu@physx@@U?$LocalConvex@VCapsuleV@Gu@physx@@@23@@Gu@physx@@YA_NAEBU?$RelativeConvex@VTriangleV@Gu@physx@@@01@AEBU?$LocalConvex@VCapsuleV@Gu@physx@@@01@AEBT__m128@@222AEAT4@33M@Z 0000000180062990 f i GuCCDSweepPrimitives.obj
 0001:000626f0       ??$gjkRaycast@U?$RelativeConvex@VTriangleV@Gu@physx@@@Gu@physx@@U?$LocalConvex@VConvexHullV@Gu@physx@@@23@@Gu@physx@@YA_NAEBU?$RelativeConvex@VTriangleV@Gu@physx@@@01@AEBU?$LocalConvex@VConvexHullV@Gu@physx@@@01@AEBT__m128@@222AEAT4@33M@Z 00000001800636f0 f i GuCCDSweepPrimitives.obj
 0001:00063590       ?SweepShapeShape@Gu@physx@@YAMAEBUCCDShape@12@0AEBVPxTransform@2@111MAEAVPxVec3@2@2MAEAIM@Z 0000000180064590 f   GuCCDSweepPrimitives.obj
 0001:000635b0       ?SweepShapeTriangle@Gu@physx@@YAMAEBVGeometryUnion@12@0AEBVPxTransform@2@111MAEAVPxVec3@2@2AEBVFastVertex2ShapeScaling@Cm@2@AEAVTriangleV@12@M@Z 00000001800645b0 f   GuCCDSweepPrimitives.obj
 0001:000635d0       ?barycentricCoordinates@Gu@physx@@YAXAEBT__m128@@000AEAT3@1@Z 00000001800645d0 f   GuBarycentricCoordinates.obj
 0001:00063720       ?barycentricCoordinates@Gu@physx@@YAXAEBT__m128@@00AEAT3@@Z 0000000180064720 f   GuBarycentricCoordinates.obj
 0001:00063790       ?addAxis@SeparatingAxes@Gu@physx@@QEAA_NAEBVPxVec3@3@@Z 0000000180064790 f   GuSeparatingAxes.obj
 0001:00063850       ?contactBoxBox@Gu@physx@@YA_NAEBVGeometryUnion@12@0AEBVPxTransform@2@1AEBUNarrowPhaseParams@12@AEAUCache@12@AEAVContactBuffer@12@PEAVRenderOutput@Cm@2@@Z 0000000180064850 f   GuContactBoxBox.obj
 0001:00067d30       ?contactCapsuleBox@Gu@physx@@YA_NAEBVGeometryUnion@12@0AEBVPxTransform@2@1AEBUNarrowPhaseParams@12@AEAUCache@12@AEAVContactBuffer@12@PEAVRenderOutput@Cm@2@@Z 0000000180068d30 f   GuContactCapsuleBox.obj
 0001:000682d0       ?contactCapsuleCapsule@Gu@physx@@YA_NAEBVGeometryUnion@12@0AEBVPxTransform@2@1AEBUNarrowPhaseParams@12@AEAUCache@12@AEAVContactBuffer@12@PEAVRenderOutput@Cm@2@@Z 00000001800692d0 f   GuContactCapsuleCapsule.obj
 0001:0006abf0       ?contactCapsuleConvex@Gu@physx@@YA_NAEBVGeometryUnion@12@0AEBVPxTransform@2@1AEBUNarrowPhaseParams@12@AEAUCache@12@AEAVContactBuffer@12@PEAVRenderOutput@Cm@2@@Z 000000018006bbf0 f   GuContactCapsuleConvex.obj
 0001:0006d0e0       ?contactCapsuleHeightfield@Gu@physx@@YA_NAEBVGeometryUnion@12@0AEBVPxTransform@2@1AEBUNarrowPhaseParams@12@AEAUCache@12@AEAVContactBuffer@12@PEAVRenderOutput@Cm@2@@Z 000000018006e0e0 f   GuContactCapsuleMesh.obj
 0001:0006d710       ?contactCapsuleMesh@Gu@physx@@YA_NAEBVGeometryUnion@12@0AEBVPxTransform@2@1AEBUNarrowPhaseParams@12@AEAUCache@12@AEAVContactBuffer@12@PEAVRenderOutput@Cm@2@@Z 000000018006e710 f   GuContactCapsuleMesh.obj
 0001:0006e820       ?transformFast@PxBounds3@physx@@SA?AV12@AEBVPxTransform@2@AEBV12@@Z 000000018006f820 f i GuContactCapsuleMesh.obj
 0001:0006ec00       ?transformQueryBounds@FastVertex2ShapeScaling@Cm@physx@@QEBAXAEAVPxVec3@3@0AEAVPxMat33@3@@Z 000000018006fc00 f i GuContactCapsuleMesh.obj
 0001:00072f40       ?contactBoxConvex@Gu@physx@@YA_NAEBVGeometryUnion@12@0AEBVPxTransform@2@1AEBUNarrowPhaseParams@12@AEAUCache@12@AEAVContactBuffer@12@PEAVRenderOutput@Cm@2@@Z 0000000180073f40 f   GuContactConvexConvex.obj
 0001:000730d0       ?contactConvexConvex@Gu@physx@@YA_NAEBVGeometryUnion@12@0AEBVPxTransform@2@1AEBUNarrowPhaseParams@12@AEAUCache@12@AEAVContactBuffer@12@PEAVRenderOutput@Cm@2@@Z 00000001800740d0 f   GuContactConvexConvex.obj
 0001:00073520       ?transformPlaneToShapeSpace@FastVertex2ShapeScaling@Cm@physx@@QEBAXAEBVPxVec3@3@MAEAV43@AEAM@Z 0000000180074520 f i GuContactConvexConvex.obj
 0001:00073610       ??0?$CacheMap@UCachedEdge@Gu@physx@@$0IA@@Gu@physx@@QEAA@XZ 0000000180074610 f i GuContactConvexMesh.obj
 0001:000736d0       ??0?$CacheMap@UCachedVertex@Gu@physx@@$0IA@@Gu@physx@@QEAA@XZ 00000001800746d0 f i GuContactConvexMesh.obj
 0001:00073790       ??0?$InlineArray@I$0EEA@VNamedAllocator@shdfnd@physx@@@shdfnd@physx@@QEAA@AEBVNamedAllocator@12@@Z 0000000180074790 f i GuContactConvexMesh.obj
 0001:00073d70       ??_EConvexMeshContactGenerationCallback@@UEAAPEAXI@Z 0000000180074d70 f i GuContactConvexMesh.obj
 0001:00073d70       ??_GConvexMeshContactGenerationCallback@@UEAAPEAXI@Z 0000000180074d70 f i GuContactConvexMesh.obj
 0001:00073dd0       ?addData@?$CacheMap@UCachedEdge@Gu@physx@@$0IA@@Gu@physx@@QEAA_NAEBUCachedEdge@23@@Z 0000000180074dd0 f i GuContactConvexMesh.obj
 0001:00073eb0       ?addData@?$CacheMap@UCachedVertex@Gu@physx@@$0IA@@Gu@physx@@QEAA_NAEBUCachedVertex@23@@Z 0000000180074eb0 f i GuContactConvexMesh.obj
 0001:00073f40       ?allocate@?$Array@IV?$InlineAllocator@$0BBAA@VNamedAllocator@shdfnd@physx@@@shdfnd@physx@@@shdfnd@physx@@IEAAPEAII@Z 0000000180074f40 f i GuContactConvexMesh.obj
 0001:00074310       ?contactBoxHeightfield@Gu@physx@@YA_NAEBVGeometryUnion@12@0AEBVPxTransform@2@1AEBUNarrowPhaseParams@12@AEAUCache@12@AEAVContactBuffer@12@PEAVRenderOutput@Cm@2@@Z 0000000180075310 f   GuContactConvexMesh.obj
 0001:00074470       ?contactBoxMesh@Gu@physx@@YA_NAEBVGeometryUnion@12@0AEBVPxTransform@2@1AEBUNarrowPhaseParams@12@AEAUCache@12@AEAVContactBuffer@12@PEAVRenderOutput@Cm@2@@Z 0000000180075470 f   GuContactConvexMesh.obj
 0001:00074620       ?contactConvexHeightfield@Gu@physx@@YA_NAEBVGeometryUnion@12@0AEBVPxTransform@2@1AEBUNarrowPhaseParams@12@AEAUCache@12@AEAVContactBuffer@12@PEAVRenderOutput@Cm@2@@Z 0000000180075620 f   GuContactConvexMesh.obj
 0001:00074750       ?contactConvexMesh@Gu@physx@@YA_NAEBVGeometryUnion@12@0AEBVPxTransform@2@1AEBUNarrowPhaseParams@12@AEAUCache@12@AEAVContactBuffer@12@PEAVRenderOutput@Cm@2@@Z 0000000180075750 f   GuContactConvexMesh.obj
 0001:00077ea0       ?processHit@ConvexMeshContactGenerationCallback@@UEAA_NAEBUPxRaycastHit@physx@@AEBVPxVec3@3@11AEAMPEBI@Z 0000000180078ea0 f i GuContactConvexMesh.obj
 0001:00078770       ?recreate@?$Array@IV?$InlineAllocator@$0BBAA@VNamedAllocator@shdfnd@physx@@@shdfnd@physx@@@shdfnd@physx@@IEAAXI@Z 0000000180079770 f i GuContactConvexMesh.obj
 0001:00079760       ?contactPlaneBox@Gu@physx@@YA_NAEBVGeometryUnion@12@0AEBVPxTransform@2@1AEBUNarrowPhaseParams@12@AEAUCache@12@AEAVContactBuffer@12@PEAVRenderOutput@Cm@2@@Z 000000018007a760 f   GuContactPlaneBox.obj
 0001:0007a360       ?contactPlaneCapsule@Gu@physx@@YA_NAEBVGeometryUnion@12@0AEBVPxTransform@2@1AEBUNarrowPhaseParams@12@AEAUCache@12@AEAVContactBuffer@12@PEAVRenderOutput@Cm@2@@Z 000000018007b360 f   GuContactPlaneCapsule.obj
 0001:0007a970       ?contactPlaneConvex@Gu@physx@@YA_NAEBVGeometryUnion@12@0AEBVPxTransform@2@1AEBUNarrowPhaseParams@12@AEAUCache@12@AEAVContactBuffer@12@PEAVRenderOutput@Cm@2@@Z 000000018007b970 f   GuContactPlaneConvex.obj
 0001:0007c780       ?contactPolygonPolygonExt@Gu@physx@@YA_NIPEBVPxVec3@2@PEBEAEBVMatrix34@Cm@2@AEBVPxPlane@2@AEBVPxMat33@2@I01234AEBV32@22IIAEAVContactBuffer@12@_N5M@Z 000000018007d780 f   GuContactPolygonPolygon.obj
 0001:0007dec0       ?findRotationMatrixFromZ@Gu@physx@@YA?AVPxMat33@2@AEBVPxVec3@2@@Z 000000018007eec0 f   GuContactPolygonPolygon.obj
 0001:0007e8f0       ?contactSphereBox@Gu@physx@@YA_NAEBVGeometryUnion@12@0AEBVPxTransform@2@1AEBUNarrowPhaseParams@12@AEAUCache@12@AEAVContactBuffer@12@PEAVRenderOutput@Cm@2@@Z 000000018007f8f0 f   GuContactSphereBox.obj
 0001:0007eed0       ?contactSphereCapsule@Gu@physx@@YA_NAEBVGeometryUnion@12@0AEBVPxTransform@2@1AEBUNarrowPhaseParams@12@AEAUCache@12@AEAVContactBuffer@12@PEAVRenderOutput@Cm@2@@Z 000000018007fed0 f   GuContactSphereCapsule.obj
 0001:0007fca0       ?contactSphereHeightfield@Gu@physx@@YA_NAEBVGeometryUnion@12@0AEBVPxTransform@2@1AEBUNarrowPhaseParams@12@AEAUCache@12@AEAVContactBuffer@12@PEAVRenderOutput@Cm@2@@Z 0000000180080ca0 f   GuContactSphereMesh.obj
 0001:000806b0       ?contactSphereMesh@Gu@physx@@YA_NAEBVGeometryUnion@12@0AEBVPxTransform@2@1AEBUNarrowPhaseParams@12@AEAUCache@12@AEAVContactBuffer@12@PEAVRenderOutput@Cm@2@@Z 00000001800816b0 f   GuContactSphereMesh.obj
 0001:00082a40       ?contactSpherePlane@Gu@physx@@YA_NAEBVGeometryUnion@12@0AEBVPxTransform@2@1AEBUNarrowPhaseParams@12@AEAUCache@12@AEAVContactBuffer@12@PEAVRenderOutput@Cm@2@@Z 0000000180083a40 f   GuContactSpherePlane.obj
 0001:00082c40       ?contactSphereSphere@Gu@physx@@YA_NAEBVGeometryUnion@12@0AEBVPxTransform@2@1AEBUNarrowPhaseParams@12@AEAUCache@12@AEAVContactBuffer@12@PEAVRenderOutput@Cm@2@@Z 0000000180083c40 f   GuContactSphereSphere.obj
 0001:00082db0       ?selectNormal@Gu@physx@@YA_NEMM@Z 0000000180083db0 f   GuFeatureCode.obj
 0001:00082e30       ??0BigConvexData@physx@@QEAA@XZ 0000000180083e30 f   GuBigConvexData.obj
 0001:00082e50       ??1BigConvexData@physx@@QEAA@XZ 0000000180083e50 f   GuBigConvexData.obj
 0001:00082ed0       ?ComputeNearestOffset@BigConvexData@physx@@QEBAIAEBVPxVec3@2@@Z 0000000180083ed0 f   GuBigConvexData.obj
 0001:00082fd0       ?ComputeOffset@BigConvexData@physx@@QEBAIAEBVPxVec3@2@@Z 0000000180083fd0 f   GuBigConvexData.obj
 0001:000830d0       ?CreateOffsets@BigConvexData@physx@@IEAAXXZ 00000001800840d0 f   GuBigConvexData.obj
 0001:00083120       ?Load@BigConvexData@physx@@QEAA_NAEAVPxInputStream@2@@Z 0000000180084120 f   GuBigConvexData.obj
 0001:00083240       ?VLoad@BigConvexData@physx@@IEAA_NAEAVPxInputStream@2@@Z 0000000180084240 f   GuBigConvexData.obj
 0001:000833e0       ?exportExtraData@BigConvexData@physx@@QEAAXAEAVPxSerializationContext@2@@Z 00000001800843e0 f   GuBigConvexData.obj
 0001:00083460       ?importExtraData@BigConvexData@physx@@QEAAXAEAVPxDeserializationContext@2@@Z 0000000180084460 f   GuBigConvexData.obj
 0001:000834d0       ?findUniqueConvexEdges@Gu@physx@@YAIIPEIAUConvexEdge@12@IPEIBUHullPolygonData@12@PEIBE@Z 00000001800844d0 f   GuConvexHelper.obj
 0001:00083610       ?getConvexData@Gu@physx@@YA_NAEBVGeometryUnion@12@AEAVFastVertex2ShapeScaling@Cm@2@AEAVPxBounds3@2@AEAUPolygonalData@12@@Z 0000000180084610 f   GuConvexHelper.obj
 0001:00083890       ?getScaledConvex@Gu@physx@@YAXAEAPEAVPxVec3@2@AEAPEAEPEAV32@PEAE_NPEBV32@PEBEIAEBVFastVertex2ShapeScaling@Cm@2@@Z 0000000180084890 f   GuConvexHelper.obj
 0001:000839c0       ??0ConvexMesh@Gu@physx@@QEAA@AEAVGuMeshFactory@2@AEAUConvexHullInitData@12@@Z 00000001800849c0 f   GuConvexMesh.obj
 0001:00083af0       ??0ConvexMesh@Gu@physx@@QEAA@XZ 0000000180084af0 f   GuConvexMesh.obj
 0001:00083b90       ??1ConvexMesh@Gu@physx@@UEAA@XZ 0000000180084b90 f   GuConvexMesh.obj
 0001:00083c30       ??_EConvexMesh@Gu@physx@@UEAAPEAXI@Z 0000000180084c30 f i GuConvexMesh.obj
 0001:00083d40       ??_EConvexMesh@Gu@physx@@WBA@EAAPEAXI@Z 0000000180084d40 f i GuConvexMesh.obj
 0001:00083d50       ??_EPxHeightField@physx@@MEAAPEAXI@Z 0000000180084d50 f i GuHeightField.obj
 0001:00083d50       ??_EPxConvexMesh@physx@@MEAAPEAXI@Z 0000000180084d50 f i GuConvexMesh.obj
 0001:00083de0       ?acquireReference@TriangleMesh@Gu@physx@@UEAAXXZ 0000000180084de0 f   GuTriangleMesh.obj
 0001:00083de0       ?acquireReference@ConvexMesh@Gu@physx@@UEAAXXZ 0000000180084de0 f   GuConvexMesh.obj
 0001:00083de0       ?acquireReference@HeightField@Gu@physx@@UEAAXXZ 0000000180084de0 f   GuHeightField.obj
 0001:00084270       ?createObject@ConvexMesh@Gu@physx@@SAPEAV123@AEAPEAEAEAVPxDeserializationContext@3@@Z 0000000180085270 f   GuConvexMesh.obj
 0001:000842d0       ?exportExtraData@ConvexMesh@Gu@physx@@UEAAXAEAVPxSerializationContext@3@@Z 00000001800852d0 f   GuConvexMesh.obj
 0001:000843a0       ?getLocalBounds@ConvexMesh@Gu@physx@@UEBA?AVPxBounds3@3@XZ 00000001800853a0 f   GuConvexMesh.obj
 0001:00084430       ?getMassInformation@ConvexMesh@Gu@physx@@UEBAXAEAMAEAVPxMat33@3@AEAVPxVec3@3@@Z 0000000180085430 f   GuConvexMesh.obj
 0001:000844a0       ?getPolygonData@ConvexMesh@Gu@physx@@UEBA_NIAEAUPxHullPolygon@3@@Z 00000001800854a0 f   GuConvexMesh.obj
 0001:000844f0       ?raw_length@pairNode@@UEBAHXZ 00000001800854f0 f   libvcruntime:undname.obj
 0001:000844f0       ?getReferenceCount@ConvexMesh@Gu@physx@@UEBAIXZ 00000001800854f0 f   GuConvexMesh.obj
 0001:000844f0       ?getReferenceCount@TriangleMesh@Gu@physx@@UEBAIXZ 00000001800854f0 f   GuTriangleMesh.obj
 0001:000844f0       ?getReferenceCount@HeightField@Gu@physx@@UEBAIXZ 00000001800854f0 f   GuHeightField.obj
 0001:00084500       ?importExtraData@ConvexMesh@Gu@physx@@QEAAXAEAVPxDeserializationContext@3@@Z 0000000180085500 f   GuConvexMesh.obj
 0001:000845c0       ?isGpuCompatible@ConvexMesh@Gu@physx@@UEBA_NXZ 00000001800855c0 f   GuConvexMesh.obj
 0001:000845e0       ?load@ConvexMesh@Gu@physx@@QEAA_NAEAVPxInputStream@3@@Z 00000001800855e0 f   GuConvexMesh.obj
 0001:000848a0       ?onRefCountZero@ConvexMesh@Gu@physx@@UEAAXXZ 00000001800858a0 f   GuConvexMesh.obj
 0001:00084990       ??Dphysx@@YA?AVMatrix34@Cm@0@AEBVPxMeshScale@0@AEBV120@@Z 0000000180085990 f i GuConvexUtilsInternal.obj
 0001:00084f60       ?computeHullOBB@Gu@physx@@YAXAEAVBox@12@AEBVPxBounds3@2@MAEBVMatrix34@Cm@2@2AEBVFastVertex2ShapeScaling@62@_N@Z 0000000180085f60 f   GuConvexUtilsInternal.obj
 0001:00085410       ?computeOBBAroundConvex@Gu@physx@@YAXAEAVBox@12@AEBVPxConvexMeshGeometry@2@PEBVPxConvexMesh@2@AEBVPxTransform@2@@Z 0000000180086410 f   GuConvexUtilsInternal.obj
 0001:00085d20       ?computeVertexSpaceOBB@Gu@physx@@YAXAEAVBox@12@AEBV312@AEBVPxTransform@2@AEBVPxMeshScale@2@@Z 0000000180086d20 f   GuConvexUtilsInternal.obj
 0001:000860d0       ?transform@physx@@YA?AVBox@Gu@1@AEBVMatrix34@Cm@1@AEBV231@@Z 00000001800870d0 f i GuConvexUtilsInternal.obj
 0001:00086320       ?localSearch@physx@@YAXAEAIAEBVPxVec3@1@PEBV21@PEBUBigConvexRawData@Gu@1@@Z 0000000180087320 f   GuHillClimbing.obj
 0001:00086450       ??0PCMPolygonalBox@Gu@physx@@QEAA@AEBVPxVec3@2@@Z 0000000180087450 f   GuPCMShapeConvex.obj
 0001:00086450       ??0PolygonalBox@Gu@physx@@QEAA@AEBVPxVec3@2@@Z 0000000180087450 f   GuShapeConvex.obj
 0001:00087910       ?getPolygonalData@PolygonalBox@Gu@physx@@QEBAXPEIAUPolygonalData@23@@Z 0000000180088910 f   GuShapeConvex.obj
 0001:00087970       ?getPolygonalData_Convex@Gu@physx@@YAXPEIAUPolygonalData@12@PEIBUConvexHullData@12@AEBVFastVertex2ShapeScaling@Cm@2@@Z 0000000180088970 f   GuShapeConvex.obj
 0001:00087ad0       ?distancePointBoxSquared@Gu@physx@@YAMAEBVPxVec3@2@00AEBVPxMat33@2@PEAV32@@Z 0000000180088ad0 f   GuDistancePointBox.obj
 0001:00087c20       ?closestPtPointTriangle@Gu@physx@@YA?AVPxVec3@2@AEBV32@000AEAM1@Z 0000000180088c20 f   GuDistancePointTriangle.obj
 0001:00088140       ?distancePointTriangleSquared@Gu@physx@@YA?AT__m128@@AEBT3@000AEAT3@11@Z 0000000180089140 f   GuDistancePointTriangle.obj
 0001:00088e90       ?distanceSegmentBoxSquared@Gu@physx@@YAMAEBVPxVec3@2@000AEBVPxMat33@2@PEAMPEAV32@@Z 0000000180089e90 f   GuDistanceSegmentBox.obj
 0001:00089710       ?distanceSegmentSegmentSquared4@Gu@physx@@YA?AT__m128@@AEBT3@000000000AEAT3@1@Z 000000018008a710 f   GuDistanceSegmentSegment.obj
 0001:00089a30       ?distanceSegmentSegmentSquared@Gu@physx@@YA?AT__m128@@AEBT3@000AEAT3@1@Z 000000018008aa30 f   GuDistanceSegmentSegment.obj
 0001:00089bf0       ?distanceSegmentSegmentSquared@Gu@physx@@YAMAEBVPxVec3@2@000PEAM1@Z 000000018008abf0 f   GuDistanceSegmentSegment.obj
 0001:00089e80       ?distanceSegmentSegmentSquared@Gu@physx@@YAMAEBVPxVec3@2@0M00MPEAM1@Z 000000018008ae80 f   GuDistanceSegmentSegment.obj
 0001:0008a5d0       ?distanceSegmentTriangleSquared@Gu@physx@@YA?AT__m128@@AEBT3@0000AEAT3@1@Z 000000018008b5d0 f   GuDistanceSegmentTriangle.obj
 0001:0008ad10       ?distanceSegmentTriangleSquared@Gu@physx@@YAMAEBVPxVec3@2@0000PEAM11@Z 000000018008bd10 f   GuDistanceSegmentTriangle.obj
 0001:0008c3a0       ?PenetrationDepth@EPA@Gu@physx@@QEAA?AW4GjkStatus@23@AEBUGjkConvex@23@0PEIBT__m128@@1E_NT6@AEAUGjkOutput@23@@Z 000000018008d3a0 f   GuEPA.obj
 0001:0008ceb0       ?addFacet@EPA@Gu@physx@@QEAAPEAVFacet@23@IIIAEBT__m128@@@Z 000000018008deb0 f   GuEPA.obj
 0001:0008d300       ?epaPenetration@Gu@physx@@YA?AW4GjkStatus@12@AEBUGjkConvex@12@0PEIBE1E_NT__m128@@AEAUGjkOutput@12@@Z 000000018008e300 f   GuEPA.obj
 0001:0008d470       ?silhouette@Facet@Gu@physx@@QEAAXAEBT__m128@@PEIBT4@1AEAVEdgeBuffer@23@AEAV?$InlineDeferredIDPool@$0EA@@Cm@3@@Z 000000018008e470 f   GuEPA.obj
 0001:0008d640       ?closestPtPointTetrahedron@Gu@physx@@YA?AT__m128@@PEIAT3@00AEAI@Z 000000018008e640 f   GuGJKSimplex.obj
 0001:0008ddc0       ?closestPtPointTetrahedron@Gu@physx@@YA?AT__m128@@PEIAT3@00PEIAH1AEAI@Z 000000018008edc0 f   GuGJKSimplex.obj
 0001:0008f870       ??$gjk@UGjkConvex@Gu@physx@@U123@@Gu@physx@@YA?AW4GjkStatus@01@AEBUGjkConvex@01@0AEBT__m128@@1AEAT4@222@Z 0000000180090870 f i GuGJKTest.obj
 0001:000904a0       ??$gjkPenetration@UGjkConvex@Gu@physx@@U123@@Gu@physx@@YA?AW4GjkStatus@01@AEBUGjkConvex@01@0AEBT__m128@@1_NPEIAE3AEAEAEAUGjkOutput@01@@Z 00000001800914a0 f i GuGJKTest.obj
 0001:000918e0       ?testEpaPenetration@Gu@physx@@YA?AW4GjkStatus@12@AEAUGjkConvex@12@0PEBE1EAEAUGjkOutput@12@@Z 00000001800928e0 f   GuGJKTest.obj
 0001:00091930       ?testGjk@Gu@physx@@YA?AW4GjkStatus@12@AEAUGjkConvex@12@0AEBT__m128@@1AEAT5@222@Z 0000000180092930 f   GuGJKTest.obj
 0001:00091940       ?testGjkPenetration@Gu@physx@@YA?AW4GjkStatus@12@AEAUGjkConvex@12@0AEBT__m128@@1PEAE2AEAEAEAUGjkOutput@12@@Z 0000000180092940 f   GuGJKTest.obj
 0001:00091990       ??0HeightField@Gu@physx@@QEAA@AEAVGuMeshFactory@2@AEAUHeightFieldData@12@@Z 0000000180092990 f   GuHeightField.obj
 0001:00091a60       ??0HeightField@Gu@physx@@QEAA@PEAVGuMeshFactory@2@@Z 0000000180092a60 f   GuHeightField.obj
 0001:00091ad0       ??1HeightField@Gu@physx@@UEAA@XZ 0000000180092ad0 f   GuHeightField.obj
 0001:00091b40       ??_EHeightField@Gu@physx@@UEAAPEAXI@Z 0000000180092b40 f i GuHeightField.obj
 0001:00091cbc       ??_EHeightField@Gu@physx@@WBA@EAAPEAXI@Z 0000000180092cbc f i GuHeightField.obj
 0001:00091cd0       ?computeCellCoordinates@HeightField@Gu@physx@@QEBAIMMAEAM0@Z 0000000180092cd0 f   GuHeightField.obj
 0001:00091dd0       ?createObject@HeightField@Gu@physx@@SAPEAV123@AEAPEAEAEAVPxDeserializationContext@3@@Z 0000000180092dd0 f   GuHeightField.obj
 0001:00091e40       ?exportExtraData@HeightField@Gu@physx@@UEAAXAEAVPxSerializationContext@3@@Z 0000000180092e40 f   GuHeightField.obj
 0001:00091e90       ?getEdgeTriangleIndices@physx@@YAIAEBVHeightField@Gu@1@AEBUEdgeData@1@PEIAI@Z 0000000180092e90 f   GuHeightField.obj
 0001:00091fc0       ?getVertexEdgeIndices@physx@@YAIAEBVHeightField@Gu@1@IIIQEAUEdgeData@1@@Z 0000000180092fc0 f   GuHeightField.obj
 0001:000921a0       ?importExtraData@HeightField@Gu@physx@@QEAAXAEAVPxDeserializationContext@3@@Z 00000001800931a0 f   GuHeightField.obj
 0001:000921c0       ?isCollisionVertexPreca@HeightField@Gu@physx@@QEBA_NIIIG@Z 00000001800931c0 f   GuHeightField.obj
 0001:00092260       ?isConvexVertex@HeightField@Gu@physx@@QEBA_NIII@Z 0000000180093260 f i GuHeightField.obj
 0001:00092330       ?isSolidVertex@HeightField@Gu@physx@@QEBA_NIIIGAEA_N@Z 0000000180093330 f   GuHeightField.obj
 0001:000924b0       ?load@HeightField@Gu@physx@@QEAA_NAEAVPxInputStream@3@@Z 00000001800934b0 f   GuHeightField.obj
 0001:000927e0       ?loadFromDesc@HeightField@Gu@physx@@QEAA_NAEBVPxHeightFieldDesc@3@@Z 00000001800937e0 f   GuHeightField.obj
 0001:00092a80       ?modifySamples@HeightField@Gu@physx@@UEAA_NHHAEBVPxHeightFieldDesc@3@_N@Z 0000000180093a80 f   GuHeightField.obj
 0001:00092e20       ?onRefCountZero@HeightField@Gu@physx@@UEAAXXZ 0000000180093e20 f   GuHeightField.obj
 0001:00092eb0       ?parseTrianglesForCollisionVertices@HeightField@Gu@physx@@QEAAXG@Z 0000000180093eb0 f   GuHeightField.obj
 0001:00093390       ?releaseMemory@HeightField@Gu@physx@@QEAAXXZ 0000000180094390 f   GuHeightField.obj
 0001:000933e0       ?resizeAndClear@?$BitMapBase@VNonTrackingAllocator@shdfnd@physx@@@Cm@physx@@QEAAXI@Z 00000001800943e0 f i GuHeightField.obj
 0001:000934a0       ?saveCells@HeightField@Gu@physx@@UEBAIPEAXI@Z 00000001800944a0 f   GuHeightField.obj
 0001:000934e0       ?computeLocalBounds@HeightFieldUtil@Gu@physx@@QEBAXAEAVPxBounds3@3@@Z 00000001800944e0 f   GuHeightFieldUtil.obj
 0001:000935b0       ?findClosestPointOnEdge@HeightFieldUtil@Gu@physx@@QEBAMIIIIAEBVPxVec3@3@AEAV43@@Z 00000001800945b0 f   GuHeightFieldUtil.obj
 0001:000938a0       ?findClosestPointsOnCell@HeightFieldUtil@Gu@physx@@QEBAIIIVPxVec3@3@PEIAV43@PEIAI_N33@Z 00000001800948a0 f   GuHeightFieldUtil.obj
 0001:00094020       ?findProjectionOnTriangle@HeightFieldUtil@Gu@physx@@QEBA_NIIIAEBVPxVec3@3@AEAV43@@Z 0000000180095020 f   GuHeightFieldUtil.obj
 0001:000942c0       ?getEdge@HeightFieldUtil@Gu@physx@@QEBAXIIIIAEAVPxVec3@3@0@Z 00000001800952c0 f   GuHeightFieldUtil.obj
 0001:000944f0       ?getEdgeFaceIndex@HeightFieldUtil@Gu@physx@@QEBAII@Z 00000001800954f0 f   GuHeightFieldUtil.obj
 0001:000946e0       ?getEdgeFaceIndex@HeightFieldUtil@Gu@physx@@QEBAIIIII@Z 00000001800956e0 f   GuHeightFieldUtil.obj
 0001:00094890       ?getEdgeFaceIndex@HeightFieldUtil@Gu@physx@@QEBAIIIPEIBI@Z 0000000180095890 f   GuHeightFieldUtil.obj
 0001:00094920       ?getFaceIndexAtShapePoint@HeightFieldUtil@Gu@physx@@QEBAIMM@Z 0000000180095920 f   GuHeightFieldUtil.obj
 0001:00094a30       ?getTriangle@HeightFieldUtil@Gu@physx@@QEBAIAEBVPxTransform@3@AEAVPxTriangle@3@PEAI2I_N3@Z 0000000180095a30 f   GuHeightFieldUtil.obj
 0001:00095230       ?getTriangleAdjacencyIndices@HeightField@Gu@physx@@QEBAXIIIIAEAI00@Z 0000000180096230 f i GuHeightFieldUtil.obj
 0001:00095410       ?getTriangleVertexIndices@HeightField@Gu@physx@@QEBAXIAEAI00@Z 0000000180096410 f i GuHeightFieldUtil.obj
 0001:000954d0       ?getVertexFaceIndex@HeightFieldUtil@Gu@physx@@QEBAIIII@Z 00000001800964d0 f   GuHeightFieldUtil.obj
 0001:00095710       ?getVertexNormal@HeightFieldUtil@Gu@physx@@QEBA?AVPxVec3@3@III@Z 0000000180096710 f   GuHeightFieldUtil.obj
 0001:00095a60       ?overlapAABBTriangles@HeightFieldUtil@Gu@physx@@QEBA_NAEBVPxTransform@3@AEBVPxBounds3@3@IPEAV?$EntityReport@I@23@@Z 0000000180096a60 f   GuHeightFieldUtil.obj
 0001:00096090       ??$traceSegment@UTriggerTraceSegmentCallback@Gu@physx@@$0A@$0A@@HeightFieldTraceUtil@Gu@physx@@QEBAXAEBVPxVec3@2@0MPEAUTriggerTraceSegmentCallback@12@AEBVPxBounds3@2@_NPEBV32@@Z 0000000180097090 f i GuOverlapTestsHF.obj
 0001:00097070       ?GeomOverlapCallback_BoxHeightfield@@YA_NAEBVPxGeometry@physx@@AEBVPxTransform@2@01PEAUTriggerCache@Gu@2@@Z 0000000180098070 f   GuOverlapTestsHF.obj
 0001:00097390       ?GeomOverlapCallback_CapsuleHeightfield@@YA_NAEBVPxGeometry@physx@@AEBVPxTransform@2@01PEAUTriggerCache@Gu@2@@Z 0000000180098390 f   GuOverlapTestsHF.obj
 0001:000975d0       ?GeomOverlapCallback_ConvexHeightfield@@YA_NAEBVPxGeometry@physx@@AEBVPxTransform@2@01PEAUTriggerCache@Gu@2@@Z 00000001800985d0 f   GuOverlapTestsHF.obj
 0001:00097640       ?GeomOverlapCallback_SphereHeightfield@@YA_NAEBVPxGeometry@physx@@AEBVPxTransform@2@01PEAUTriggerCache@Gu@2@@Z 0000000180098640 f   GuOverlapTestsHF.obj
 0001:00097810       ?checkOverlapAABB_heightFieldGeom@Gu@physx@@YA_NAEBVPxGeometry@2@AEBVPxTransform@2@AEBVPxBounds3@2@@Z 0000000180098810 f   GuOverlapTestsHF.obj
 0001:0009aab0       ??$gjkRaycast@U?$LocalConvex@VTriangleV@Gu@physx@@@Gu@physx@@U?$LocalConvex@VConvexHullV@Gu@physx@@@23@@Gu@physx@@YA_NAEBU?$LocalConvex@VTriangleV@Gu@physx@@@01@AEBU?$LocalConvex@VConvexHullV@Gu@physx@@@01@AEBT__m128@@222AEAT4@33M@Z 000000018009bab0 f i GuSweepsHF.obj
 0001:0009b880       ??$traceSegment@VConvexTraceSegmentReport@@$0A@$00@HeightFieldTraceUtil@Gu@physx@@QEBAXAEBVPxVec3@2@0MPEAVConvexTraceSegmentReport@@AEBVPxBounds3@2@_NPEBV32@@Z 000000018009c880 f i GuSweepsHF.obj
 0001:0009b880       ??$traceSegment@VBoxTraceSegmentReport@@$0A@$00@HeightFieldTraceUtil@Gu@physx@@QEBAXAEBVPxVec3@2@0MPEAVBoxTraceSegmentReport@@AEBVPxBounds3@2@_NPEBV32@@Z 000000018009c880 f i GuSweepsHF.obj
 0001:0009b880       ??$traceSegment@VCapsuleTraceSegmentReport@@$0A@$00@HeightFieldTraceUtil@Gu@physx@@QEBAXAEBVPxVec3@2@0MPEAVCapsuleTraceSegmentReport@@AEBVPxBounds3@2@_NPEBV32@@Z 000000018009c880 f i GuSweepsHF.obj
 0001:0009c2a0       ??0ConvexTraceSegmentReport@@QEAA@AEBVHeightFieldUtil@Gu@physx@@AEBUConvexHullData@23@AEBVPxMeshScale@3@AEBVPxTransform@3@3AEBVPxVec3@3@MV?$PxFlags@W4Enum@PxHitFlag@physx@@G@3@M@Z 000000018009d2a0 f i GuSweepsHF.obj
 0001:0009cc40       ??_GBoxTraceSegmentReport@@UEAAPEAXI@Z 000000018009dc40 f i GuSweepsHF.obj
 0001:0009cc40       ??_EBoxTraceSegmentReport@@UEAAPEAXI@Z 000000018009dc40 f i GuSweepsHF.obj
 0001:0009cc70       ??_ECapsuleTraceSegmentReport@@UEAAPEAXI@Z 000000018009dc70 f i GuSweepsHF.obj
 0001:0009cc70       ??_GCapsuleTraceSegmentReport@@UEAAPEAXI@Z 000000018009dc70 f i GuSweepsHF.obj
 0001:0009cca0       ??_GConvexTraceSegmentReport@@UEAAPEAXI@Z 000000018009dca0 f i GuSweepsHF.obj
 0001:0009cca0       ??_EConvexTraceSegmentReport@@UEAAPEAXI@Z 000000018009dca0 f i GuSweepsHF.obj
 0001:0009ccd0       ??_EHeightFieldTraceSegmentReport@@UEAAPEAXI@Z 000000018009dcd0 f i GuSweepsHF.obj
 0001:0009ccd0       ??_GHeightFieldTraceSegmentReport@@UEAAPEAXI@Z 000000018009dcd0 f i GuSweepsHF.obj
 0001:0009cd00       ?finalizeHit@ConvexTraceSegmentReport@@QEAA_NAEAUPxSweepHit@physx@@AEBVPxHeightFieldGeometry@3@AEBVPxTransform@3@AEBVPxConvexMeshGeometry@3@2AEBVPxVec3@3@M@Z 000000018009dd00 f i GuSweepsHF.obj
 0001:0009cf50       ?onEvent@BoxTraceSegmentReport@@UEAA_NIPEAI@Z 000000018009df50 f i GuSweepsHF.obj
 0001:0009d3c0       ?onEvent@CapsuleTraceSegmentReport@@UEAA_NIPEAI@Z 000000018009e3c0 f i GuSweepsHF.obj
 0001:0009d5f0       ?onEvent@ConvexTraceSegmentReport@@UEAA_NIPEAI@Z 000000018009e5f0 f i GuSweepsHF.obj
 0001:0009dbb0       ?prepare@?$OverlapTraceSegment@VCapsuleTraceSegmentReport@@@HeightFieldTraceUtil@Gu@physx@@QEAAXAEBVPxVec3@4@00AEAM1@Z 000000018009ebb0 f i GuSweepsHF.obj
 0001:0009dbb0       ?prepare@?$OverlapTraceSegment@VConvexTraceSegmentReport@@@HeightFieldTraceUtil@Gu@physx@@QEAAXAEBVPxVec3@4@00AEAM1@Z 000000018009ebb0 f i GuSweepsHF.obj
 0001:0009dbb0       ?prepare@?$OverlapTraceSegment@VBoxTraceSegmentReport@@@HeightFieldTraceUtil@Gu@physx@@QEAAXAEBVPxVec3@4@00AEAM1@Z 000000018009ebb0 f i GuSweepsHF.obj
 0001:0009de50       ?sweepBox_HeightFieldGeom@@YA_NAEBVPxGeometry@physx@@AEBVPxTransform@2@AEBVPxBoxGeometry@2@1AEBVBox@Gu@2@AEBVPxVec3@2@MAEAUPxSweepHit@2@V?$PxFlags@W4Enum@PxHitFlag@physx@@G@2@M@Z 000000018009ee50 f   GuSweepsHF.obj
 0001:0009eca0       ?sweepCapsule_HeightFieldGeom@@YA_NAEBVPxGeometry@physx@@AEBVPxTransform@2@AEBVPxCapsuleGeometry@2@1AEBVCapsule@Gu@2@AEBVPxVec3@2@MAEAUPxSweepHit@2@V?$PxFlags@W4Enum@PxHitFlag@physx@@G@2@M@Z 000000018009fca0 f   GuSweepsHF.obj
 0001:0009f600       ?sweepConvex_HeightFieldGeom@@YA_NAEBVPxGeometry@physx@@AEBVPxTransform@2@AEBVPxConvexMeshGeometry@2@1AEBVPxVec3@2@MAEAUPxSweepHit@2@V?$PxFlags@W4Enum@PxHitFlag@physx@@G@2@M@Z 00000001800a0600 f   GuSweepsHF.obj
 0001:0009ffd0       ?testVertexIndex@?$OverlapTraceSegment@VConvexTraceSegmentReport@@@HeightFieldTraceUtil@Gu@physx@@QEAA_NI@Z 00000001800a0fd0 f i GuSweepsHF.obj
 0001:0009ffd0       ?testVertexIndex@?$OverlapTraceSegment@VBoxTraceSegmentReport@@@HeightFieldTraceUtil@Gu@physx@@QEAA_NI@Z 00000001800a0fd0 f i GuSweepsHF.obj
 0001:0009ffd0       ?testVertexIndex@?$OverlapTraceSegment@VCapsuleTraceSegmentReport@@@HeightFieldTraceUtil@Gu@physx@@QEAA_NI@Z 00000001800a0fd0 f i GuSweepsHF.obj
 0001:000a0120       ?intersectOBBOBB@Gu@physx@@YA_NAEBVPxVec3@2@0AEBVPxMat33@2@001_N@Z 00000001800a1120 f   GuIntersectionBoxBox.obj
 0001:000a0780       ?intersectCapsuleTriangle@Gu@physx@@YA_NAEBVPxVec3@2@000AEBVCapsule@12@AEBUCapsuleTriangleOverlapData@12@@Z 00000001800a1780 f   GuIntersectionCapsuleTriangle.obj
 0001:000a1310       ?intersectEdgeEdge@Gu@physx@@YA_NAEBVPxVec3@2@0000AEAMAEAV32@@Z 00000001800a2310 f   GuIntersectionEdgeEdge.obj
 0001:000a1640       ?intersectRayAABB2@Gu@physx@@YA_NAEBT__m128@@0000AEAT3@1@Z 00000001800a2640 f   GuIntersectionRayBox.obj
 0001:000a1700       ?intersectRayAABB2@Gu@physx@@YA_NAEBVPxVec3@2@000MAEAM1@Z 00000001800a2700 f   GuIntersectionRayBox.obj
 0001:000a18b0       ?intersectRayAABB@Gu@physx@@YAHAEBVPxVec3@2@000AEAM1@Z 00000001800a28b0 f   GuIntersectionRayBox.obj
 0001:000a19d0       ?rayAABBIntersect2@Gu@physx@@YAIAEBVPxVec3@2@000AEAV32@AEAM@Z 00000001800a29d0 f   GuIntersectionRayBox.obj
 0001:000a1be0       ?intersectRayCapsuleInternal@Gu@physx@@YAIAEBVPxVec3@2@000MQEAM@Z 00000001800a2be0 f   GuIntersectionRayCapsule.obj
 0001:000a2470       ?intersectRaySphere@Gu@physx@@YA_NAEBVPxVec3@2@0M0MAEAMPEAV32@@Z 00000001800a3470 f   GuIntersectionRaySphere.obj
 0001:000a2560       ?intersectRaySphereBasic@Gu@physx@@YA_NAEBVPxVec3@2@0M0MAEAMPEAV32@@Z 00000001800a3560 f   GuIntersectionRaySphere.obj
 0001:000a26c0       ?intersectSphereBox@Gu@physx@@YA_NAEBVSphere@12@AEBVBox@12@@Z 00000001800a36c0 f   GuIntersectionSphereBox.obj
 0001:000a28f0       ?intersectTriangleBox@Gu@physx@@YAHAEBVBoxPadded@12@AEBVPxVec3@2@11@Z 00000001800a38f0 f   GuIntersectionTriangleBox.obj
 0001:000a2ec0       ?intersectTriangleBoxBV4@@YAHAEBVPxVec3@physx@@00AEBVPxMat33@2@00@Z 00000001800a3ec0 f   GuIntersectionTriangleBox.obj
 0001:000a3300       ?intersectTriangleBox_ReferenceCode@Gu@physx@@YAHAEBVPxVec3@2@0000@Z 00000001800a4300 f   GuIntersectionTriangleBox.obj
 0001:000a3b70       ?intersectTriangleBox_Unsafe@Gu@physx@@YAHAEBVPxVec3@2@0000@Z 00000001800a4b70 f   GuIntersectionTriangleBox.obj
 0001:000a3f40       ??0BV4Tree@Gu@physx@@QEAA@PEAVSourceMesh@12@AEBVPxBounds3@2@@Z 00000001800a4f40 f   GuBV4.obj
 0001:000a4000       ??0BV4Tree@Gu@physx@@QEAA@W4PxEMPTY@2@@Z 00000001800a5000 f   GuBV4.obj
 0001:000a4010       ??0BV4Tree@Gu@physx@@QEAA@XZ 00000001800a5010 f   GuBV4.obj
 0001:000a4040       ??0SourceMesh@Gu@physx@@QEAA@XZ 00000001800a5040 f   GuBV4.obj
 0001:000a4060       ??0SourceMeshBase@Gu@physx@@QEAA@XZ 00000001800a5060 f   GuBV4.obj
 0001:000a4070       ??1BV4Tree@Gu@physx@@QEAA@XZ 00000001800a5070 f   GuBV4.obj
 0001:000a40d0       ??1SourceMeshBase@Gu@physx@@QEAA@XZ 00000001800a50d0 f   GuBV4.obj
 0001:000a40d0       ??1SourceMesh@Gu@physx@@QEAA@XZ 00000001800a50d0 f   GuBV4.obj
 0001:000a4120       ??4BV4Tree@Gu@physx@@QEAAXAEAV012@@Z 00000001800a5120 f   GuBV4.obj
 0001:000a41b0       ??4SourceMesh@Gu@physx@@QEAAXAEAV012@@Z 00000001800a51b0 f   GuBV4.obj
 0001:000a4200       ?exportExtraData@BV4Tree@Gu@physx@@QEAAXAEAVPxSerializationContext@3@@Z 00000001800a5200 f   GuBV4.obj
 0001:000a4250       ?importExtraData@BV4Tree@Gu@physx@@QEAAXAEAVPxDeserializationContext@3@@Z 00000001800a5250 f   GuBV4.obj
 0001:000a4280       ?init@BV32Tree@Gu@physx@@QEAA_NPEAVSourceMesh@23@AEBVPxBounds3@3@@Z 00000001800a5280 f   GuBV32.obj
 0001:000a4280       ?init@BV4Tree@Gu@physx@@QEAA_NPEAVSourceMesh@23@AEBVPxBounds3@3@@Z 00000001800a5280 f   GuBV4.obj
 0001:000a4320       ?load@BV4Tree@Gu@physx@@QEAA_NAEAVPxInputStream@3@_N@Z 00000001800a5320 f   GuBV4.obj
 0001:000a4540       ?remapTopology@SourceMesh@Gu@physx@@QEAAXPEBI@Z 00000001800a5540 f   GuBV4.obj
 0001:000a4840       ??0AABBTree@Gu@physx@@QEAA@XZ 00000001800a5840 f   GuBV4Build.obj
 0001:000a4850       ??0BVData@@QEAA@XZ         00000001800a5850 f   GuBV4Build.obj
 0001:000a4880       ??1AABBTree@Gu@physx@@QEAA@XZ 00000001800a5880 f   GuBV4Build.obj
 0001:000a4890       ?BuildBV4Ex@Gu@physx@@YA_NAEAVBV4Tree@12@AEAVSourceMesh@12@MI@Z 00000001800a5890 f   GuBV4Build.obj
 0001:000a5d60       ?allocateNode@BV4BuildParams@@QEAAPEAUBV4Node@@XZ 00000001800a6d60 f   GuBV4Build.obj
 0001:000a5e80       ?buildFromMesh@AABBTree@Gu@physx@@QEAA_NAEAVSourceMesh@23@I@Z 00000001800a6e80 f   GuBV4Build.obj
 0001:000a6a60       ?release@AABBTree@Gu@physx@@QEAAXXZ 00000001800a7a60 f   GuBV4Build.obj
 0001:000a6b00       ?releaseNodes@BV4BuildParams@@QEAAXXZ 00000001800a7b00 f   GuBV4Build.obj
 0001:000a6dd0       ?walk@AABBTree@Gu@physx@@QEBAIP6A_NPEBVAABBTreeNode@23@IPEAX@Z1@Z 00000001800a7dd0 f   GuBV4Build.obj
 0001:000a8ff0       ?GenericSweep_AABB_CB@@YAXAEBVBox@Gu@physx@@AEBVPxVec3@3@MAEBVBV4Tree@23@P6A_NPEAX111IAEAM@Z3I@Z 00000001800a9ff0 f   GuBV4_AABBSweep.obj
 0001:000a9120       ?Sweep_AABB_BV4@@YAHAEBVBox@Gu@physx@@AEBVPxVec3@3@MAEBVBV4Tree@23@PEIAVSweepHit@23@I@Z 00000001800aa120 f   GuBV4_AABBSweep.obj
 0001:000ad360       ?BV4_OverlapBoxAll@@YAIAEBVBox@Gu@physx@@AEBVBV4Tree@23@PEIBVPxMat44@3@PEAIIAEA_N@Z 00000001800ae360 f   GuBV4_BoxOverlap.obj
 0001:000adb70       ?BV4_OverlapBoxAny@@YAHAEBVBox@Gu@physx@@AEBVBV4Tree@23@PEIBVPxMat44@3@@Z 00000001800aeb70 f   GuBV4_BoxOverlap.obj
 0001:000ae330       ?BV4_OverlapBoxCB@@YAXAEBVBox@Gu@physx@@AEBVBV4Tree@23@P6A_NPEAXAEBVPxVec3@3@33IPEBI@Z2@Z 00000001800af330 f   GuBV4_BoxOverlap.obj
 0001:000ae7f0       ?BV4_OverlapCapsuleAll@@YAIAEBVCapsule@Gu@physx@@AEBVBV4Tree@23@PEIBVPxMat44@3@PEAIIAEA_N@Z 00000001800af7f0 f   GuBV4_BoxOverlap.obj
 0001:000aef00       ?BV4_OverlapCapsuleAny@@YAHAEBVCapsule@Gu@physx@@AEBVBV4Tree@23@PEIBVPxMat44@3@@Z 00000001800aff00 f   GuBV4_BoxOverlap.obj
 0001:000b1030       ?BV4_CapsuleSweepSingle@@YAHAEBVCapsule@Gu@physx@@AEBVPxVec3@3@MAEBVBV4Tree@23@PEIAVSweepHit@23@I@Z 00000001800b2030 f   GuBV4_CapsuleSweep.obj
 0001:000b4520       ?BV4_CapsuleSweepSingleAA@@YAHAEBVCapsule@Gu@physx@@AEBVPxVec3@3@MAEBVBV4Tree@23@PEIAVSweepHit@23@I@Z 00000001800b5520 f   GuBV4_CapsuleSweepAA.obj
 0001:000b8d30       ?BV4_BoxSweepSingle@@YAHAEBVBox@Gu@physx@@AEBVPxVec3@3@MAEBVBV4Tree@23@PEIBVPxMat44@3@PEIAVSweepHit@23@I@Z 00000001800b9d30 f   GuBV4_OBBSweep.obj
 0001:000b9460       ?BV4_GenericSweepCB@@YAXAEBVBox@Gu@physx@@AEBVPxVec3@3@MAEBVBV4Tree@23@P6A_NPEAX111IAEAM@Z3_N@Z 00000001800ba460 f   GuBV4_OBBSweep.obj
 0001:000b9630       ?Sweep_OBB_BV4@@YAHAEBVBox@Gu@physx@@AEBVPxVec3@3@MAEBVBV4Tree@23@PEIAVSweepHit@23@I@Z 00000001800ba630 f   GuBV4_OBBSweep.obj
 0001:000bb600       ?BV4_RaycastCB@@YAXAEBVPxVec3@physx@@0AEBVBV4Tree@Gu@2@PEIBVPxMat44@2@MMIP6A?AW4HitCode@42@PEAX000IMMM@Z3@Z 00000001800bc600 f   GuBV4_Raycast.obj
 0001:000bba20       ?BV4_RaycastSingle@@YAHAEBVPxVec3@physx@@0AEBVBV4Tree@Gu@2@PEIBVPxMat44@2@PEIAUPxRaycastHit@2@MMIV?$PxFlags@W4Enum@PxHitFlag@physx@@G@2@@Z 00000001800bca20 f   GuBV4_Raycast.obj
 0001:000bd780       ?BV4_OverlapSphereAll@@YAIAEBVSphere@Gu@physx@@AEBVBV4Tree@23@PEIBVPxMat44@3@PEAIIAEA_N@Z 00000001800be780 f   GuBV4_SphereOverlap.obj
 0001:000bdaa0       ?BV4_OverlapSphereAny@@YAHAEBVSphere@Gu@physx@@AEBVBV4Tree@23@PEIBVPxMat44@3@@Z 00000001800beaa0 f   GuBV4_SphereOverlap.obj
 0001:000bf8b0       ?BV4_GenericSweepCB_Old@@YAXAEBVPxVec3@physx@@00MAEBVBV4Tree@Gu@2@PEIBVPxMat44@2@P6A_NPEAX000IAEAM@Z3@Z 00000001800c08b0 f   GuBV4_SphereSweep.obj
 0001:000bfcb0       ?BV4_SphereSweepSingle@@YAHAEBVSphere@Gu@physx@@AEBVPxVec3@3@MAEBVBV4Tree@23@PEIBVPxMat44@3@PEIAVSweepHit@23@I@Z 00000001800c0cb0 f   GuBV4_SphereSweep.obj
 0001:000c0f70       ?computeSweepData@physx@@YAMAEBVPxTriangleMeshGeometry@1@AEAVPxVec3@1@11M@Z 00000001800c1f70 f i GuMidphaseBV4.obj
 0001:000c2410       ?intersectBoxVsMesh_BV4@Gu@physx@@YA_NAEBVBox@12@AEBVTriangleMesh@12@AEBVPxTransform@2@AEBVPxMeshScale@2@PEAULimitedResults@12@@Z 00000001800c3410 f   GuMidphaseBV4.obj
 0001:000c2f30       ?intersectCapsuleVsMesh_BV4@Gu@physx@@YA_NAEBVCapsule@12@AEBVTriangleMesh@12@AEBVPxTransform@2@AEBVPxMeshScale@2@PEAULimitedResults@12@@Z 00000001800c3f30 f   GuMidphaseBV4.obj
 0001:000c3770       ?intersectOBB_BV4@Gu@physx@@YAXPEBVTriangleMesh@12@AEBVBox@12@AEAU?$MeshHitCallback@UPxRaycastHit@physx@@@12@_N3@Z 00000001800c4770 f   GuMidphaseBV4.obj
 0001:000c3790       ?intersectSphereVsMesh_BV4@Gu@physx@@YA_NAEBVSphere@12@AEBVTriangleMesh@12@AEBVPxTransform@2@AEBVPxMeshScale@2@PEAULimitedResults@12@@Z 00000001800c4790 f   GuMidphaseBV4.obj
 0001:000c3ed0       ?raycast_triangleMesh_BV4@Gu@physx@@YAIPEBVTriangleMesh@12@AEBVPxTriangleMeshGeometry@2@AEBVPxTransform@2@AEBVPxVec3@2@3MV?$PxFlags@W4Enum@PxHitFlag@physx@@G@2@IPEIAUPxRaycastHit@2@@Z 00000001800c4ed0 f   GuMidphaseBV4.obj
 0001:000c4ce0       ?sweepBox_MeshGeom_BV4@Gu@physx@@YA_NPEBVTriangleMesh@12@AEBVPxTriangleMeshGeometry@2@AEBVPxTransform@2@AEBVBox@12@AEBVPxVec3@2@MAEAUPxSweepHit@2@V?$PxFlags@W4Enum@PxHitFlag@physx@@G@2@M@Z 00000001800c5ce0 f   GuMidphaseBV4.obj
 0001:000c6400       ?sweepCapsule_MeshGeom_BV4@Gu@physx@@YA_NPEBVTriangleMesh@12@AEBVPxTriangleMeshGeometry@2@AEBVPxTransform@2@AEBVCapsule@12@AEBVPxVec3@2@MAEAUPxSweepHit@2@V?$PxFlags@W4Enum@PxHitFlag@physx@@G@2@M@Z 00000001800c7400 f   GuMidphaseBV4.obj
 0001:000c6ef0       ?sweepConvex_MeshGeom_BV4@Gu@physx@@YAXPEBVTriangleMesh@12@AEBVBox@12@AEBVPxVec3@2@MAEAUSweepConvexMeshHitCallback@12@_N@Z 00000001800c7ef0 f   GuMidphaseBV4.obj
 0001:000c6f30       ?transform@PxMeshScale@physx@@QEBA?AVPxVec3@2@AEBV32@@Z 00000001800c7f30 f i GuMidphaseBV4.obj
 0001:000c7170       ?findOverlapHeightField@PxMeshQuery@physx@@SAIAEBVPxGeometry@2@AEBVPxTransform@2@AEBVPxHeightFieldGeometry@2@1PEAIIIAEA_N@Z 00000001800c8170 f   GuMeshQuery.obj
 0001:000c7890       ?findOverlapTriangleMesh@PxMeshQuery@physx@@SAIAEBVPxGeometry@2@AEBVPxTransform@2@AEBVPxTriangleMeshGeometry@2@1PEAIIIAEA_N@Z 00000001800c8890 f   GuMeshQuery.obj
 0001:000c7bf0       ?getTriangle@PxMeshQuery@physx@@SAXAEBVPxHeightFieldGeometry@2@AEBVPxTransform@2@IAEAVPxTriangle@2@PEAI3@Z 00000001800c8bf0 f   GuMeshQuery.obj
 0001:000c7c70       ?getTriangle@PxMeshQuery@physx@@SAXAEBVPxTriangleMeshGeometry@2@AEBVPxTransform@2@IAEAVPxTriangle@2@PEAI3@Z 00000001800c8c70 f   GuMeshQuery.obj
 0001:000c81f0       ?sweep@PxMeshQuery@physx@@SA_NAEBVPxVec3@2@MAEBVPxGeometry@2@AEBVPxTransform@2@IPEBVPxTriangle@2@AEAUPxSweepHit@2@V?$PxFlags@W4Enum@PxHitFlag@physx@@G@2@PEBIM_N@Z 00000001800c91f0 f   GuMeshQuery.obj
 0001:000c85d0       ??$collide@$00$00@MeshRayCollider@@SAXAEBVPxVec3@physx@@0M_NPEBVRTreeTriangleMesh@Gu@2@AEAU?$MeshHitCallback@UPxRaycastHit@physx@@@42@PEBV12@@Z 00000001800c95d0 f i GuMidphaseRTree.obj
 0001:000c8950       ??$collide@$00$0A@@MeshRayCollider@@SAXAEBVPxVec3@physx@@0M_NPEBVRTreeTriangleMesh@Gu@2@AEAU?$MeshHitCallback@UPxRaycastHit@physx@@@42@PEBV12@@Z 00000001800c9950 f i GuMidphaseRTree.obj
 0001:000c8b90       ??$collide@$0A@$00@MeshRayCollider@@SAXAEBVPxVec3@physx@@0M_NPEBVRTreeTriangleMesh@Gu@2@AEAU?$MeshHitCallback@UPxRaycastHit@physx@@@42@PEBV12@@Z 00000001800c9b90 f i GuMidphaseRTree.obj
 0001:000caf50       ??0?$RayRTreeCallback@$00$0A@@@QEAA@MAEAU?$MeshHitCallback@UPxRaycastHit@physx@@@Gu@physx@@HPEBXPEBVPxVec3@3@AEBV43@3M_N2@Z 00000001800cbf50 f i GuMidphaseRTree.obj
 0001:000cb080       ??1?$RayRTreeCallback@$00$00@@UEAA@XZ 00000001800cc080 f i GuMidphaseRTree.obj
 0001:000cb110       ??1?$RayRTreeCallback@$0A@$0A@@@UEAA@XZ 00000001800cc110 f i GuMidphaseRTree.obj
 0001:000cb110       ??1?$RayRTreeCallback@$00$0A@@@UEAA@XZ 00000001800cc110 f i GuMidphaseRTree.obj
 0001:000cb1a0       ??1?$RayRTreeCallback@$0A@$00@@UEAA@XZ 00000001800cc1a0 f i GuMidphaseRTree.obj
 0001:000cb228       ??_E?$RayRTreeCallback@$00$00@@W7EAAPEAXI@Z 00000001800cc228 f i GuMidphaseRTree.obj
 0001:000cb234       ??_E?$RayRTreeCallback@$00$0A@@@W7EAAPEAXI@Z 00000001800cc234 f i GuMidphaseRTree.obj
 0001:000cb234       ??_E?$RayRTreeCallback@$0A@$0A@@@W7EAAPEAXI@Z 00000001800cc234 f i GuMidphaseRTree.obj
 0001:000cb240       ??_E?$RayRTreeCallback@$0A@$00@@W7EAAPEAXI@Z 00000001800cc240 f i GuMidphaseRTree.obj
 0001:000cb2b0       ??_G?$RayRTreeCallback@$00$00@@UEAAPEAXI@Z 00000001800cc2b0 f i GuMidphaseRTree.obj
 0001:000cb2b0       ??_E?$RayRTreeCallback@$00$00@@UEAAPEAXI@Z 00000001800cc2b0 f i GuMidphaseRTree.obj
 0001:000cb2f0       ??_G?$RayRTreeCallback@$0A@$0A@@@UEAAPEAXI@Z 00000001800cc2f0 f i GuMidphaseRTree.obj
 0001:000cb2f0       ??_G?$RayRTreeCallback@$00$0A@@@UEAAPEAXI@Z 00000001800cc2f0 f i GuMidphaseRTree.obj
 0001:000cb2f0       ??_E?$RayRTreeCallback@$0A@$0A@@@UEAAPEAXI@Z 00000001800cc2f0 f i GuMidphaseRTree.obj
 0001:000cb2f0       ??_E?$RayRTreeCallback@$00$0A@@@UEAAPEAXI@Z 00000001800cc2f0 f i GuMidphaseRTree.obj
 0001:000cb330       ??_G?$RayRTreeCallback@$0A@$00@@UEAAPEAXI@Z 00000001800cc330 f i GuMidphaseRTree.obj
 0001:000cb330       ??_E?$RayRTreeCallback@$0A@$00@@UEAAPEAXI@Z 00000001800cc330 f i GuMidphaseRTree.obj
 0001:000cb370       ??_GCallback@RTree@Gu@physx@@UEAAPEAXI@Z 00000001800cc370 f i GuMidphaseRTree.obj
 0001:000cb370       ??_ECallback@RTree@Gu@physx@@UEAAPEAXI@Z 00000001800cc370 f i GuMidphaseRTree.obj
 0001:000cb3a0       ??_GCallbackRefit@RTree@Gu@physx@@UEAAPEAXI@Z 00000001800cc3a0 f i GuTriangleMeshRTree.obj
 0001:000cb3a0       ??_ECallbackRaycast@RTree@Gu@physx@@UEAAPEAXI@Z 00000001800cc3a0 f i GuMidphaseRTree.obj
 0001:000cb3a0       ??_GCallbackRaycast@RTree@Gu@physx@@UEAAPEAXI@Z 00000001800cc3a0 f i GuMidphaseRTree.obj
 0001:000cb3a0       ??_ECallbackRefit@RTree@Gu@physx@@UEAAPEAXI@Z 00000001800cc3a0 f i GuTriangleMeshRTree.obj
 0001:000cb3d0       ??_ERayMeshColliderCallback@@UEAAPEAXI@Z 00000001800cc3d0 f i GuMidphaseRTree.obj
 0001:000cb3d0       ??_GRayMeshColliderCallback@@UEAAPEAXI@Z 00000001800cc3d0 f i GuMidphaseRTree.obj
 0001:000cb400       ?collideOBB@MeshRayCollider@@SAXAEBVBox@Gu@physx@@_NPEBVRTreeTriangleMesh@34@AEAU?$MeshHitCallback@UPxRaycastHit@physx@@@34@1@Z 00000001800cc400 f   GuMidphaseRTree.obj
 0001:000cb8d0       ?intersectBoxVsMesh_RTREE@Gu@physx@@YA_NAEBVBox@12@AEBVTriangleMesh@12@AEBVPxTransform@2@AEBVPxMeshScale@2@PEAULimitedResults@12@@Z 00000001800cc8d0 f   GuMidphaseRTree.obj
 0001:000cb940       ?intersectCapsuleVsMesh_RTREE@Gu@physx@@YA_NAEBVCapsule@12@AEBVTriangleMesh@12@AEBVPxTransform@2@AEBVPxMeshScale@2@PEAULimitedResults@12@@Z 00000001800cc940 f   GuMidphaseRTree.obj
 0001:000cb9c0       ?intersectOBB_RTREE@Gu@physx@@YAXPEBVTriangleMesh@12@AEBVBox@12@AEAU?$MeshHitCallback@UPxRaycastHit@physx@@@12@_N3@Z 00000001800cc9c0 f   GuMidphaseRTree.obj
 0001:000cb9f0       ?intersectSphereVsMesh_RTREE@Gu@physx@@YA_NAEBVSphere@12@AEBVTriangleMesh@12@AEBVPxTransform@2@AEBVPxMeshScale@2@PEAULimitedResults@12@@Z 00000001800cc9f0 f   GuMidphaseRTree.obj
 0001:000cc820       ?processHit@RayMeshColliderCallback@@UEAA_NAEBUPxRaycastHit@physx@@AEBVPxVec3@3@11AEAMPEBI@Z 00000001800cd820 f i GuMidphaseRTree.obj
 0001:000ccfb0       ?processResults@?$RayRTreeCallback@$00$00@@UEAA_NIPEAI@Z 00000001800cdfb0 f i GuMidphaseRTree.obj
 0001:000cd360       ?processResults@?$RayRTreeCallback@$00$00@@UEAA_NIPEAIAEAM@Z 00000001800ce360 f i GuMidphaseRTree.obj
 0001:000cd6f0       ?processResults@?$RayRTreeCallback@$00$0A@@@UEAA_NIPEAI@Z 00000001800ce6f0 f i GuMidphaseRTree.obj
 0001:000cd6f0       ?processResults@?$RayRTreeCallback@$0A@$0A@@@UEAA_NIPEAI@Z 00000001800ce6f0 f i GuMidphaseRTree.obj
 0001:000cd980       ?processResults@?$RayRTreeCallback@$0A@$0A@@@UEAA_NIPEAIAEAM@Z 00000001800ce980 f i GuMidphaseRTree.obj
 0001:000cd980       ?processResults@?$RayRTreeCallback@$00$0A@@@UEAA_NIPEAIAEAM@Z 00000001800ce980 f i GuMidphaseRTree.obj
 0001:000cdc20       ?processResults@?$RayRTreeCallback@$0A@$00@@UEAA_NIPEAI@Z 00000001800cec20 f i GuMidphaseRTree.obj
 0001:000ce280       ?processResults@?$RayRTreeCallback@$0A@$00@@UEAA_NIPEAIAEAM@Z 00000001800cf280 f i GuMidphaseRTree.obj
 0001:000ce8f0       ?raycast_triangleMesh_RTREE@Gu@physx@@YAIPEBVTriangleMesh@12@AEBVPxTriangleMeshGeometry@2@AEBVPxTransform@2@AEBVPxVec3@2@3MV?$PxFlags@W4Enum@PxHitFlag@physx@@G@2@IPEIAUPxRaycastHit@2@@Z 00000001800cf8f0 f   GuMidphaseRTree.obj
 0001:000cf090       ?sweepBox_MeshGeom_RTREE@Gu@physx@@YA_NPEBVTriangleMesh@12@AEBVPxTriangleMeshGeometry@2@AEBVPxTransform@2@AEBVBox@12@AEBVPxVec3@2@MAEAUPxSweepHit@2@V?$PxFlags@W4Enum@PxHitFlag@physx@@G@2@M@Z 00000001800d0090 f   GuMidphaseRTree.obj
 0001:000d05f0       ?sweepCapsule_MeshGeom_RTREE@Gu@physx@@YA_NPEBVTriangleMesh@12@AEBVPxTriangleMeshGeometry@2@AEBVPxTransform@2@AEBVCapsule@12@AEBVPxVec3@2@MAEAUPxSweepHit@2@V?$PxFlags@W4Enum@PxHitFlag@physx@@G@2@M@Z 00000001800d15f0 f   GuMidphaseRTree.obj
 0001:000d0df0       ?sweepConvex_MeshGeom_RTREE@Gu@physx@@YAXPEBVTriangleMesh@12@AEBVBox@12@AEBVPxVec3@2@MAEAUSweepConvexMeshHitCallback@12@_N@Z 00000001800d1df0 f   GuMidphaseRTree.obj
 0001:000d0e40       ??$gjk@U?$RelativeConvex@VTriangleV@Gu@physx@@@Gu@physx@@U?$LocalConvex@VConvexHullV@Gu@physx@@@23@@Gu@physx@@YA?AW4GjkStatus@01@AEBU?$RelativeConvex@VTriangleV@Gu@physx@@@01@AEBU?$LocalConvex@VConvexHullV@Gu@physx@@@01@AEBT__m128@@2AEAT5@333@Z 00000001800d1e40 f i GuOverlapTestsMesh.obj
 0001:000d1cd0       ??0ConvexVsMeshOverlapCallback@@QEAA@AEBVConvexMesh@Gu@physx@@AEBVPxMeshScale@3@AEBVFastVertex2ShapeScaling@Cm@3@AEBVPxTransform@3@3_NAEBVBox@23@@Z 00000001800d2cd0 f i GuOverlapTestsMesh.obj
 0001:000d2560       ??_EConvexVsMeshOverlapCallback@@UEAAPEAXI@Z 00000001800d3560 f i GuOverlapTestsMesh.obj
 0001:000d2560       ??_GConvexVsMeshOverlapCallback@@UEAAPEAXI@Z 00000001800d3560 f i GuOverlapTestsMesh.obj
 0001:000d2590       ?GeomOverlapCallback_BoxMesh@@YA_NAEBVPxGeometry@physx@@AEBVPxTransform@2@01PEAUTriggerCache@Gu@2@@Z 00000001800d3590 f   GuOverlapTestsMesh.obj
 0001:000d26a0       ?GeomOverlapCallback_CapsuleMesh@@YA_NAEBVPxGeometry@physx@@AEBVPxTransform@2@01PEAUTriggerCache@Gu@2@@Z 00000001800d36a0 f   GuOverlapTestsMesh.obj
 0001:000d27b0       ?GeomOverlapCallback_ConvexMesh@@YA_NAEBVPxGeometry@physx@@AEBVPxTransform@2@01PEAUTriggerCache@Gu@2@@Z 00000001800d37b0 f   GuOverlapTestsMesh.obj
 0001:000d2da0       ?GeomOverlapCallback_SphereMesh@@YA_NAEBVPxGeometry@physx@@AEBVPxTransform@2@01PEAUTriggerCache@Gu@2@@Z 00000001800d3da0 f   GuOverlapTestsMesh.obj
 0001:000d2e10       ?checkOverlapAABB_triangleGeom@Gu@physx@@YA_NAEBVPxGeometry@2@AEBVPxTransform@2@AEBVPxBounds3@2@@Z 00000001800d3e10 f   GuOverlapTestsMesh.obj
 0001:000d2f10       ?processHit@ConvexVsMeshOverlapCallback@@UEAA_NAEBUPxRaycastHit@physx@@AEBVPxVec3@3@11AEAMPEBI@Z 00000001800d3f10 f i GuOverlapTestsMesh.obj
 0001:000d3290       ??0RTree@Gu@physx@@QEAA@W4PxEMPTY@2@@Z 00000001800d4290 f   GuRTree.obj
 0001:000d32a0       ?exportExtraData@RTree@Gu@physx@@QEAAXAEAVPxSerializationContext@3@@Z 00000001800d42a0 f   GuRTree.obj
 0001:000d32e0       ?importExtraData@RTree@Gu@physx@@QEAAXAEAVPxDeserializationContext@3@@Z 00000001800d42e0 f   GuRTree.obj
 0001:000d3310       ?load@RTree@Gu@physx@@QEAA_NAEAVPxInputStream@3@I_N@Z 00000001800d4310 f   GuRTree.obj
 0001:000d3620       ?refitAllStaticTree@RTree@Gu@physx@@QEAAXAEAUCallbackRefit@123@PEAVPxBounds3@3@@Z 00000001800d4620 f   GuRTree.obj
 0001:000d3b80       ?validate@RTree@Gu@physx@@QEAAXPEAUCallbackRefit@123@@Z 00000001800d4b80 f   GuRTree.obj
 0001:000d3ce0       ?validateRecursive@RTree@Gu@physx@@IEAAXIURTreeNodeQ@23@PEAURTreePage@23@PEAUCallbackRefit@123@@Z 00000001800d4ce0 f   GuRTree.obj
 0001:000d3e10       ??$traverseRay@$00@RTree@Gu@physx@@QEBAXAEBVPxVec3@2@0IPEAIPEAUCallbackRaycast@012@PEBV32@M@Z 00000001800d4e10 f i GuRTreeQueries.obj
 0001:000d41b0       ??$traverseRay@$0A@@RTree@Gu@physx@@QEBAXAEBVPxVec3@2@0IPEAIPEAUCallbackRaycast@012@PEBV32@M@Z 00000001800d51b0 f i GuRTreeQueries.obj
 0001:000d4500       ?traverseAABB@RTree@Gu@physx@@QEBAXAEBVPxVec3@3@0IPEAIPEAUCallback@123@@Z 00000001800d5500 f   GuRTreeQueries.obj
 0001:000d46c0       ?traverseOBB@RTree@Gu@physx@@QEBAXAEBVBox@23@IPEAIPEAUCallback@123@@Z 00000001800d56c0 f   GuRTreeQueries.obj
 0001:000d4fa0       ??0SweepBoxMeshHitCallback@Gu@physx@@QEAA@W4Enum@CallbackMode@12@AEBVMatrix34Padded@12@M_NAEBVBox@12@AEBVPxVec3@2@44AEBV?$PxFlags@W4Enum@PxHitFlag@physx@@G@2@M2M@Z 00000001800d5fa0 f   GuSweepsMesh.obj
 0001:000d50b0       ??0SweepCapsuleMeshHitCallback@Gu@physx@@QEAA@AEAUPxSweepHit@2@AEBVMatrix34@Cm@2@M_NAEBVCapsule@12@AEBVPxVec3@2@AEBV?$PxFlags@W4Enum@PxHitFlag@physx@@G@2@2M@Z 00000001800d60b0 f   GuSweepsMesh.obj
 0001:000d5180       ??0SweepConvexMeshHitCallback@Gu@physx@@QEAA@AEBUConvexHullData@12@AEBVPxMeshScale@2@AEBVFastVertex2ShapeScaling@Cm@2@AEBVPxTransform@2@3AEBVPxVec3@2@MV?$PxFlags@W4Enum@PxHitFlag@physx@@G@2@_NM6M@Z 00000001800d6180 f   GuSweepsMesh.obj
 0001:000d5b00       ??_ESweepBoxMeshHitCallback@Gu@physx@@UEAAPEAXI@Z 00000001800d6b00 f i GuSweepsMesh.obj
 0001:000d5b00       ??_GSweepBoxMeshHitCallback@Gu@physx@@UEAAPEAXI@Z 00000001800d6b00 f i GuSweepsMesh.obj
 0001:000d5b30       ??_GSweepCapsuleMeshHitCallback@Gu@physx@@UEAAPEAXI@Z 00000001800d6b30 f i GuSweepsMesh.obj
 0001:000d5b30       ??_ESweepCapsuleMeshHitCallback@Gu@physx@@UEAAPEAXI@Z 00000001800d6b30 f i GuSweepsMesh.obj
 0001:000d5b60       ??_ESweepConvexMeshHitCallback@Gu@physx@@UEAAPEAXI@Z 00000001800d6b60 f i GuSweepsMesh.obj
 0001:000d5b60       ??_GSweepConvexMeshHitCallback@Gu@physx@@UEAAPEAXI@Z 00000001800d6b60 f i GuSweepsMesh.obj
 0001:000d5b90       ??_ESweepShapeMeshHitCallback@Gu@physx@@UEAAPEAXI@Z 00000001800d6b90 f i GuSweepsMesh.obj
 0001:000d5b90       ??_GSweepShapeMeshHitCallback@Gu@physx@@UEAAPEAXI@Z 00000001800d6b90 f i GuSweepsMesh.obj
 0001:000d5bc0       ?finalizeHit@SweepBoxMeshHitCallback@Gu@physx@@QEBA_NAEAUPxSweepHit@3@AEBVPxTriangleMeshGeometry@3@AEBVPxTransform@3@2AEBVPxVec3@3@_N4@Z 00000001800d6bc0 f   GuSweepsMesh.obj
 0001:000d6290       ?finalizeHit@SweepCapsuleMeshHitCallback@Gu@physx@@QEBA_NAEAUPxSweepHit@3@AEBVCapsule@23@AEBVPxTriangleMeshGeometry@3@AEBVPxTransform@3@_N@Z 00000001800d7290 f   GuSweepsMesh.obj
 0001:000d6420       ?finalizeHit@SweepConvexMeshHitCallback@Gu@physx@@QEAA_NAEAUPxSweepHit@3@AEBVPxTriangleMeshGeometry@3@AEBVPxTransform@3@AEBVPxConvexMeshGeometry@3@2AEBVPxVec3@3@M_N555@Z 00000001800d7420 f   GuSweepsMesh.obj
 0001:000d6910       ?processHit@SweepBoxMeshHitCallback@Gu@physx@@UEAA_NAEBUPxRaycastHit@3@AEBVPxVec3@3@11AEAMPEBI@Z 00000001800d7910 f   GuSweepsMesh.obj
 0001:000d7120       ?processHit@SweepCapsuleMeshHitCallback@Gu@physx@@UEAA_NAEBUPxRaycastHit@3@AEBVPxVec3@3@11AEAMPEBI@Z 00000001800d8120 f   GuSweepsMesh.obj
 0001:000d7650       ?processHit@SweepConvexMeshHitCallback@Gu@physx@@UEAA_NAEBUPxRaycastHit@3@AEBVPxVec3@3@11AEAMPEBI@Z 00000001800d8650 f   GuSweepsMesh.obj
 0001:000d7da0       ?sweepBox_MeshGeom@@YA_NAEBVPxGeometry@physx@@AEBVPxTransform@2@AEBVPxBoxGeometry@2@1AEBVBox@Gu@2@AEBVPxVec3@2@MAEAUPxSweepHit@2@V?$PxFlags@W4Enum@PxHitFlag@physx@@G@2@M@Z 00000001800d8da0 f   GuSweepsMesh.obj
 0001:000d7e30       ?sweepCapsule_MeshGeom@@YA_NAEBVPxGeometry@physx@@AEBVPxTransform@2@AEBVPxCapsuleGeometry@2@1AEBVCapsule@Gu@2@AEBVPxVec3@2@MAEAUPxSweepHit@2@V?$PxFlags@W4Enum@PxHitFlag@physx@@G@2@M@Z 00000001800d8e30 f   GuSweepsMesh.obj
 0001:000d7ec0       ?sweepConvex_MeshGeom@@YA_NAEBVPxGeometry@physx@@AEBVPxTransform@2@AEBVPxConvexMeshGeometry@2@1AEBVPxVec3@2@MAEAUPxSweepHit@2@V?$PxFlags@W4Enum@PxHitFlag@physx@@G@2@M@Z 00000001800d8ec0 f   GuSweepsMesh.obj
 0001:000d8b00       ??0TriangleMesh@Gu@physx@@QEAA@AEAVGuMeshFactory@2@AEAVTriangleMeshData@12@@Z 00000001800d9b00 f   GuTriangleMesh.obj
 0001:000d8c90       ??1TriangleMesh@Gu@physx@@UEAA@XZ 00000001800d9c90 f   GuTriangleMesh.obj
 0001:000d8e44       ??_ETriangleMesh@Gu@physx@@WBA@EAAPEAXI@Z 00000001800d9e44 f i GuTriangleMesh.obj
 0001:000d8e50       ??_GTriangleMesh@Gu@physx@@UEAAPEAXI@Z 00000001800d9e50 f i GuTriangleMesh.obj
 0001:000d8e50       ??_ETriangleMesh@Gu@physx@@UEAAPEAXI@Z 00000001800d9e50 f i GuTriangleMesh.obj
 0001:000d8ec0       ?exportExtraData@TriangleMesh@Gu@physx@@UEAAXAEAVPxSerializationContext@3@@Z 00000001800d9ec0 f   GuTriangleMesh.obj
 0001:000d9000       ?getLocalBounds@TriangleMesh@Gu@physx@@UEBA?AVPxBounds3@3@XZ 00000001800da000 f i GuTriangleMesh.obj
 0001:000d9090       ?getNbVertices@TriangleMesh@Gu@physx@@UEBAIXZ 00000001800da090 f i GuTriangleMesh.obj
 0001:000d90a0       ?getTriangleMaterialIndex@TriangleMesh@Gu@physx@@UEBAGI@Z 00000001800da0a0 f i GuTriangleMesh.obj
 0001:000d90c0       ?getTriangleMeshFlags@TriangleMesh@Gu@physx@@UEBA?AV?$PxFlags@W4Enum@PxTriangleMeshFlag@physx@@E@3@XZ 00000001800da0c0 f i GuTriangleMesh.obj
 0001:000d90d0       ?getTrianglesRemap@TriangleMesh@Gu@physx@@UEBAPEBIXZ 00000001800da0d0 f i GuTriangleMesh.obj
 0001:000d90e0       ?getVertices@TriangleMesh@Gu@physx@@UEBAPEBVPxVec3@3@XZ 00000001800da0e0 f i GuTriangleMesh.obj
 0001:000d90f0       ?getVerticesForModification@TriangleMesh@Gu@physx@@UEAAPEAVPxVec3@3@XZ 00000001800da0f0 f   GuTriangleMesh.obj
 0001:000d9130       ?importExtraData@TriangleMesh@Gu@physx@@QEAAXAEAVPxDeserializationContext@3@@Z 00000001800da130 f   GuTriangleMesh.obj
 0001:000d9240       ?isKindOf@PxTriangleMesh@physx@@MEBA_NPEBD@Z 00000001800da240 f i GuTriangleMesh.obj
 0001:000d9290       ?onRefCountZero@TriangleMesh@Gu@physx@@UEAAXXZ 00000001800da290 f   GuTriangleMesh.obj
 0001:000d9330       ?refitBVH@TriangleMesh@Gu@physx@@UEAA?AVPxBounds3@3@XZ 00000001800da330 f   GuTriangleMesh.obj
 0001:000d9400       ??0BV4TriangleMesh@Gu@physx@@QEAA@AEAVGuMeshFactory@2@AEAVTriangleMeshData@12@@Z 00000001800da400 f   GuTriangleMeshBV4.obj
 0001:000d9494       ??_EBV4TriangleMesh@Gu@physx@@WBA@EAAPEAXI@Z 00000001800da494 f i GuTriangleMeshBV4.obj
 0001:000d94a0       ??_EBV4TriangleMesh@Gu@physx@@UEAAPEAXI@Z 00000001800da4a0 f i GuTriangleMeshBV4.obj
 0001:000d94a0       ??_GBV4TriangleMesh@Gu@physx@@UEAAPEAXI@Z 00000001800da4a0 f i GuTriangleMeshBV4.obj
 0001:000d9530       ?createObject@BV4TriangleMesh@Gu@physx@@SAPEAVTriangleMesh@23@AEAPEAEAEAVPxDeserializationContext@3@@Z 00000001800da530 f   GuTriangleMeshBV4.obj
 0001:000d9620       ?exportExtraData@BV4TriangleMesh@Gu@physx@@UEAAXAEAVPxSerializationContext@3@@Z 00000001800da620 f   GuTriangleMeshBV4.obj
 0001:000d9660       ?getConcreteTypeName@BV4TriangleMesh@Gu@physx@@UEBAPEBDXZ 00000001800da660 f i GuTriangleMeshBV4.obj
 0001:000d9670       _get_startup_argv_mode     00000001800da670 f i LIBCMT:argv_mode.obj
 0001:000d9670       ?getMidphaseID@BV4TriangleMesh@Gu@physx@@UEBA?AW4Enum@PxMeshMidPhase@3@XZ 00000001800da670 f i GuTriangleMeshBV4.obj
 0001:000d9670       ?length@charNode@@UEBAHXZ  00000001800da670 f i libvcruntime:undname.obj
 0001:000d9670       ?raw_length@charNode@@UEBAHXZ 00000001800da670 f i libvcruntime:undname.obj
 0001:000d9670       DllMain                    00000001800da670 f i LIBCMT:dll_dllmain_stub.obj
 0001:000d9680       ??0RTreeTriangleMesh@Gu@physx@@QEAA@AEAVGuMeshFactory@2@AEAVTriangleMeshData@12@@Z 00000001800da680 f   GuTriangleMeshRTree.obj
 0001:000d97f8       ??_ERTreeTriangleMesh@Gu@physx@@WBA@EAAPEAXI@Z 00000001800da7f8 f i GuTriangleMeshRTree.obj
 0001:000d9810       ??_E?$RefitCallback@G@physx@@UEAAPEAXI@Z 00000001800da810 f i GuTriangleMeshRTree.obj
 0001:000d9810       ??_G?$RefitCallback@G@physx@@UEAAPEAXI@Z 00000001800da810 f i GuTriangleMeshRTree.obj
 0001:000d9810       ??_G?$RefitCallback@I@physx@@UEAAPEAXI@Z 00000001800da810 f i GuTriangleMeshRTree.obj
 0001:000d9810       ??_E?$RefitCallback@I@physx@@UEAAPEAXI@Z 00000001800da810 f i GuTriangleMeshRTree.obj
 0001:000d9840       ??_ERTreeTriangleMesh@Gu@physx@@UEAAPEAXI@Z 00000001800da840 f i GuTriangleMeshRTree.obj
 0001:000d9840       ??_GRTreeTriangleMesh@Gu@physx@@UEAAPEAXI@Z 00000001800da840 f i GuTriangleMeshRTree.obj
 0001:000d9900       ?createObject@RTreeTriangleMesh@Gu@physx@@SAPEAVTriangleMesh@23@AEAPEAEAEAVPxDeserializationContext@3@@Z 00000001800da900 f   GuTriangleMeshRTree.obj
 0001:000d99a0       ?exportExtraData@RTreeTriangleMesh@Gu@physx@@UEAAXAEAVPxSerializationContext@3@@Z 00000001800da9a0 f   GuTriangleMeshRTree.obj
 0001:000d99e0       ?getConcreteTypeName@RTreeTriangleMesh@Gu@physx@@UEBAPEBDXZ 00000001800da9e0 f i GuTriangleMeshRTree.obj
 0001:000d99f0       ?getMidphaseID@RTreeTriangleMesh@Gu@physx@@UEBA?AW4Enum@PxMeshMidPhase@3@XZ 00000001800da9f0 f i GuTriangleMeshRTree.obj
 0001:000d9a00       ?getVerticesForModification@RTreeTriangleMesh@Gu@physx@@UEAAPEAVPxVec3@3@XZ 00000001800daa00 f   GuTriangleMeshRTree.obj
 0001:000d9a10       ?recomputeBounds@?$RefitCallback@G@physx@@UEAAXIAEAT__m128@@0@Z 00000001800daa10 f i GuTriangleMeshRTree.obj
 0001:000d9d40       ?recomputeBounds@?$RefitCallback@I@physx@@UEAAXIAEAT__m128@@0@Z 00000001800dad40 f i GuTriangleMeshRTree.obj
 0001:000da060       ?refitBVH@RTreeTriangleMesh@Gu@physx@@UEAA?AVPxBounds3@3@XZ 00000001800db060 f   GuTriangleMeshRTree.obj
 0001:000da280       ??0BV32Tree@Gu@physx@@QEAA@PEAVSourceMesh@12@AEBVPxBounds3@2@@Z 00000001800db280 f   GuBV32.obj
 0001:000da340       ??0BV32Tree@Gu@physx@@QEAA@XZ 00000001800db340 f   GuBV32.obj
 0001:000da370       ??1BV32Tree@Gu@physx@@QEAA@XZ 00000001800db370 f   GuBV32.obj
 0001:000da380       ?calculateLeafNode@BV32Tree@Gu@physx@@QEAAXAEAUBV32Data@23@@Z 00000001800db380 f   GuBV32.obj
 0001:000da5c0       ?createSOAformatNode@BV32Tree@Gu@physx@@QEAAXAEAUBV32DataPacked@23@AEBUBV32Data@23@IAEAI2@Z 00000001800db5c0 f   GuBV32.obj
 0001:000daa10       ?load@BV32Tree@Gu@physx@@QEAA_NAEAVPxInputStream@3@_N@Z 00000001800dba10 f   GuBV32.obj
 0001:000dac50       ?release@BV32Tree@Gu@physx@@QEAAXXZ 00000001800dbc50 f   GuBV32.obj
 0001:000dace0       ??0BV32Node@@QEAA@XZ       00000001800dbce0 f i GuBV32Build.obj
 0001:000db000       ?BuildBV32Ex@Gu@physx@@YA_NAEAVBV32Tree@12@AEAVSourceMesh@12@MI@Z 00000001800dc000 f   GuBV32Build.obj
 0001:000de7d0       ?pcmContactBoxBox@Gu@physx@@YA_NAEBVGeometryUnion@12@0AEBVPxTransform@2@1AEBUNarrowPhaseParams@12@AEAUCache@12@AEAVContactBuffer@12@PEAVRenderOutput@Cm@2@@Z 00000001800df7d0 f   GuPCMContactBoxBox.obj
 0001:000df5e0       ??$gjkPenetration@U?$RelativeConvex@VBoxV@Gu@physx@@@Gu@physx@@U?$LocalConvex@VConvexHullNoScaleV@Gu@physx@@@23@@Gu@physx@@YA?AW4GjkStatus@01@AEBU?$RelativeConvex@VBoxV@Gu@physx@@@01@AEBU?$LocalConvex@VConvexHullNoScaleV@Gu@physx@@@01@AEBT__m128@@2_NPEIAE4AEAEAEAUGjkOutput@01@@Z 00000001800e05e0 f i GuPCMContactBoxConvex.obj
 0001:000e11d0       ?pcmContactBoxConvex@Gu@physx@@YA_NAEBVGeometryUnion@12@0AEBVPxTransform@2@1AEBUNarrowPhaseParams@12@AEAUCache@12@AEAVContactBuffer@12@PEAVRenderOutput@Cm@2@@Z 00000001800e21d0 f   GuPCMContactBoxConvex.obj
 0001:000e2060       ?support@?$LocalConvex@VConvexHullNoScaleV@Gu@physx@@@Gu@physx@@UEBA?AT__m128@@AEBT4@@Z 00000001800e3060 f i GuPCMContactBoxConvex.obj
 0001:000e20b0       ?support@?$LocalConvex@VConvexHullNoScaleV@Gu@physx@@@Gu@physx@@UEBA?AT__m128@@AEBT4@AEAH@Z 00000001800e30b0 f i GuPCMContactBoxConvex.obj
 0001:000e2110       ?supportPoint@?$LocalConvex@VConvexHullNoScaleV@Gu@physx@@@Gu@physx@@UEBA?AT__m128@@H@Z 00000001800e3110 f i GuPCMContactBoxConvex.obj
 0001:000e2140       ?pcmContactCapsuleBox@Gu@physx@@YA_NAEBVGeometryUnion@12@0AEBVPxTransform@2@1AEBUNarrowPhaseParams@12@AEAUCache@12@AEAVContactBuffer@12@PEAVRenderOutput@Cm@2@@Z 00000001800e3140 f   GuPCMContactCapsuleBox.obj
 0001:000e30a0       ?pcmContactCapsuleCapsule@Gu@physx@@YA_NAEBVGeometryUnion@12@0AEBVPxTransform@2@1AEBUNarrowPhaseParams@12@AEAUCache@12@AEAVContactBuffer@12@PEAVRenderOutput@Cm@2@@Z 00000001800e40a0 f   GuPCMContactCapsuleCapsule.obj
 0001:000e3920       ??$gjkPenetration@U?$LocalConvex@VCapsuleV@Gu@physx@@@Gu@physx@@U?$LocalConvex@VConvexHullNoScaleV@Gu@physx@@@23@@Gu@physx@@YA?AW4GjkStatus@01@AEBU?$LocalConvex@VCapsuleV@Gu@physx@@@01@AEBU?$LocalConvex@VConvexHullNoScaleV@Gu@physx@@@01@AEBT__m128@@2_NPEIAE4AEAEAEAUGjkOutput@01@@Z 00000001800e4920 f i GuPCMContactCapsuleConvex.obj
 0001:000e5080       ?pcmContactCapsuleConvex@Gu@physx@@YA_NAEBVGeometryUnion@12@0AEBVPxTransform@2@1AEBUNarrowPhaseParams@12@AEAUCache@12@AEAVContactBuffer@12@PEAVRenderOutput@Cm@2@@Z 00000001800e6080 f   GuPCMContactCapsuleConvex.obj
 0001:000e6290       ??0PCMMeshContactGeneration@Gu@physx@@QEAA@AEBT__m128@@0AEBVPsTransformV@aos@shdfnd@2@1AEAVMultiplePersistentContactManifold@12@AEAVContactBuffer@12@PEAV?$InlineArray@I$0EEA@VNamedAllocator@shdfnd@physx@@@62@PEAVRenderOutput@Cm@2@@Z 00000001800e7290 f i GuPCMContactCapsuleHeightField.obj
 0001:000e6ba0       ??_GPCMCapsuleVsHeightfieldContactGenerationCallback@physx@@UEAAPEAXI@Z 00000001800e7ba0 f i GuPCMContactCapsuleHeightField.obj
 0001:000e6ba0       ??_EPCMCapsuleVsHeightfieldContactGenerationCallback@physx@@UEAAPEAXI@Z 00000001800e7ba0 f i GuPCMContactCapsuleHeightField.obj
 0001:000e6bd0       ?onEvent@?$PCMHeightfieldContactGenerationCallback@UPCMCapsuleVsHeightfieldContactGenerationCallback@physx@@@Gu@physx@@UEAA_NIPEAI@Z 00000001800e7bd0 f i GuPCMContactCapsuleHeightField.obj
 0001:000e7190       ?pcmContactCapsuleHeightField@Gu@physx@@YA_NAEBVGeometryUnion@12@0AEBVPxTransform@2@1AEBUNarrowPhaseParams@12@AEAUCache@12@AEAVContactBuffer@12@PEAVRenderOutput@Cm@2@@Z 00000001800e8190 f   GuPCMContactCapsuleHeightField.obj
 0001:000e7eb0       ??$processTriangleCache@$0BA@@PCMCapsuleVsMeshContactGenerationCallback@physx@@QEAAXAEAU?$TriangleCache@$0BA@@Gu@1@@Z 00000001800e8eb0 f i GuPCMContactCapsuleMesh.obj
 0001:000e7f40       ??_EPCMCapsuleVsMeshContactGenerationCallback@physx@@UEAAPEAXI@Z 00000001800e8f40 f i GuPCMContactCapsuleMesh.obj
 0001:000e7f40       ??_GPCMCapsuleVsMeshContactGenerationCallback@physx@@UEAAPEAXI@Z 00000001800e8f40 f i GuPCMContactCapsuleMesh.obj
 0001:000e7f70       ?pcmContactCapsuleMesh@Gu@physx@@YA_NAEBVGeometryUnion@12@0AEBVPxTransform@2@1AEBUNarrowPhaseParams@12@AEAUCache@12@AEAVContactBuffer@12@PEAVRenderOutput@Cm@2@@Z 00000001800e8f70 f   GuPCMContactCapsuleMesh.obj
 0001:000e8e80       ?processHit@?$PCMMeshContactGenerationCallback@UPCMCapsuleVsMeshContactGenerationCallback@physx@@@Gu@physx@@UEAA_NAEBUPxRaycastHit@3@AEBVPxVec3@3@11AEAMPEBI@Z 00000001800e9e80 f i GuPCMContactCapsuleMesh.obj
 0001:000e9240       ??$sort@USortedTriangle@Gu@physx@@U?$Less@USortedTriangle@Gu@physx@@@shdfnd@3@VNamedAllocator@53@@shdfnd@physx@@YAXPEAUSortedTriangle@Gu@1@IAEBU?$Less@USortedTriangle@Gu@physx@@@01@AEBVNamedAllocator@01@I@Z 00000001800ea240 f i GuPCMContactConvexCommon.obj
 0001:000e96f0       ?addContactsToPatch@PCMConvexVsMeshContactGeneration@Gu@physx@@QEAAXAEBT__m128@@I@Z 00000001800ea6f0 f   GuPCMContactConvexCommon.obj
 0001:000ea010       ?addToPatch@PCMSphereVsMeshContactGeneration@Gu@physx@@QEAAXAEBT__m128@@0T4@I@Z 00000001800eb010 f   GuPCMContactConvexCommon.obj
 0001:000ea6b0       ?allocate@?$Array@USortedTriangle@Gu@physx@@V?$InlineAllocator@$0IAA@VNamedAllocator@shdfnd@physx@@@shdfnd@3@@shdfnd@physx@@IEAAPEAUSortedTriangle@Gu@3@I@Z 00000001800eb6b0 f i GuPCMContactConvexCommon.obj
 0001:000ea740       ?doSupport@?$SupportLocalImpl@VTriangleV@Gu@physx@@@Gu@physx@@UEBA?AT__m128@@AEBT4@@Z 00000001800eb740 f i GuPCMContactConvexCommon.obj
 0001:000ea7d0       ?doSupport@?$SupportLocalImpl@VTriangleV@Gu@physx@@@Gu@physx@@UEBAXAEBT__m128@@AEAT4@1@Z 00000001800eb7d0 f i GuPCMContactConvexCommon.obj
 0001:000ea840       ?generateContacts@PCMCapsuleVsMeshContactGeneration@Gu@physx@@SA_NAEBT__m128@@0000I000PEAVMeshPersistentContact@23@AEAI@Z 00000001800eb840 f   GuPCMContactConvexCommon.obj
 0001:000eacc0       ?generateEE@PCMCapsuleVsMeshContactGeneration@Gu@physx@@QEAAXAEBT__m128@@000I00PEAVMeshPersistentContact@23@AEAI@Z 00000001800ebcc0 f   GuPCMContactConvexCommon.obj
 0001:000eaf40       ?generateEEMTD@PCMCapsuleVsMeshContactGeneration@Gu@physx@@SAXAEBT__m128@@000I00PEAVMeshPersistentContact@23@AEAI@Z 00000001800ebf40 f   GuPCMContactConvexCommon.obj
 0001:000eb190       ?generateLastContacts@PCMConvexVsMeshContactGeneration@Gu@physx@@QEAAXXZ 00000001800ec190 f   GuPCMContactConvexCommon.obj
 0001:000eb6d0       ?generateLastContacts@PCMSphereVsMeshContactGeneration@Gu@physx@@QEAAXXZ 00000001800ec6d0 f   GuPCMContactConvexCommon.obj
 0001:000ebb50       ?growAndPushBack@?$Array@USortedTriangle@Gu@physx@@V?$InlineAllocator@$0IAA@VNamedAllocator@shdfnd@physx@@@shdfnd@3@@shdfnd@physx@@IEAAAEAUSortedTriangle@Gu@3@AEBU453@@Z 00000001800ecb50 f i GuPCMContactConvexCommon.obj
 0001:000ec190       ?pcmDistanceSegmentTriangleSquared@Gu@physx@@YA?AT__m128@@AEBT3@0000AEAT3@11@Z 00000001800ed190 f   GuPCMContactConvexCommon.obj
 0001:000ecad0       ?populateVerts@?$SupportLocalImpl@VTriangleV@Gu@physx@@@Gu@physx@@UEBAXPEBEIPEBVPxVec3@3@PEAT__m128@@@Z 00000001800edad0 f i GuPCMContactConvexCommon.obj
 0001:000ecc10       ?processTriangle@PCMCapsuleVsMeshContactGeneration@Gu@physx@@QEAA_NPEBVPxVec3@3@IEPEBI@Z 00000001800edc10 f   GuPCMContactConvexCommon.obj
 0001:000ed7b0       ?processTriangle@PCMCapsuleVsMeshContactGeneration@Gu@physx@@SA_NAEBVTriangleV@23@IAEBVCapsuleV@23@AEBT__m128@@EPEAVMeshPersistentContact@23@AEAI@Z 00000001800ee7b0 f   GuPCMContactConvexCommon.obj
 0001:000edaf0       ?processTriangle@PCMConvexVsMeshContactGeneration@Gu@physx@@QEAA_NPEBVPxVec3@3@IEPEBI@Z 00000001800eeaf0 f   GuPCMContactConvexCommon.obj
 0001:000ee060       ?processTriangle@PCMConvexVsMeshContactGeneration@Gu@physx@@SA_NAEBUPolygonalData@23@PEAVSupportLocal@23@PEBVPxVec3@3@IEAEBT__m128@@_NAEBVPsTransformV@aos@shdfnd@3@AEBVPsMatTransformV@9shdfnd@3@PEAVMeshPersistentContact@23@AEAI@Z 00000001800ef060 f   GuPCMContactConvexCommon.obj
 0001:000ee2e0       ?processTriangle@PCMSphereVsMeshContactGeneration@Gu@physx@@QEAA_NPEBVPxVec3@3@IEPEBI@Z 00000001800ef2e0 f   GuPCMContactConvexCommon.obj
 0001:000ee6f0       ??$gjkPenetration@U?$RelativeConvex@VConvexHullNoScaleV@Gu@physx@@@Gu@physx@@U?$LocalConvex@VConvexHullNoScaleV@Gu@physx@@@23@@Gu@physx@@YA?AW4GjkStatus@01@AEBU?$RelativeConvex@VConvexHullNoScaleV@Gu@physx@@@01@AEBU?$LocalConvex@VConvexHullNoScaleV@Gu@physx@@@01@AEBT__m128@@2_NPEIAE4AEAEAEAUGjkOutput@01@@Z 00000001800ef6f0 f i GuPCMContactConvexConvex.obj
 0001:000efc60       ??$gjkPenetration@U?$RelativeConvex@VConvexHullNoScaleV@Gu@physx@@@Gu@physx@@U?$LocalConvex@VConvexHullV@Gu@physx@@@23@@Gu@physx@@YA?AW4GjkStatus@01@AEBU?$RelativeConvex@VConvexHullNoScaleV@Gu@physx@@@01@AEBU?$LocalConvex@VConvexHullV@Gu@physx@@@01@AEBT__m128@@2_NPEIAE4AEAEAEAUGjkOutput@01@@Z 00000001800f0c60 f i GuPCMContactConvexConvex.obj
 0001:000f1240       ??$gjkPenetration@U?$RelativeConvex@VConvexHullV@Gu@physx@@@Gu@physx@@U?$LocalConvex@VConvexHullNoScaleV@Gu@physx@@@23@@Gu@physx@@YA?AW4GjkStatus@01@AEBU?$RelativeConvex@VConvexHullV@Gu@physx@@@01@AEBU?$LocalConvex@VConvexHullNoScaleV@Gu@physx@@@01@AEBT__m128@@2_NPEIAE4AEAEAEAUGjkOutput@01@@Z 00000001800f2240 f i GuPCMContactConvexConvex.obj
 0001:000f3210       ?pcmContactConvexConvex@Gu@physx@@YA_NAEBVGeometryUnion@12@0AEBVPxTransform@2@1AEBUNarrowPhaseParams@12@AEAUCache@12@AEAVContactBuffer@12@PEAVRenderOutput@Cm@2@@Z 00000001800f4210 f   GuPCMContactConvexConvex.obj
 0001:000f4380       ?support@?$RelativeConvex@VConvexHullNoScaleV@Gu@physx@@@Gu@physx@@UEBA?AT__m128@@AEBT4@@Z 00000001800f5380 f i GuPCMContactConvexConvex.obj
 0001:000f4430       ?support@?$RelativeConvex@VConvexHullNoScaleV@Gu@physx@@@Gu@physx@@UEBA?AT__m128@@AEBT4@AEAH@Z 00000001800f5430 f i GuPCMContactConvexConvex.obj
 0001:000f44f0       ?supportPoint@?$RelativeConvex@VConvexHullNoScaleV@Gu@physx@@@Gu@physx@@UEBA?AT__m128@@H@Z 00000001800f54f0 f i GuPCMContactConvexConvex.obj
 0001:000f4550       ??_GPCMConvexVsHeightfieldContactGenerationCallback@physx@@UEAAPEAXI@Z 00000001800f5550 f i GuPCMContactConvexHeightField.obj
 0001:000f4550       ??_EPCMConvexVsHeightfieldContactGenerationCallback@physx@@UEAAPEAXI@Z 00000001800f5550 f i GuPCMContactConvexHeightField.obj
 0001:000f4580       ?PCMContactConvexHeightfield@Gu@physx@@YA_NAEBUPolygonalData@12@PEAVSupportLocal@12@AEBT__m128@@AEBVPxBounds3@2@AEBVPxHeightFieldGeometry@2@AEBVPxTransform@2@5MAEAVContactBuffer@12@AEBVFastVertex2ShapeScaling@Cm@2@_NAEAVMultiplePersistentContactManifold@12@PEAVRenderOutput@Cm@2@@Z 00000001800f5580 f   GuPCMContactConvexHeightField.obj
 0001:000f50f0       ?onEvent@?$PCMHeightfieldContactGenerationCallback@UPCMConvexVsHeightfieldContactGenerationCallback@physx@@@Gu@physx@@UEAA_NIPEAI@Z 00000001800f60f0 f i GuPCMContactConvexHeightField.obj
 0001:000f56b0       ?pcmContactBoxHeightField@Gu@physx@@YA_NAEBVGeometryUnion@12@0AEBVPxTransform@2@1AEBUNarrowPhaseParams@12@AEAUCache@12@AEAVContactBuffer@12@PEAVRenderOutput@Cm@2@@Z 00000001800f66b0 f   GuPCMContactConvexHeightField.obj
 0001:000f5930       ?pcmContactConvexHeightField@Gu@physx@@YA_NAEBVGeometryUnion@12@0AEBVPxTransform@2@1AEBUNarrowPhaseParams@12@AEAUCache@12@AEAVContactBuffer@12@PEAVRenderOutput@Cm@2@@Z 00000001800f6930 f   GuPCMContactConvexHeightField.obj
 0001:000f5fd0       ??$processTriangleCache@$0BA@@PCMConvexVsMeshContactGenerationCallback@physx@@QEAAXAEAU?$TriangleCache@$0BA@@Gu@1@@Z 00000001800f6fd0 f i GuPCMContactConvexMesh.obj
 0001:000f6060       ??_EPCMConvexVsMeshContactGenerationCallback@physx@@UEAAPEAXI@Z 00000001800f7060 f i GuPCMContactConvexMesh.obj
 0001:000f6060       ??_GPCMConvexVsMeshContactGenerationCallback@physx@@UEAAPEAXI@Z 00000001800f7060 f i GuPCMContactConvexMesh.obj
 0001:000f6090       ?PCMContactConvexMesh@Gu@physx@@YA_NAEBUPolygonalData@12@PEAVSupportLocal@12@AEBT__m128@@AEBVPxBounds3@2@AEBUPxTriangleMeshGeometryLL@2@AEBVPxTransform@2@5MAEAVContactBuffer@12@AEBVFastVertex2ShapeScaling@Cm@2@7_N8AEAVMultiplePersistentContactManifold@12@PEAVRenderOutput@Cm@2@@Z 00000001800f7090 f   GuPCMContactConvexMesh.obj
 0001:000f6cf0       ?pcmContactBoxMesh@Gu@physx@@YA_NAEBVGeometryUnion@12@0AEBVPxTransform@2@1AEBUNarrowPhaseParams@12@AEAUCache@12@AEAVContactBuffer@12@PEAVRenderOutput@Cm@2@@Z 00000001800f7cf0 f   GuPCMContactConvexMesh.obj
 0001:000f7010       ?pcmContactConvexMesh@Gu@physx@@YA_NAEBVGeometryUnion@12@0AEBVPxTransform@2@1AEBUNarrowPhaseParams@12@AEAUCache@12@AEAVContactBuffer@12@PEAVRenderOutput@Cm@2@@Z 00000001800f8010 f   GuPCMContactConvexMesh.obj
 0001:000f77d0       ?processHit@?$PCMMeshContactGenerationCallback@UPCMConvexVsMeshContactGenerationCallback@physx@@@Gu@physx@@UEAA_NAEBUPxRaycastHit@3@AEBVPxVec3@3@11AEAMPEBI@Z 00000001800f87d0 f i GuPCMContactConvexMesh.obj
 0001:000f7c00       ?addGJKEPAContacts@Gu@physx@@YA_NPEBUGjkConvex@12@0AEBVPsMatTransformV@aos@shdfnd@2@W4GjkStatus@12@PEAVPersistentContact@12@T__m128@@4AEAUGjkOutput@12@AEAVPersistentContactManifold@12@@Z 00000001800f8c00 f   GuPCMContactGenBoxConvex.obj
 0001:000f7e00       ?buildPartialHull@Gu@physx@@YAXAEBUPolygonalData@12@PEAVSupportLocal@12@AEAVSeparatingAxes@12@AEBT__m128@@3@Z 00000001800f8e00 f   GuPCMContactGenBoxConvex.obj
 0001:000f80c0       ?computeMTD@Gu@physx@@YA_NAEAUPolygonalData@12@0PEAVSupportLocal@12@1AEAT__m128@@2@Z 00000001800f90c0 f   GuPCMContactGenBoxConvex.obj
 0001:000f8720       ?generateFullContactManifold@Gu@physx@@YA_NAEAUPolygonalData@12@0PEAVSupportLocal@12@1PEAVPersistentContact@12@AEAIAEBT__m128@@444MM_NPEAVRenderOutput@Cm@2@M@Z 00000001800f9720 f   GuPCMContactGenBoxConvex.obj
 0001:000f9f50       ?generatedContacts@Gu@physx@@YAXAEAUPolygonalData@12@0AEBUHullPolygonData@12@1PEAVSupportLocal@12@2AEBVPsMatTransformV@aos@shdfnd@2@PEAVPersistentContact@12@AEAIAEBT__m128@@PEAVRenderOutput@Cm@2@@Z 00000001800faf50 f   GuPCMContactGenBoxConvex.obj
 0001:000fb670       ?computeMTD@Gu@physx@@YA_NAEBVCapsuleV@12@AEAUPolygonalData@12@PEAVSupportLocal@12@AEAT__m128@@3@Z 00000001800fc670 f   GuPCMContactGenSphereCapsule.obj
 0001:000fb760       ?generateCapsuleBoxFullContactManifold@Gu@physx@@YA_NAEBVCapsuleV@12@AEAUPolygonalData@12@PEAVSupportLocal@12@AEBVPsMatTransformV@aos@shdfnd@2@PEAVPersistentContact@12@AEAIAEBT__m128@@AEAT__m128@@6M_NMPEAVRenderOutput@Cm@2@@Z 00000001800fc760 f   GuPCMContactGenSphereCapsule.obj
 0001:000fbfe0       ?generateFullContactManifold@Gu@physx@@YA_NAEBVCapsuleV@12@AEAUPolygonalData@12@PEAVSupportLocal@12@AEBVPsMatTransformV@aos@shdfnd@2@PEAVPersistentContact@12@AEAIAEBT__m128@@AEAT__m128@@6M_NM@Z 00000001800fcfe0 f   GuPCMContactGenSphereCapsule.obj
 0001:000fc8e0       ?generateSphereFullContactManifold@Gu@physx@@YA_NAEBVCapsuleV@12@AEAUPolygonalData@12@PEAVSupportLocal@12@PEAVPersistentContact@12@AEAIAEBT__m128@@AEAT7@_N@Z 00000001800fd8e0 f   GuPCMContactGenSphereCapsule.obj
 0001:000fcd30       ?generatedCapsuleBoxFaceContacts@Gu@physx@@YAXAEBVCapsuleV@12@AEAUPolygonalData@12@AEBUHullPolygonData@12@PEAVSupportLocal@12@AEBVPsMatTransformV@aos@shdfnd@2@PEAVPersistentContact@12@AEAIAEBT__m128@@7@Z 00000001800fdd30 f   GuPCMContactGenSphereCapsule.obj
 0001:000fd4d0       ?generatedContactsEEContacts@Gu@physx@@YAXAEBVCapsuleV@12@AEAUPolygonalData@12@AEBUHullPolygonData@12@PEAVSupportLocal@12@AEBVPsMatTransformV@aos@shdfnd@2@PEAVPersistentContact@12@AEAIAEBT__m128@@7@Z 00000001800fe4d0 f   GuPCMContactGenSphereCapsule.obj
 0001:000fe140       ?pcmContactPlaneBox@Gu@physx@@YA_NAEBVGeometryUnion@12@0AEBVPxTransform@2@1AEBUNarrowPhaseParams@12@AEAUCache@12@AEAVContactBuffer@12@PEAVRenderOutput@Cm@2@@Z 00000001800ff140 f   GuPCMContactPlaneBox.obj
 0001:000fecf0       ?pcmContactPlaneCapsule@Gu@physx@@YA_NAEBVGeometryUnion@12@0AEBVPxTransform@2@1AEBUNarrowPhaseParams@12@AEAUCache@12@AEAVContactBuffer@12@PEAVRenderOutput@Cm@2@@Z 00000001800ffcf0 f   GuPCMContactPlaneCapsule.obj
 0001:000ff490       ?pcmContactPlaneConvex@Gu@physx@@YA_NAEBVGeometryUnion@12@0AEBVPxTransform@2@1AEBUNarrowPhaseParams@12@AEAUCache@12@AEAVContactBuffer@12@PEAVRenderOutput@Cm@2@@Z 0000000180100490 f   GuPCMContactPlaneConvex.obj
 0001:000ffdf0       ?pcmContactSphereBox@Gu@physx@@YA_NAEBVGeometryUnion@12@0AEBVPxTransform@2@1AEBUNarrowPhaseParams@12@AEAUCache@12@AEAVContactBuffer@12@PEAVRenderOutput@Cm@2@@Z 0000000180100df0 f   GuPCMContactSphereBox.obj
 0001:00100260       ?pcmContactSphereCapsule@Gu@physx@@YA_NAEBVGeometryUnion@12@0AEBVPxTransform@2@1AEBUNarrowPhaseParams@12@AEAUCache@12@AEAVContactBuffer@12@PEAVRenderOutput@Cm@2@@Z 0000000180101260 f   GuPCMContactSphereCapsule.obj
 0001:001006c0       ?pcmContactSphereConvex@Gu@physx@@YA_NAEBVGeometryUnion@12@0AEBVPxTransform@2@1AEBUNarrowPhaseParams@12@AEAUCache@12@AEAVContactBuffer@12@PEAVRenderOutput@Cm@2@@Z 00000001801016c0 f   GuPCMContactSphereConvex.obj
 0001:001013a0       ??1PCMSphereVsHeightfieldContactGenerationCallback@physx@@UEAA@XZ 00000001801023a0 f i GuPCMContactSphereHeightField.obj
 0001:00101410       ??_EPCMSphereVsHeightfieldContactGenerationCallback@physx@@UEAAPEAXI@Z 0000000180102410 f i GuPCMContactSphereHeightField.obj
 0001:00101410       ??_GPCMSphereVsHeightfieldContactGenerationCallback@physx@@UEAAPEAXI@Z 0000000180102410 f i GuPCMContactSphereHeightField.obj
 0001:00101450       ?onEvent@?$PCMHeightfieldContactGenerationCallback@UPCMSphereVsHeightfieldContactGenerationCallback@physx@@@Gu@physx@@UEAA_NIPEAI@Z 0000000180102450 f i GuPCMContactSphereHeightField.obj
 0001:00101a10       ?pcmContactSphereHeightField@Gu@physx@@YA_NAEBVGeometryUnion@12@0AEBVPxTransform@2@1AEBUNarrowPhaseParams@12@AEAUCache@12@AEAVContactBuffer@12@PEAVRenderOutput@Cm@2@@Z 0000000180102a10 f   GuPCMContactSphereHeightField.obj
 0001:00102610       ??$processTriangleCache@$0BA@@PCMSphereVsMeshContactGenerationCallback@physx@@QEAAXAEAU?$TriangleCache@$0BA@@Gu@1@@Z 0000000180103610 f i GuPCMContactSphereMesh.obj
 0001:001026a0       ??1PCMSphereVsMeshContactGenerationCallback@physx@@UEAA@XZ 00000001801036a0 f i GuPCMContactSphereMesh.obj
 0001:00102710       ??_GPCMSphereVsMeshContactGenerationCallback@physx@@UEAAPEAXI@Z 0000000180103710 f i GuPCMContactSphereMesh.obj
 0001:00102710       ??_EPCMSphereVsMeshContactGenerationCallback@physx@@UEAAPEAXI@Z 0000000180103710 f i GuPCMContactSphereMesh.obj
 0001:00102750       ?pcmContactSphereMesh@Gu@physx@@YA_NAEBVGeometryUnion@12@0AEBVPxTransform@2@1AEBUNarrowPhaseParams@12@AEAUCache@12@AEAVContactBuffer@12@PEAVRenderOutput@Cm@2@@Z 0000000180103750 f   GuPCMContactSphereMesh.obj
 0001:001034a0       ?processHit@?$PCMMeshContactGenerationCallback@UPCMSphereVsMeshContactGenerationCallback@physx@@@Gu@physx@@UEAA_NAEBUPxRaycastHit@3@AEBVPxVec3@3@11AEAMPEBI@Z 00000001801044a0 f i GuPCMContactSphereMesh.obj
 0001:00103860       ?pcmContactSpherePlane@Gu@physx@@YA_NAEBVGeometryUnion@12@0AEBVPxTransform@2@1AEBUNarrowPhaseParams@12@AEAUCache@12@AEAVContactBuffer@12@PEAVRenderOutput@Cm@2@@Z 0000000180104860 f   GuPCMContactSpherePlane.obj
 0001:001039f0       ?pcmContactSphereSphere@Gu@physx@@YA_NAEBVGeometryUnion@12@0AEBVPxTransform@2@1AEBUNarrowPhaseParams@12@AEAUCache@12@AEAVContactBuffer@12@PEAVRenderOutput@Cm@2@@Z 00000001801049f0 f   GuPCMContactSphereSphere.obj
 0001:00103ad0       ?getPCMConvexData@Gu@physx@@YAXAEBVConvexHullV@12@_NAEAUPolygonalData@12@@Z 0000000180104ad0 f   GuPCMShapeConvex.obj
 0001:00103c30       ?getPCMConvexData@Gu@physx@@YA_NAEBVGeometryUnion@12@AEAVFastVertex2ShapeScaling@Cm@2@AEAVPxBounds3@2@AEAUPolygonalData@12@@Z 0000000180104c30 f   GuPCMShapeConvex.obj
 0001:00103ff0       ?getPolygonalData@PCMPolygonalBox@Gu@physx@@QEBAXPEIAUPolygonalData@23@@Z 0000000180104ff0 f   GuPCMShapeConvex.obj
 0001:00104040       ?generatePolyDataContactManifold@PCMConvexVsMeshContactGeneration@Gu@physx@@QEAA_NAEAVTriangleV@23@IIEPEAVMeshPersistentContact@23@AEAIAEBT__m128@@AEAT6@@Z 0000000180105040 f   GuPCMTriangleContactGen.obj
 0001:00104160       ?generateTriangleFullContactManifold@PCMConvexVsMeshContactGeneration@Gu@physx@@QEAA_NAEAVTriangleV@23@IPEBIEAEBUPolygonalData@23@PEAV?$SupportLocalImpl@VTriangleV@Gu@physx@@@23@PEAVSupportLocal@23@PEAVMeshPersistentContact@23@AEAIAEBT__m128@@AEAT9@@Z 0000000180105160 f   GuPCMTriangleContactGen.obj
 0001:00104a60       ?generateTriangleFullContactManifold@PCMConvexVsMeshContactGeneration@Gu@physx@@SA_NAEAVTriangleV@23@IEAEBUPolygonalData@23@PEAV?$SupportLocalImpl@VTriangleV@Gu@physx@@@23@PEAVSupportLocal@23@PEAVMeshPersistentContact@23@AEAIAEBT__m128@@AEAT9@PEAVRenderOutput@Cm@3@@Z 0000000180105a60 f   GuPCMTriangleContactGen.obj
 0001:00107180       ?addBatchManifoldContacts2@PersistentContactManifold@Gu@physx@@QEAAXPEBVPersistentContact@23@I@Z 0000000180108180 f   GuPersistentContactManifold.obj
 0001:001071f0       ?addBatchManifoldContacts@PersistentContactManifold@Gu@physx@@QEAAXPEBVPersistentContact@23@IM@Z 00000001801081f0 f   GuPersistentContactManifold.obj
 0001:00107270       ?addBatchManifoldContactsCluster@PersistentContactManifold@Gu@physx@@QEAAXPEBVPersistentContact@23@I@Z 0000000180108270 f   GuPersistentContactManifold.obj
 0001:001074f0       ?addManifoldContactPoints@MultiplePersistentContactManifold@Gu@physx@@QEAAXPEAVMeshPersistentContact@23@IPEAPEAUPCMContactPatch@23@IAEBT__m128@@2E@Z 00000001801084f0 f   GuPersistentContactManifold.obj
 0001:00107900       ?addManifoldContactsToContactBuffer@MultiplePersistentContactManifold@Gu@physx@@QEAA_NAEAVContactBuffer@23@AEBVPsTransformV@aos@shdfnd@3@1AEBT__m128@@@Z 0000000180108900 f   GuPersistentContactManifold.obj
 0001:00107bb0       ?addManifoldContactsToContactBuffer@MultiplePersistentContactManifold@Gu@physx@@QEAA_NAEAVContactBuffer@23@AEBVPsTransformV@aos@shdfnd@3@@Z 0000000180108bb0 f   GuPersistentContactManifold.obj
 0001:00107e20       ?addManifoldContactsToContactBuffer@PersistentContactManifold@Gu@physx@@QEAAXAEAVContactBuffer@23@AEBT__m128@@1AEBVPsTransformV@aos@shdfnd@3@11@Z 0000000180108e20 f   GuPersistentContactManifold.obj
 0001:00107fb0       ?addManifoldContactsToContactBuffer@PersistentContactManifold@Gu@physx@@QEAAXAEAVContactBuffer@23@AEBT__m128@@AEBVPsMatTransformV@aos@shdfnd@3@@Z 0000000180108fb0 f   GuPersistentContactManifold.obj
 0001:00108050       ?addManifoldContactsToContactBuffer@PersistentContactManifold@Gu@physx@@QEAAXAEAVContactBuffer@23@AEBT__m128@@AEBVPsTransformV@aos@shdfnd@3@1@Z 0000000180109050 f   GuPersistentContactManifold.obj
 0001:001081b0       ?addManifoldPoint2@PersistentContactManifold@Gu@physx@@QEAAIAEBT__m128@@000@Z 00000001801091b0 f   GuPersistentContactManifold.obj
 0001:001082e0       ?addManifoldPoint@Gu@physx@@YAXPEAVPersistentContact@12@AEAVPersistentContactManifold@12@AEAUGjkOutput@12@AEBVPsMatTransformV@aos@shdfnd@2@T__m128@@@Z 00000001801092e0 f   GuPersistentContactManifold.obj
 0001:00108490       ?addManifoldPoint@PersistentContactManifold@Gu@physx@@QEAAIAEBT__m128@@000@Z 0000000180109490 f   GuPersistentContactManifold.obj
 0001:001088e0       ?drawLine@MultiplePersistentContactManifold@Gu@physx@@SAXAEAVRenderOutput@Cm@3@AEBT__m128@@1I@Z 00000001801098e0 f   GuPersistentContactManifold.obj
 0001:001089a0       ?drawLine@MultiplePersistentContactManifold@Gu@physx@@SAXAEAVRenderOutput@Cm@3@VPxVec3@3@1I@Z 00000001801099a0 f   GuPersistentContactManifold.obj
 0001:00108a60       ?drawManifold@MultiplePersistentContactManifold@Gu@physx@@QEAAXAEAVRenderOutput@Cm@3@AEBVPsTransformV@aos@shdfnd@3@1@Z 0000000180109a60 f   GuPersistentContactManifold.obj
 0001:00109210       ?drawPoint@MultiplePersistentContactManifold@Gu@physx@@SAXAEAVRenderOutput@Cm@3@AEBT__m128@@MI@Z 000000018010a210 f   GuPersistentContactManifold.obj
 0001:001093f0       ?drawPolygon@MultiplePersistentContactManifold@Gu@physx@@SAXAEAVRenderOutput@Cm@3@AEBVPsTransformV@aos@shdfnd@3@PEAT__m128@@II@Z 000000018010a3f0 f   GuPersistentContactManifold.obj
 0001:00109660       ?findRotationMatrixFromZAxis@Gu@physx@@YA?AUMat33V@aos@shdfnd@2@AEBT__m128@@@Z 000000018010a660 f   GuPersistentContactManifold.obj
 0001:001098e0       ?fromBuffer@MultiplePersistentContactManifold@Gu@physx@@QEAAXPEIAE@Z 000000018010a8e0 f   GuPersistentContactManifold.obj
 0001:00109a30       ?reduceBatchContacts2@PersistentContactManifold@Gu@physx@@QEAAXPEBVPersistentContact@23@I@Z 000000018010aa30 f   GuPersistentContactManifold.obj
 0001:00109c30       ?reduceBatchContacts@PersistentContactManifold@Gu@physx@@QEAAXPEBVPersistentContact@23@IM@Z 000000018010ac30 f   GuPersistentContactManifold.obj
 0001:0010a0f0       ?reduceBatchContactsCapsule@SinglePersistentContactManifold@Gu@physx@@QEAA?AT__m128@@PEBVMeshPersistentContact@23@IAEAUPCMContactPatch@23@@Z 000000018010b0f0 f   GuPersistentContactManifold.obj
 0001:0010a380       ?reduceBatchContactsCluster@PersistentContactManifold@Gu@physx@@QEAAXPEBVPersistentContact@23@I@Z 000000018010b380 f   GuPersistentContactManifold.obj
 0001:0010a820       ?reduceBatchContactsConvex@SinglePersistentContactManifold@Gu@physx@@QEAA?AT__m128@@PEBVMeshPersistentContact@23@IAEAUPCMContactPatch@23@@Z 000000018010b820 f   GuPersistentContactManifold.obj
 0001:0010ae20       ?reduceContacts@SinglePersistentContactManifold@Gu@physx@@SAIPEAVMeshPersistentContact@23@I@Z 000000018010be20 f   GuPersistentContactManifold.obj
 0001:0010b330       ?reduceContactsForPCM@PersistentContactManifold@Gu@physx@@QEAAIAEBT__m128@@00@Z 000000018010c330 f   GuPersistentContactManifold.obj
 0001:0010b8d0       ?refreshContactPoints@SinglePersistentContactManifold@Gu@physx@@QEAA?AT__m128@@AEBVPsMatTransformV@aos@shdfnd@3@AEBT4@1@Z 000000018010c8d0 f   GuPersistentContactManifold.obj
 0001:0010ba20       ?replaceManifoldPoint@PersistentContactManifold@Gu@physx@@QEAA_NAEBT__m128@@000@Z 000000018010ca20 f   GuPersistentContactManifold.obj
 0001:0010baf0       ?sweepBoxBox@Gu@physx@@YA_NAEBVBox@12@0AEBVPxVec3@2@MV?$PxFlags@W4Enum@PxHitFlag@physx@@G@2@AEAUPxSweepHit@2@@Z 000000018010caf0 f   GuSweepBoxBox.obj
 0001:0010d0f0       ?sweepBoxSphere@Gu@physx@@YA_NAEBVBox@12@MAEBVPxVec3@2@1MAEAMAEAV42@V?$PxFlags@W4Enum@PxHitFlag@physx@@G@2@@Z 000000018010e0f0 f   GuSweepBoxSphere.obj
 0001:0010dd30       ?sweepBoxTriangle@Gu@physx@@YA_NAEBVPxTriangle@2@AEBVPxBounds3@2@AEBVPxVec3@2@2AEAV52@3AEAM_N@Z 000000018010ed30 f   GuSweepBoxTriangle_FeatureBased.obj
 0001:0010f3d0       ?triBoxSweepTestBoxSpace@Gu@physx@@YAHAEBVPxTriangle@2@AEBVPxVec3@2@11MAEAM_N@Z 00000001801103d0 f   GuSweepBoxTriangle_SAT.obj
 0001:00110ce0       ?sweepCapsuleBox@Gu@physx@@YA_NAEBVCapsule@12@AEBVPxTransform@2@AEBVPxVec3@2@2MAEAV52@AEAM3V?$PxFlags@W4Enum@PxHitFlag@physx@@G@2@@Z 0000000180111ce0 f   GuSweepCapsuleBox.obj
 0001:00111050       ?distancePointSegmentSquared@Gu@physx@@YAMAEBVSegment@12@AEBVPxVec3@2@PEAM@Z 0000000180112050 f i GuSweepCapsuleCapsule.obj
 0001:001113d0       ?sweepCapsuleCapsule@Gu@physx@@YA_NAEBVCapsule@12@0AEBVPxVec3@2@MAEAMAEAV42@3IAEAG@Z 00000001801123d0 f   GuSweepCapsuleCapsule.obj
 0001:001121a0       ?sweepCapsuleTriangles_Precise@Gu@physx@@YA_NIPEIBVPxTriangle@2@AEBVCapsule@12@AEBVPxVec3@2@MPEIBIAEAUPxSweepHit@2@AEAV52@V?$PxFlags@W4Enum@PxHitFlag@physx@@G@2@_NPEBVBoxPadded@12@@Z 00000001801131a0 f   GuSweepCapsuleTriangle.obj
 0001:00114230       ?sweepSphereCapsule@Gu@physx@@YA_NAEBVSphere@12@AEBVCapsule@12@AEBVPxVec3@2@MAEAMAEAV52@4V?$PxFlags@W4Enum@PxHitFlag@physx@@G@2@@Z 0000000180115230 f   GuSweepSphereCapsule.obj
 0001:001148d0       ?sweepSphereSphere@Gu@physx@@YA_NAEBVPxVec3@2@M0M0AEAMAEAV32@@Z 00000001801158d0 f   GuSweepSphereSphere.obj
 0001:00114b60       ?sweepSphereTriangles@Gu@physx@@YA_NIPEIBVPxTriangle@2@AEBVPxVec3@2@M1MPEIBIAEAUPxSweepHit@2@AEAV42@_N555@Z 0000000180115b60 f   GuSweepSphereTriangle.obj
 0001:00115410       ?sweepSphereVSQuad@Gu@physx@@YA_NPEIBVPxVec3@2@AEBV32@1M1AEAM@Z 0000000180116410 f   GuSweepSphereTriangle.obj
 0001:001168a0       ?sweepSphereVSTri@Gu@physx@@YA_NPEIBVPxVec3@2@AEBV32@1M1AEAMAEA_N_N@Z 00000001801178a0 f   GuSweepSphereTriangle.obj
 0001:00117790       ??$gjk@U?$LocalConvex@VTriangleV@Gu@physx@@@Gu@physx@@U?$LocalConvex@VBoxV@Gu@physx@@@23@@Gu@physx@@YA?AW4GjkStatus@01@AEBU?$LocalConvex@VTriangleV@Gu@physx@@@01@AEBU?$LocalConvex@VBoxV@Gu@physx@@@01@AEBT__m128@@2AEAT5@333@Z 0000000180118790 f i GuSweepTriangleUtils.obj
 0001:00118480       ?computeBoxTriImpactData@Gu@physx@@YAXAEAVPxVec3@2@0AEBV32@1AEBVPxTriangle@2@M@Z 0000000180119480 f   GuSweepTriangleUtils.obj
 0001:00118710       ?computeEdgeEdgeNormal@Gu@physx@@YAXAEAVPxVec3@2@AEBV32@1111M@Z 0000000180119710 f   GuSweepTriangleUtils.obj
 0001:001189d0       ?computeSphereTriImpactData@Gu@physx@@YAXAEAVPxVec3@2@0AEBV32@1MAEBVPxTriangle@2@@Z 00000001801199d0 f   GuSweepTriangleUtils.obj
 0001:00118eac       __imp_load_PxGetFoundation 0000000180119eac f   PhysXFoundation_64:PhysXFoundation_64.dll
 0001:00118eb8       __tailMerge_physxfoundation_64_dll 0000000180119eb8     PhysXFoundation_64:PhysXFoundation_64.dll
 0001:00118f31       __imp_load_?getAllocator@shdfnd@physx@@YAAEAVPxAllocatorCallback@2@XZ 0000000180119f31 f   PhysXFoundation_64:PhysXFoundation_64.dll
 0001:00118f3d       __imp_load_?getInstance@Foundation@shdfnd@physx@@SAAEAV123@XZ 0000000180119f3d f   PhysXFoundation_64:PhysXFoundation_64.dll
 0001:00118f49       __imp_load_?error@Foundation@shdfnd@physx@@QEAAXW4Enum@PxErrorCode@3@PEBDH1ZZ 0000000180119f49 f   PhysXFoundation_64:PhysXFoundation_64.dll
 0001:00118f55       __imp_load_??0NamedAllocator@shdfnd@physx@@QEAA@PEBD@Z 0000000180119f55 f   PhysXFoundation_64:PhysXFoundation_64.dll
 0001:00118f61       __imp_load_??1NamedAllocator@shdfnd@physx@@QEAA@XZ 0000000180119f61 f   PhysXFoundation_64:PhysXFoundation_64.dll
 0001:00118f6d       __imp_load_?allocate@NamedAllocator@shdfnd@physx@@QEAAPEAX_KPEBDH@Z 0000000180119f6d f   PhysXFoundation_64:PhysXFoundation_64.dll
 0001:00118f79       __imp_load_?deallocate@NamedAllocator@shdfnd@physx@@QEAAXPEAX@Z 0000000180119f79 f   PhysXFoundation_64:PhysXFoundation_64.dll
 0001:00118f85       __imp_load_?vsnprintf@shdfnd@physx@@YAHPEAD_KPEBD0@Z 0000000180119f85 f   PhysXFoundation_64:PhysXFoundation_64.dll
 0001:00118f91       __imp_load_??0NamedAllocator@shdfnd@physx@@QEAA@AEBV012@@Z 0000000180119f91 f   PhysXFoundation_64:PhysXFoundation_64.dll
 0001:00118f9d       __imp_load_??0MutexImpl@shdfnd@physx@@QEAA@XZ 0000000180119f9d f   PhysXFoundation_64:PhysXFoundation_64.dll
 0001:00118fa9       __imp_load_??1MutexImpl@shdfnd@physx@@QEAA@XZ 0000000180119fa9 f   PhysXFoundation_64:PhysXFoundation_64.dll
 0001:00118fb5       __imp_load_?lock@MutexImpl@shdfnd@physx@@QEAAXXZ 0000000180119fb5 f   PhysXFoundation_64:PhysXFoundation_64.dll
 0001:00118fc1       __imp_load_?unlock@MutexImpl@shdfnd@physx@@QEAAXXZ 0000000180119fc1 f   PhysXFoundation_64:PhysXFoundation_64.dll
 0001:00118fcd       __imp_load_?getSize@MutexImpl@shdfnd@physx@@SAIXZ 0000000180119fcd f   PhysXFoundation_64:PhysXFoundation_64.dll
 0001:00118fd9       __imp_load_?atomicDecrement@shdfnd@physx@@YAHPECH@Z 0000000180119fd9 f   PhysXFoundation_64:PhysXFoundation_64.dll
 0001:00118fe5       __imp_load_?PxTransformFromSegment@physx@@YA?AVPxTransform@1@AEBVPxVec3@1@0PEAM@Z 0000000180119fe5 f   PhysXFoundation_64:PhysXFoundation_64.dll
 0001:00118ff1       __imp_load_?optimizeBoundingBox@shdfnd@physx@@YA?AVPxVec3@2@AEAVPxMat33@2@@Z 0000000180119ff1 f   PhysXFoundation_64:PhysXFoundation_64.dll
 0001:00118ffd       __imp_load_?allocate@TempAllocator@shdfnd@physx@@QEAAPEAX_KPEBDH@Z 0000000180119ffd f   PhysXFoundation_64:PhysXFoundation_64.dll
 0001:00119009       __imp_load_?deallocate@TempAllocator@shdfnd@physx@@QEAAXPEAX@Z 000000018011a009 f   PhysXFoundation_64:PhysXFoundation_64.dll
 0001:00119015       __imp_load_?atomicIncrement@shdfnd@physx@@YAHPECH@Z 000000018011a015 f   PhysXFoundation_64:PhysXFoundation_64.dll
 0001:00119021       __imp_load_PxGetProfilerCallback 000000018011a021 f   PhysXFoundation_64:PhysXFoundation_64.dll
 0001:00119030       ?DloadAcquireSectionWriteAccess@@YAXXZ 000000018011a030 f i Delayimp:delayhlp.obj
 0001:001190dc       ?DloadGetSRWLockFunctionPointers@@YAEXZ 000000018011a0dc f i Delayimp:delayhlp.obj
 0001:00119178       ?DloadMakePermanentImageCommit@@YAXPEAX_K@Z 000000018011a178 f i Delayimp:delayhlp.obj
 0001:00119210       ?DloadObtainSection@@YAPEAXPEAK0@Z 000000018011a210 f i Delayimp:delayhlp.obj
 0001:001192ac       ?DloadProtectSection@@YAXKPEAK@Z 000000018011a2ac f i Delayimp:delayhlp.obj
 0001:0011933c       ?DloadReleaseSectionWriteAccess@@YAXXZ 000000018011a33c f i Delayimp:delayhlp.obj
 0001:001193d0       __delayLoadHelper2         000000018011a3d0 f   Delayimp:delayhlp.obj
 0001:001196a4       ??3@YAXPEAX_K@Z            000000018011a6a4 f   LIBCMT:delete_scalar_size.obj
 0001:001196a4       ??_V@YAXPEAX@Z             000000018011a6a4 f   LIBCMT:delete_array.obj
 0001:001196ac       ??_Gtype_info@@UEAAPEAXI@Z 000000018011a6ac f i LIBCMT:std_type_info_static.obj
 0001:001196ac       ??_Etype_info@@UEAAPEAXI@Z 000000018011a6ac f i LIBCMT:std_type_info_static.obj
 0001:001196d8       ?__scrt_initialize_type_info@@YAXXZ 000000018011a6d8 f   LIBCMT:tncleanup.obj
 0001:001196e8       ?__scrt_uninitialize_type_info@@YAXXZ 000000018011a6e8 f   LIBCMT:tncleanup.obj
 0001:00119710       _alloca_probe              000000018011a710 f   LIBCMT:chkstk.obj
 0001:00119710       __chkstk                   000000018011a710 f   LIBCMT:chkstk.obj
 0001:00119760       __vdecl_sinf4              000000018011a760 f   LIBCMT:svml_ssinf4_dispatch.obj
 0001:00119780       __libm_sse2_sincosf_       000000018011a780 f   LIBCMT:svml_ssinf4_dispatch.obj
 0001:001197c3       __libm_sse2_sincosf4_      000000018011a7c3 f   LIBCMT:svml_ssinf4_dispatch.obj
 0001:001197d0       ??3@YAXPEAX@Z              000000018011a7d0 f   LIBCMT:delete_scalar.obj
 0001:00119af8       _DllMainCRTStartup         000000018011aaf8 f   LIBCMT:dll_dllmain.obj
 0001:00119b38       __isa_available_init       000000018011ab38 f   LIBCMT:cpu_disp.obj
 0001:00119ce0       __sse2_sinf4@@16           000000018011ace0 f   LIBCMT:svml_ssinf4_sse2.obj
 0001:0011a620       __sse4_sinf4@@16           000000018011b620 f   LIBCMT:svml_ssinf4_sse4.obj
 0001:0011ad94       __security_init_cookie     000000018011bd94 f   LIBCMT:gs_support.obj
 0001:0011ae40       __local_stdio_printf_options 000000018011be40 f i LIBCMT:default_local_stdio_options.obj
 0001:0011ae48       __local_stdio_scanf_options 000000018011be48 f i LIBCMT:default_local_stdio_options.obj
 0001:0011ae50       __scrt_initialize_default_local_stdio_options 000000018011be50 f   LIBCMT:default_local_stdio_options.obj
 0001:0011ae6c       __scrt_acquire_startup_lock 000000018011be6c f   LIBCMT:utility.obj
 0001:0011aea8       __scrt_dllmain_after_initialize_c 000000018011bea8 f   LIBCMT:utility.obj
 0001:0011aedc       __scrt_dllmain_before_initialize_c 000000018011bedc f   LIBCMT:utility.obj
 0001:0011aef4       __scrt_dllmain_crt_thread_attach 000000018011bef4 f   LIBCMT:utility.obj
 0001:0011af1c       __scrt_dllmain_crt_thread_detach 000000018011bf1c f   LIBCMT:utility.obj
 0001:0011af34       __scrt_dllmain_exception_filter 000000018011bf34 f   LIBCMT:utility.obj
 0001:0011af94       __scrt_dllmain_uninitialize_c 000000018011bf94 f   LIBCMT:utility.obj
 0001:0011afc4       __scrt_dllmain_uninitialize_critical 000000018011bfc4 f   LIBCMT:utility.obj
 0001:0011afd8       __scrt_initialize_crt      000000018011bfd8 f   LIBCMT:utility.obj
 0001:0011b024       __scrt_initialize_onexit_tables 000000018011c024 f   LIBCMT:utility.obj
 0001:0011b0b0       __scrt_is_nonwritable_in_current_image 000000018011c0b0 f   LIBCMT:utility.obj
 0001:0011b148       __scrt_release_startup_lock 000000018011c148 f   LIBCMT:utility.obj
 0001:0011b16c       __scrt_uninitialize_crt    000000018011c16c f   LIBCMT:utility.obj
 0001:0011b198       __scrt_get_dyn_tls_init_callback 000000018011c198 f   LIBCMT:dyn_tls_init.obj
 0001:0011b1a0       __crt_debugger_hook        000000018011c1a0 f   LIBCMT:utility_desktop.obj
 0001:0011b1a8       __scrt_fastfail            000000018011c1a8 f   LIBCMT:utility_desktop.obj
 0001:0011b2f4       _RTC_Initialize            000000018011c2f4 f   LIBCMT:initsect.obj
 0001:0011b330       _RTC_Terminate             000000018011c330 f   LIBCMT:initsect.obj
 0001:0011b370       __common_ssin_cout_rare    000000018011c370 f   LIBCMT:svml_s_sin_cout.obj
 0001:0011b3e0       __scrt_is_ucrt_dll_in_use  000000018011c3e0 f   LIBCMT:ucrt_detection.obj
 0001:0011b3ec       _get_purecall_handler      000000018011c3ec f   libvcruntime:purevirt.obj
 0001:0011b3f8       _purecall                  000000018011c3f8 f   libvcruntime:purevirt.obj
 0001:0011b41c       __std_type_info_compare    000000018011c41c f   libvcruntime:std_type_info.obj
 0001:0011b444       __std_type_info_destroy_list 000000018011c444 f   libvcruntime:std_type_info.obj
 0001:0011b470       __std_type_info_name       000000018011c470 f   libvcruntime:std_type_info.obj
 0001:0011b5a0       memcpy_repmovs             000000018011c5a0 f   libvcruntime:memcpy.obj
 0001:0011b5c0       memmove                    000000018011c5c0 f   libvcruntime:memcpy.obj
 0001:0011b5c0       memcpy                     000000018011c5c0 f   libvcruntime:memcpy.obj
 0001:0011bc50       memset_repmovs             000000018011cc50 f   libvcruntime:memset.obj
 0001:0011bc70       memset                     000000018011cc70 f   libvcruntime:memset.obj
 0001:0011be00       strstr                     000000018011ce00 f   libvcruntime:strstr.obj
 0001:0011bffc       __C_specific_handler       000000018011cffc f   libvcruntime:riscchandler.obj
 0001:0011c208       __vcrt_initialize          000000018011d208 f   libvcruntime:initialization.obj
 0001:0011c230       __vcrt_thread_attach       000000018011d230 f   libvcruntime:initialization.obj
 0001:0011c244       __vcrt_thread_detach       000000018011d244 f   libvcruntime:initialization.obj
 0001:0011c258       __vcrt_uninitialize        000000018011d258 f   libvcruntime:initialization.obj
 0001:0011c274       __vcrt_uninitialize_critical 000000018011d274 f   libvcruntime:initialization.obj
 0001:0011c284       __DestructExceptionObject  000000018011d284 f   libvcruntime:ehhelpers.obj
 0001:0011c2f4       ?_CallMemberFunction0@@YAXQEAX0@Z 000000018011d2f4 f i libvcruntime:ehhelpers.obj
 0001:0011c2f8       _IsExceptionObjectToBeDestroyed 000000018011d2f8 f   libvcruntime:ehhelpers.obj
 0001:0011c328       __AdjustPointer            000000018011d328 f   libvcruntime:ehhelpers.obj
 0001:0011c34c       __FrameUnwindFilter        000000018011d34c f   libvcruntime:ehhelpers.obj
 0001:0011c3b4       ??$?0$00@DName@@QEAA@PEBDU?$StringLifeSelector@$00@@@Z 000000018011d3b4 f i libvcruntime:undname.obj
 0001:0011c3f4       ??$?0$01@DName@@QEAA@PEBDU?$StringLifeSelector@$01@@@Z 000000018011d3f4 f i libvcruntime:undname.obj
 0001:0011c3f4       ??$?0$0A@@DName@@QEAA@PEBDU?$StringLifeSelector@$0A@@@@Z 000000018011d3f4 f i libvcruntime:undname.obj
 0001:0011c434       ??$?0$0A@@pcharNode@@QEAA@PEBDHU?$StringLifeSelector@$0A@@@@Z 000000018011d434 f i libvcruntime:undname.obj
 0001:0011c434       ??$?0$01@pcharNode@@QEAA@PEBDHU?$StringLifeSelector@$01@@@Z 000000018011d434 f i libvcruntime:undname.obj
 0001:0011c4a8       ??$append@VcharNode@@@DName@@AEAAXPEBVcharNode@@@Z 000000018011d4a8 f i libvcruntime:undname.obj
 0001:0011c4a8       ??$append@VDNameNode@@@DName@@AEAAXPEBVDNameNode@@@Z 000000018011d4a8 f i libvcruntime:undname.obj
 0001:0011c4a8       ??$append@VDNameStatusNode@@@DName@@AEAAXPEBVDNameStatusNode@@@Z 000000018011d4a8 f i libvcruntime:undname.obj
 0001:0011c4a8       ??$append@VpcharNode@@@DName@@AEAAXPEBVpcharNode@@@Z 000000018011d4a8 f i libvcruntime:undname.obj
 0001:0011c50c       ??$doPchar@$00@DName@@AEAAXPEBDH@Z 000000018011d50c f i libvcruntime:undname.obj
 0001:0011c5b0       ??$doPchar@$0A@@DName@@AEAAXPEBDH@Z 000000018011d5b0 f i libvcruntime:undname.obj
 0001:0011c5b0       ??$doPchar@$01@DName@@AEAAXPEBDH@Z 000000018011d5b0 f i libvcruntime:undname.obj
 0001:0011c648       ??0DName@@QEAA@AEAPEBDD@Z  000000018011d648 f   libvcruntime:undname.obj
 0001:0011c6f8       ??0DName@@QEAA@AEBUStringLiteral@@@Z 000000018011d6f8 f   libvcruntime:undname.obj
 0001:0011c724       ??0DName@@QEAA@PEAV0@@Z    000000018011d724 f   libvcruntime:undname.obj
 0001:0011c7a8       ??0DName@@QEAA@_J@Z        000000018011d7a8 f   libvcruntime:undname.obj
 0001:0011c850       ??0DName@@QEAA@_K@Z        000000018011d850 f   libvcruntime:undname.obj
 0001:0011c8e0       ??2@YAPEAX_KAEAV_HeapManager@@H@Z 000000018011d8e0 f   libvcruntime:undname.obj
 0001:0011c90c       ??AReplicator@@QEBA?AVDName@@H@Z 000000018011d90c f   libvcruntime:undname.obj
 0001:0011c94c       ??HDName@@QEBA?AV0@AEBUStringLiteral@@@Z 000000018011d94c f   libvcruntime:undname.obj
 0001:0011c978       ??HDName@@QEBA?AV0@AEBV0@@Z 000000018011d978 f   libvcruntime:undname.obj
 0001:0011c9a4       ??HDName@@QEBA?AV0@D@Z     000000018011d9a4 f   libvcruntime:undname.obj
 0001:0011c9d0       ??HDName@@QEBA?AV0@W4DNameStatus@@@Z 000000018011d9d0 f   libvcruntime:undname.obj
 0001:0011c9fc       ??YDName@@QEAAAEAV0@AEBUStringLiteral@@@Z 000000018011d9fc f   libvcruntime:undname.obj
 0001:0011ca7c       ??YDName@@QEAAAEAV0@AEBV0@@Z 000000018011da7c f   libvcruntime:undname.obj
 0001:0011cb30       ??YDName@@QEAAAEAV0@D@Z    000000018011db30 f   libvcruntime:undname.obj
 0001:0011cb9c       ??YDName@@QEAAAEAV0@W4DNameStatus@@@Z 000000018011db9c f   libvcruntime:undname.obj
 0001:0011cc08       ??YReplicator@@QEAAAEAV0@AEBVDName@@@Z 000000018011dc08 f   libvcruntime:undname.obj
 0001:0011cc60       ?UScore@UnDecorator@@SA?AUStringLiteral@@W4Tokens@@@Z 000000018011dc60 f   libvcruntime:undname.obj
 0001:0011ccac       ?composeDeclaration@UnDecorator@@CA?AVDName@@AEBV2@@Z 000000018011dcac f i libvcruntime:undname.obj
 0001:0011db54       ?doPchar@DName@@AEAAXD@Z   000000018011eb54 f   libvcruntime:undname.obj
 0001:0011dba4       ?getAddressOf@UnDecorator@@CA?AVDName@@XZ 000000018011eba4 f   libvcruntime:undname.obj
 0001:0011dc34       ?getArgumentList@UnDecorator@@CA?AVDName@@XZ 000000018011ec34 f   libvcruntime:undname.obj
 0001:0011ddc8       ?getArgumentTypes@UnDecorator@@CA?AVDName@@XZ 000000018011edc8 f   libvcruntime:undname.obj
 0001:0011df24       ?getArrayAccess@UnDecorator@@CA?AVDName@@XZ 000000018011ef24 f   libvcruntime:undname.obj
 0001:0011dfc0       ?getArrayObject@UnDecorator@@CA?AVDName@@XZ 000000018011efc0 f   libvcruntime:undname.obj
 0001:0011e088       ?getArrayType@UnDecorator@@CA?AVDName@@AEBV2@@Z 000000018011f088 f i libvcruntime:undname.obj
 0001:0011e2d0       ?getBasedType@UnDecorator@@CA?AVDName@@XZ 000000018011f2d0 f   libvcruntime:undname.obj
 0001:0011e3c8       ?getBasicDataType@UnDecorator@@CA?AVDName@@AEBV2@@Z 000000018011f3c8 f   libvcruntime:undname.obj
 0001:0011e978       ?getCallingConvention@UnDecorator@@CA?AVDName@@XZ 000000018011f978 f   libvcruntime:undname.obj
 0001:0011eab8       ?getDataIndirectType@UnDecorator@@CA?AVDName@@AEBV2@W4IndirectionKind@@0H@Z 000000018011fab8 f   libvcruntime:undname.obj
 0001:0011f350       ?getDataType@UnDecorator@@CA?AVDName@@PEAV2@@Z 0000000180120350 f   libvcruntime:undname.obj
 0001:0011f464       ?getDecoratedName@UnDecorator@@CA?AVDName@@XZ 0000000180120464 f   libvcruntime:undname.obj
 0001:0011f748       ?getDimension@UnDecorator@@CA?AVDName@@_N@Z 0000000180120748 f   libvcruntime:undname.obj
 0001:0011f894       ?getDispatchTarget@UnDecorator@@CA?AVDName@@XZ 0000000180120894 f   libvcruntime:undname.obj
 0001:0011f8e0       ?getECSUDataType@UnDecorator@@CA?AVDName@@XZ 00000001801208e0 f   libvcruntime:undname.obj
 0001:0011fac0       ?getEnumType@UnDecorator@@CA?AVDName@@XZ 0000000180120ac0 f i libvcruntime:undname.obj
 0001:0011fbf0       ?getExtendedDataIndirectType@UnDecorator@@CA?AVDName@@AEAW4IndirectionKind@@AEA_NH@Z 0000000180120bf0 f   libvcruntime:undname.obj
 0001:0011fdf8       ?getExternalDataType@UnDecorator@@CA?AVDName@@AEBV2@@Z 0000000180120df8 f i libvcruntime:undname.obj
 0001:0011feb8       ?getFloatingPoint@UnDecorator@@CA?AVDName@@H@Z 0000000180120eb8 f   libvcruntime:undname.obj
 0001:0011ffe0       ?getFunctionIndirectType@UnDecorator@@CA?AVDName@@AEBV2@@Z 0000000180120fe0 f   libvcruntime:undname.obj
 0001:00120518       ?getLastChar@DNameStatusNode@@UEBADXZ 0000000180121518 f i libvcruntime:undname.obj
 0001:00120524       ?getLastChar@charNode@@UEBADXZ 0000000180121524 f i libvcruntime:undname.obj
 0001:00120528       ?getLastChar@pDNameNode@@UEBADXZ 0000000180121528 f i libvcruntime:undname.obj
 0001:00120554       ?getLastChar@pairNode@@UEBADXZ 0000000180121554 f i libvcruntime:undname.obj
 0001:0012058c       ?getLastChar@pcharNode@@UEBADXZ 000000018012158c f i libvcruntime:undname.obj
 0001:001205a0       ?getLexicalFrame@UnDecorator@@CA?AVDName@@XZ 00000001801215a0 f i libvcruntime:undname.obj
 0001:00120604       ?getMemberAccess@UnDecorator@@CA?AVDName@@XZ 0000000180121604 f   libvcruntime:undname.obj
 0001:00120698       ?getMemoryWithBuffer@_HeapManager@@QEAAPEAX_K@Z 0000000180121698 f   libvcruntime:undname.obj
 0001:00120728       ?getNoexcept@UnDecorator@@CA?AVDName@@XZ 0000000180121728 f   libvcruntime:undname.obj
 0001:0012078c       ?getNumberOfDimensions@UnDecorator@@CAHXZ 000000018012178c f   libvcruntime:undname.obj
 0001:00120800       ?getOperatorName@UnDecorator@@CA?AVDName@@_NPEA_N@Z 0000000180121800 f i libvcruntime:undname.obj
 0001:001211f4       ?getPointerToMember@UnDecorator@@CA?AVDName@@XZ 00000001801221f4 f   libvcruntime:undname.obj
 0001:001212ec       ?getPrimaryDataType@UnDecorator@@CA?AVDName@@AEBV2@@Z 00000001801222ec f   libvcruntime:undname.obj
 0001:001215a0       ?getPtrRefDataType@UnDecorator@@CA?AVDName@@AEBV2@H@Z 00000001801225a0 f   libvcruntime:undname.obj
 0001:0012176c       ?getPtrRefType@UnDecorator@@CA?AVDName@@AEBV2@0W4IndirectionKind@@@Z 000000018012276c f   libvcruntime:undname.obj
 0001:00121944       ?getRestrictionSpec@UnDecorator@@CA?AVDName@@XZ 0000000180122944 f   libvcruntime:undname.obj
 0001:00121b10       ?getReturnType@UnDecorator@@CA?AVDName@@PEAV2@@Z 0000000180122b10 f   libvcruntime:undname.obj
 0001:00121b44       ?getScope@UnDecorator@@CA?AVDName@@XZ 0000000180122b44 f   libvcruntime:undname.obj
 0001:00121ff8       ?getScopedName@UnDecorator@@CA?AVDName@@XZ 0000000180122ff8 f   libvcruntime:undname.obj
 0001:00122134       ?getSignedDimension@UnDecorator@@CA?AVDName@@XZ 0000000180123134 f   libvcruntime:undname.obj
 0001:001221bc       ?getString@DNameStatusNode@@UEBAPEADPEAD0@Z 00000001801231bc f i libvcruntime:undname.obj
 0001:00122204       ?getString@charNode@@UEBAPEADPEAD0@Z 0000000180123204 f i libvcruntime:undname.obj
 0001:00122218       ?getString@pDNameNode@@UEBAPEADPEAD0@Z 0000000180123218 f i libvcruntime:undname.obj
 0001:00122248       ?getString@pairNode@@UEBAPEADPEAD0@Z 0000000180123248 f i libvcruntime:undname.obj
 0001:00122294       ?getString@pcharNode@@UEBAPEADPEAD0@Z 0000000180123294 f i libvcruntime:undname.obj
 0001:001222cc       ?getStringEncoding@UnDecorator@@CA?AVDName@@W4PrefixKind@@H@Z 00000001801232cc f   libvcruntime:undname.obj
 0001:001223b0       ?getStringObject@UnDecorator@@CA?AVDName@@XZ 00000001801233b0 f   libvcruntime:undname.obj
 0001:00122418       ?getSymbolName@UnDecorator@@CA?AVDName@@XZ 0000000180123418 f i libvcruntime:undname.obj
 0001:00122464       ?getTemplateArgumentList@UnDecorator@@CA?AVDName@@XZ 0000000180123464 f   libvcruntime:undname.obj
 0001:001226d8       ?getTemplateName@UnDecorator@@CA?AVDName@@_N@Z 00000001801236d8 f   libvcruntime:undname.obj
 0001:0012296c       ?getTemplateNonTypeArgument@UnDecorator@@CA?AVDName@@XZ 000000018012396c f   libvcruntime:undname.obj
 0001:00122ea0       ?getTemplateTypeArgument@UnDecorator@@CA?AVDName@@XZ 0000000180123ea0 f   libvcruntime:undname.obj
 0001:00123008       ?getThrowTypes@UnDecorator@@CA?AVDName@@XZ 0000000180124008 f   libvcruntime:undname.obj
 0001:0012302c       ?getTypeEncoding@UnDecorator@@CAHXZ 000000018012402c f i libvcruntime:undname.obj
 0001:001233bc       ?getUndecoratedName@UnDecorator@@QEAAPEADPEADH@Z 00000001801243bc f i libvcruntime:undname.obj
 0001:00123510       ?getUnionObject@UnDecorator@@CA?AVDName@@XZ 0000000180124510 f   libvcruntime:undname.obj
 0001:001235e8       ?getVCallThunkType@UnDecorator@@CA?AVDName@@XZ 00000001801245e8 f i libvcruntime:undname.obj
 0001:00123660       ?getValue@UnDecorator@@CA?AV?$optional@_K@std@@XZ 0000000180124660 f   libvcruntime:undname.obj
 0001:001236d4       ?getValueObject@UnDecorator@@CA?AVDName@@XZ 00000001801246d4 f   libvcruntime:undname.obj
 0001:0012382c       ?getVdispMapType@UnDecorator@@CA?AVDName@@AEBV2@@Z 000000018012482c f i libvcruntime:undname.obj
 0001:001238a8       ?getVfTableType@UnDecorator@@CA?AVDName@@AEBV2@@Z 00000001801248a8 f i libvcruntime:undname.obj
 0001:00123ab0       ?getZName@UnDecorator@@CA?AVDName@@_N0@Z 0000000180124ab0 f   libvcruntime:undname.obj
 0001:00123d98       ?length@DNameStatusNode@@UEBAHXZ 0000000180124d98 f i libvcruntime:undname.obj
 0001:00123d98       ?raw_length@DNameStatusNode@@UEBAHXZ 0000000180124d98 f i libvcruntime:undname.obj
 0001:00123d9c       ?length@pDNameNode@@UEBAHXZ 0000000180124d9c f i libvcruntime:undname.obj
 0001:00123dc4       ?length@pairNode@@UEBAHXZ  0000000180124dc4 f i libvcruntime:undname.obj
 0001:00123e0c       ?parseDecoratedName@UnDecorator@@CA?AVDName@@XZ 0000000180124e0c f   libvcruntime:undname.obj
 0001:00123f20       ?raw_length@pDNameNode@@UEBAHXZ 0000000180124f20 f i libvcruntime:undname.obj
 0001:00123f24       __unDName                  0000000180124f24 f   libvcruntime:undname.obj
 0001:00123f4c       __unDNameEx                0000000180124f4c f   libvcruntime:undname.obj
 0001:00124080       sprintf_s                  0000000180125080 f i libvcruntime:undname.obj
 0001:001240f0       _NLG_Notify                00000001801250f0 f   libvcruntime:notify.obj
 0001:00124110       __NLG_Dispatch2            0000000180125110 f   libvcruntime:notify.obj
 0001:00124120       __NLG_Return2              0000000180125120 f   libvcruntime:notify.obj
 0001:00124124       __except_validate_context_record 0000000180125124 f   libvcruntime:jbcxrval.obj
 0001:0012415c       __vcrt_freefls             000000018012515c f   libvcruntime:per_thread_data.obj
 0001:0012417c       __vcrt_freeptd             000000018012517c f   libvcruntime:per_thread_data.obj
 0001:001241cc       __vcrt_getptd              00000001801251cc f   libvcruntime:per_thread_data.obj
 0001:001241e8       __vcrt_getptd_noexit       00000001801251e8 f   libvcruntime:per_thread_data.obj
 0001:001242a8       __vcrt_initialize_ptd      00000001801252a8 f   libvcruntime:per_thread_data.obj
 0001:001242f0       __vcrt_uninitialize_ptd    00000001801252f0 f   libvcruntime:per_thread_data.obj
 0001:00124314       __vcrt_initialize_locks    0000000180125314 f   libvcruntime:locks.obj
 0001:00124348       __vcrt_lock                0000000180125348 f   libvcruntime:locks.obj
 0001:00124364       __vcrt_uninitialize_locks  0000000180125364 f   libvcruntime:locks.obj
 0001:0012439c       __vcrt_unlock              000000018012539c f   libvcruntime:locks.obj
 0001:001243b8       ??$_CallSETranslator@V__FrameHandler4@@@@YAHPEAUEHExceptionRecord@@PEA_KPEAU_CONTEXT@@PEAU_xDISPATCHER_CONTEXT@@PEAUFuncInfo4@FH4@@K1H@Z 00000001801253b8 f i libvcruntime:risctrnsctrl.obj
 0001:0012440c       ?DecompFuncInfo@FH4@@YA_JPEAEAEAUFuncInfo4@1@_KH_N@Z 000000018012540c f i libvcruntime:risctrnsctrl.obj
 0001:00124530       ?ExecutionInCatch@__FrameHandler4@@SA_NPEAU_xDISPATCHER_CONTEXT@@PEAUFuncInfo4@FH4@@@Z 0000000180125530 f   libvcruntime:risctrnsctrl.obj
 0001:00124538       ?FrameUnwindToEmptyState@__FrameHandler4@@SAXPEA_KPEAU_xDISPATCHER_CONTEXT@@PEAUFuncInfo4@FH4@@@Z 0000000180125538 f   libvcruntime:risctrnsctrl.obj
 0001:0012456c       ?GetEstablisherFrame@__FrameHandler4@@SAPEA_KPEA_KPEAU_xDISPATCHER_CONTEXT@@PEAUFuncInfo4@FH4@@0@Z 000000018012556c f   libvcruntime:risctrnsctrl.obj
 0001:00124590       ?GetRangeOfTrysToCheck@__FrameHandler4@@SA?AU?$pair@Viterator@TryBlockMap4@FH4@@V123@@std@@AEAVTryBlockMap4@FH4@@HPEAU_xDISPATCHER_CONTEXT@@PEAUFuncInfo4@5@H@Z 0000000180125590 f   libvcruntime:risctrnsctrl.obj
 0001:001246f8       ?UnwindNestedFrames@__FrameHandler4@@SAXPEA_KPEAUEHExceptionRecord@@PEAU_CONTEXT@@0PEAXPEAUFuncInfo4@FH4@@HHPEAUHandlerType4@5@PEAU_xDISPATCHER_CONTEXT@@E@Z 00000001801256f8 f   libvcruntime:risctrnsctrl.obj
 0001:00124818       ?setBuffer@TryBlockMap4@FH4@@QEAAXViterator@12@@Z 0000000180125818 f i libvcruntime:risctrnsctrl.obj
 0001:001249d8       _CreateFrameInfo           00000001801259d8 f   libvcruntime:risctrnsctrl.obj
 0001:00124a14       _FindAndUnlinkFrame        0000000180125a14 f   libvcruntime:risctrnsctrl.obj
 0001:00124a68       _GetImageBase              0000000180125a68 f   libvcruntime:risctrnsctrl.obj
 0001:00124a7c       _GetThrowImageBase         0000000180125a7c f   libvcruntime:risctrnsctrl.obj
 0001:00124a90       _SetImageBase              0000000180125a90 f   libvcruntime:risctrnsctrl.obj
 0001:00124aa8       _SetThrowImageBase         0000000180125aa8 f   libvcruntime:risctrnsctrl.obj
 0001:00124ac0       __CxxFrameHandler4         0000000180125ac0 f   libvcruntime:risctrnsctrl.obj
 0001:00124cd0       __vcrt_FlsAlloc            0000000180125cd0 f   libvcruntime:winapi_downlevel.obj
 0001:00124d18       __vcrt_FlsFree             0000000180125d18 f   libvcruntime:winapi_downlevel.obj
 0001:00124d60       __vcrt_FlsGetValue         0000000180125d60 f   libvcruntime:winapi_downlevel.obj
 0001:00124da8       __vcrt_FlsSetValue         0000000180125da8 f   libvcruntime:winapi_downlevel.obj
 0001:00124dfc       __vcrt_InitializeCriticalSectionEx 0000000180125dfc f   libvcruntime:winapi_downlevel.obj
 0001:00124e60       ?StateFromControlPc@__FrameHandler4@@SAHPEAUFuncInfo4@FH4@@PEAU_xDISPATCHER_CONTEXT@@@Z 0000000180125e60 f   libvcruntime:ehstate.obj
 0001:00124e68       ?StateFromIp@__FrameHandler4@@SAHPEAUFuncInfo4@FH4@@PEAU_xDISPATCHER_CONTEXT@@_K@Z 0000000180125e68 f   libvcruntime:ehstate.obj
 0001:00125ad8       ??$TypeMatchHelper@V__FrameHandler3@@@@YAHPEBU_s_HandlerType@@PEBU_s_CatchableType@@PEBU_s_ThrowInfo@@@Z 0000000180126ad8 f i libvcruntime:frame.obj
 0001:00125c18       ??$TypeMatchHelper@V__FrameHandler4@@@@YAHPEAUHandlerType4@FH4@@PEBU_s_CatchableType@@PEBU_s_ThrowInfo@@@Z 0000000180126c18 f i libvcruntime:frame.obj
 0001:00125d5c       ??$__InternalCxxFrameHandler@V__FrameHandler4@@@@YA?AW4_EXCEPTION_DISPOSITION@@PEAUEHExceptionRecord@@PEA_KPEAU_CONTEXT@@PEAU_xDISPATCHER_CONTEXT@@PEAUFuncInfo4@FH4@@H1E@Z 0000000180126d5c f i libvcruntime:frame.obj
 0001:00125ff0       ??0HandlerMap4@FH4@@QEAA@PEBUTryBlockMapEntry4@1@_KH@Z 0000000180126ff0 f i libvcruntime:frame.obj
 0001:0012606c       ??0TryBlockMap4@FH4@@QEAA@PEBUFuncInfo4@1@_K@Z 000000018012706c f i libvcruntime:frame.obj
 0001:00126144       ??0bad_exception@std@@QEAA@AEBV01@@Z 0000000180127144 f i libvcruntime:frame.obj
 0001:00126180       ??0bad_exception@std@@QEAA@XZ 0000000180127180 f i libvcruntime:frame.obj
 0001:001261a0       ??0exception@std@@QEAA@AEBV01@@Z 00000001801271a0 f i libvcruntime:frame.obj
 0001:001261d4       ??1bad_exception@std@@UEAA@XZ 00000001801271d4 f i libvcruntime:frame.obj
 0001:001261e8       ??_Gbad_exception@std@@UEAAPEAXI@Z 00000001801271e8 f i libvcruntime:frame.obj
 0001:001261e8       ??_Eexception@std@@UEAAPEAXI@Z 00000001801271e8 f i libvcruntime:frame.obj
 0001:001261e8       ??_Ebad_exception@std@@UEAAPEAXI@Z 00000001801271e8 f i libvcruntime:frame.obj
 0001:001261e8       ??_Gexception@std@@UEAAPEAXI@Z 00000001801271e8 f i libvcruntime:frame.obj
 0001:0012622c       ?CxxCallCatchBlock@__FrameHandler4@@SAPEAXPEAU_EXCEPTION_RECORD@@@Z 000000018012722c f   libvcruntime:frame.obj
 0001:0012647c       ?DecompHandler@HandlerMap4@FH4@@AEAAXXZ 000000018012747c f i libvcruntime:frame.obj
 0001:001266bc       ?FrameUnwindToState@__FrameHandler4@@SAXPEA_KPEAU_xDISPATCHER_CONTEXT@@PEAUFuncInfo4@FH4@@H@Z 00000001801276bc f   libvcruntime:frame.obj
 0001:00126b1c       ?ReadEntry@UWMap4@FH4@@AEAAXPEAPEAE@Z 0000000180127b1c f i libvcruntime:frame.obj
 0001:00126bbc       ?_CallMemberFunction1@@YAXQEAX00@Z 0000000180127bbc f i libvcruntime:frame.obj
 0001:00126bc8       ?_CallMemberFunction2@@YAXQEAX00H@Z 0000000180127bc8 f i libvcruntime:frame.obj
 0001:00126bd8       ?getStartStop@UWMap4@FH4@@QEAAXHHAEAViterator@12@0@Z 0000000180127bd8 f i libvcruntime:frame.obj
 0001:00126ca8       ?getStateFromIterators@UWMap4@FH4@@SAHAEBViterator@12@H0H0@Z 0000000180127ca8 f i libvcruntime:frame.obj
 0001:00126d70       ?what@exception@std@@UEBAPEBDXZ 0000000180127d70 f i libvcruntime:frame.obj
 0001:00126da0       _CallSettingFrame          0000000180127da0 f   libvcruntime:handlers.obj
 0001:00126df0       _CallSettingFrame_LookupContinuationIndex 0000000180127df0 f   libvcruntime:handlers.obj
 0001:00126e20       _CallSettingFrame_NotifyContinuationAddr 0000000180127e20 f   libvcruntime:handlers.obj
 0001:00126e50       _CallSettingFrameEncoded   0000000180127e50 f   libvcruntime:handlers.obj
 0001:00126e98       __std_exception_copy       0000000180127e98 f   libvcruntime:std_exception.obj
 0001:00126f28       __std_exception_destroy    0000000180127f28 f   libvcruntime:std_exception.obj
 0001:00126f50       _CxxThrowException         0000000180127f50 f   libvcruntime:throw.obj
 0001:00126ff0       cosf                       0000000180127ff0 f   libucrt:cosf.obj
 0001:001274f0       sinf                       00000001801284f0 f   libucrt:sinf.obj
 0001:00127bf0       tanf                       0000000180128bf0 f   libucrt:tanf.obj
 0001:00128280       strcmp                     0000000180129280 f   libucrt:strcmp.obj
 0001:001282e8       _fpclass                   00000001801292e8 f   libucrt:ieeemisc.obj
 0001:00128370       acosf                      0000000180129370 f   libucrt:acosf.obj
 0001:0012859c       free                       000000018012959c f   libucrt:free.obj
 0001:001285b0       _initterm                  00000001801295b0 f   libucrt:initterm.obj
 0001:00128614       _initterm_e                0000000180129614 f   libucrt:initterm.obj
 0001:00128654       _seh_filter_dll            0000000180129654 f   libucrt:exception_filter.obj
 0001:00128668       _seh_filter_exe            0000000180129668 f   libucrt:exception_filter.obj
 0001:00128a58       __acrt_initialize_thread_local_exit_callback 0000000180129a58 f   libucrt:exit.obj
 0001:00128a60       _cexit                     0000000180129a60 f   libucrt:exit.obj
 0001:00128a70       _exit                      0000000180129a70 f   libucrt:exit.obj
 0001:00128a7c       _is_c_termination_complete 0000000180129a7c f   libucrt:exit.obj
 0001:00128c44       __acrt_allocate_buffer_for_argv 0000000180129c44 f   libucrt:argv_parsing.obj
 0001:00128ca4       _configure_narrow_argv     0000000180129ca4 f   libucrt:argv_parsing.obj
 0001:0012901c       __dcrt_uninitialize_environments_nolock 000000018012a01c f   libucrt:environment_initialization.obj
 0001:00129054       _initialize_narrow_environment 000000018012a054 f   libucrt:environment_initialization.obj
 0001:001291b0       _execute_onexit_table      000000018012a1b0 f   libucrt:onexit.obj
 0001:001291ec       _initialize_onexit_table   000000018012a1ec f   libucrt:onexit.obj
 0001:0012924c       __acrt_uninitialize_command_line 000000018012a24c f   libucrt:argv_data.obj
 0001:00129344       __acrt_initialize          000000018012a344 f   libucrt:initialization.obj
 0001:00129358       __acrt_thread_attach       000000018012a358 f   libucrt:initialization.obj
 0001:0012936c       __acrt_thread_detach       000000018012a36c f   libucrt:initialization.obj
 0001:0012937c       __acrt_uninitialize        000000018012a37c f   libucrt:initialization.obj
 0001:001293b4       __acrt_uninitialize_critical 000000018012a3b4 f   libucrt:initialization.obj
 0001:001293c4       terminate                  000000018012a3c4 f   libucrt:terminate.obj
 0001:001293e4       abort                      000000018012a3e4 f   libucrt:abort.obj
 0001:0012943c       malloc                     000000018012a43c f   libucrt:malloc.obj
 0001:00129444       strcpy_s                   000000018012a444 f   libucrt:strcpy_s.obj
 0001:00129670       ??$ensure_buffer_is_big_enough@D@formatting_buffer@__crt_stdio_output@@QEAA_N_K@Z 000000018012a670 f i libucrt:output.obj
 0001:00129718       ??$type_case_integer_parse_into_buffer@I@?$output_processor@DV?$string_output_adapter@D@__crt_stdio_output@@V?$format_validation_base@DV?$string_output_adapter@D@__crt_stdio_output@@@2@@__crt_stdio_output@@AEAAXII_N@Z 000000018012a718 f i libucrt:output.obj
 0001:001297a0       ??$type_case_integer_parse_into_buffer@_K@?$output_processor@DV?$string_output_adapter@D@__crt_stdio_output@@V?$format_validation_base@DV?$string_output_adapter@D@__crt_stdio_output@@@2@@__crt_stdio_output@@AEAAX_KI_N@Z 000000018012a7a0 f i libucrt:output.obj
 0001:00129830       ??$write_multiple_characters@V?$string_output_adapter@D@__crt_stdio_output@@D@__crt_stdio_output@@YAXAEBV?$string_output_adapter@D@0@DHQEAH@Z 000000018012a830 f i libucrt:output.obj
 0001:001298a8       ??0_LocaleUpdate@@QEAA@QEAU__crt_locale_pointers@@@Z 000000018012a8a8 f i libucrt:output.obj
 0001:00129950       ?crop_zeroes@__crt_stdio_output@@YAXPEADQEAU__crt_locale_pointers@@@Z 000000018012a950 f i libucrt:output.obj
 0001:001299f0       ?force_decimal_point@__crt_stdio_output@@YAXPEADQEAU__crt_locale_pointers@@@Z 000000018012a9f0 f i libucrt:output.obj
 0001:00129a68       ?parse_int_from_format_string@?$output_processor@DV?$string_output_adapter@D@__crt_stdio_output@@V?$format_validation_base@DV?$string_output_adapter@D@__crt_stdio_output@@@2@@__crt_stdio_output@@AEAA_NQEAH@Z 000000018012aa68 f i libucrt:output.obj
 0001:00129b0c       ?process@?$output_processor@DV?$string_output_adapter@D@__crt_stdio_output@@V?$format_validation_base@DV?$string_output_adapter@D@__crt_stdio_output@@@2@@__crt_stdio_output@@QEAAHXZ 000000018012ab0c f i libucrt:output.obj
 0001:00129d20       ?state_case_normal@?$output_processor@DV?$string_output_adapter@D@__crt_stdio_output@@V?$format_validation_base@DV?$string_output_adapter@D@__crt_stdio_output@@@2@@__crt_stdio_output@@AEAA_NXZ 000000018012ad20 f i libucrt:output.obj
 0001:00129d94       ?state_case_normal_tchar@?$output_processor@DV?$string_output_adapter@D@__crt_stdio_output@@V?$format_validation_base@DV?$string_output_adapter@D@__crt_stdio_output@@@2@@__crt_stdio_output@@AEAA_ND@Z 000000018012ad94 f i libucrt:output.obj
 0001:00129e3c       ?state_case_size@?$output_processor@DV?$string_output_adapter@D@__crt_stdio_output@@V?$format_validation_base@DV?$string_output_adapter@D@__crt_stdio_output@@@2@@__crt_stdio_output@@AEAA_NXZ 000000018012ae3c f i libucrt:output.obj
 0001:00129fac       ?state_case_type@?$output_processor@DV?$string_output_adapter@D@__crt_stdio_output@@V?$format_validation_base@DV?$string_output_adapter@D@__crt_stdio_output@@@2@@__crt_stdio_output@@AEAA_NXZ 000000018012afac f i libucrt:output.obj
 0001:0012a220       ?to_integer_size@__crt_stdio_output@@YA_KW4length_modifier@1@@Z 000000018012b220 f i libucrt:output.obj
 0001:0012a288       ?type_case_Z@?$output_processor@DV?$string_output_adapter@D@__crt_stdio_output@@V?$format_validation_base@DV?$string_output_adapter@D@__crt_stdio_output@@@2@@__crt_stdio_output@@AEAA_NXZ 000000018012b288 f i libucrt:output.obj
 0001:0012a2fc       ?type_case_a@?$output_processor@DV?$string_output_adapter@D@__crt_stdio_output@@V?$format_validation_base@DV?$string_output_adapter@D@__crt_stdio_output@@@2@@__crt_stdio_output@@AEAA_NXZ 000000018012b2fc f i libucrt:output.obj
 0001:0012a4b8       ?type_case_c_tchar@?$output_processor@DV?$string_output_adapter@D@__crt_stdio_output@@V?$format_validation_base@DV?$string_output_adapter@D@__crt_stdio_output@@@2@@__crt_stdio_output@@AEAA_ND@Z 000000018012b4b8 f i libucrt:output.obj
 0001:0012a580       ?type_case_integer@?$output_processor@DV?$string_output_adapter@D@__crt_stdio_output@@V?$format_validation_base@DV?$string_output_adapter@D@__crt_stdio_output@@@2@@__crt_stdio_output@@AEAA_NI_N@Z 000000018012b580 f i libucrt:output.obj
 0001:0012a700       ?type_case_n@?$output_processor@DV?$string_output_adapter@D@__crt_stdio_output@@V?$format_validation_base@DV?$string_output_adapter@D@__crt_stdio_output@@@2@@__crt_stdio_output@@AEAA_NXZ 000000018012b700 f i libucrt:output.obj
 0001:0012a788       ?type_case_s@?$output_processor@DV?$string_output_adapter@D@__crt_stdio_output@@V?$format_validation_base@DV?$string_output_adapter@D@__crt_stdio_output@@@2@@__crt_stdio_output@@AEAA_NXZ 000000018012b788 f i libucrt:output.obj
 0001:0012a820       ?write_stored_string_tchar@?$output_processor@DV?$string_output_adapter@D@__crt_stdio_output@@V?$format_validation_base@DV?$string_output_adapter@D@__crt_stdio_output@@@2@@__crt_stdio_output@@AEAA_ND@Z 000000018012b820 f i libucrt:output.obj
 0001:0012a8fc       ?write_string@?$string_output_adapter@D@__crt_stdio_output@@QEBAXQEBDHQEAHAEAV__crt_deferred_errno_cache@@@Z 000000018012b8fc f i libucrt:output.obj
 0001:0012a9a0       __stdio_common_vsprintf_s  000000018012b9a0 f   libucrt:output.obj
 0001:0012aa04       ??$parse_integer@KV?$c_string_character_source@D@__crt_strtox@@@__crt_strtox@@YAKQEAU__crt_locale_pointers@@V?$c_string_character_source@D@0@H_N@Z 000000018012ba04 f i libucrt:atox.obj
 0001:0012ad08       _ischartype_l              000000018012bd08 f i libucrt:atox.obj
 0001:0012ad80       atol                       000000018012bd80 f   libucrt:atox.obj
 0001:0012adc0       strncmp                    000000018012bdc0 f   libucrt:strncmp.obj
 0001:0012ae40       calloc                     000000018012be40 f   libucrt:calloc.obj
 0001:0012ae48       wcsncmp                    000000018012be48 f   libucrt:wcsncmp.obj
 0001:0012ae80       __remainder_piby2d2f_forAsm 000000018012be80 f   libucrt:remainder_piby2f_forasm.obj
 0001:0012afd0       __remainder_piby2_fma3     000000018012bfd0 f   libucrt:remainder_piby2_forfma3.obj
 0001:0012b1c0       __remainder_piby2_fma3_bdl 000000018012c1c0 f   libucrt:remainder_piby2_forfma3.obj
 0001:0012b238       _cosf_special              000000018012c238 f   libucrt:sincos_special.obj
 0001:0012b2d8       _sinf_special              000000018012c2d8 f   libucrt:sincos_special.obj
 0001:0012b2ec       _tanf_special              000000018012c2ec f   libucrt:sincos_special.obj
 0001:0012b300       _clrfp                     000000018012c300 f   libucrt:fpctrl.obj
 0001:0012b320       _ctrlfp                    000000018012c320 f   libucrt:fpctrl.obj
 0001:0012b39c       _set_statfp                000000018012c39c f   libucrt:fpctrl.obj
 0001:0012b3bc       _statfp                    000000018012c3bc f   libucrt:fpctrl.obj
 0001:0012b3d0       __acrt_initialize_fma3     000000018012c3d0 f   libucrt:fma3_available.obj
 0001:0012b440       __remainder_piby2d2f_forC  000000018012c440 f   libucrt:remainder_piby2f_forc.obj
 0001:0012b6f0       _handle_error              000000018012c6f0 f   libucrt:libm_error.obj
 0001:0012b818       _handle_errorf             000000018012c818 f   libucrt:libm_error.obj
 0001:0012b94c       _handle_nan                000000018012c94c f   libucrt:libm_error.obj
 0001:0012b968       _handle_nanf               000000018012c968 f   libucrt:libm_error.obj
 0001:0012b978       _free_base                 000000018012c978 f   libucrt:free_base.obj
 0001:0012bd30       __acrt_freeptd             000000018012cd30 f   libucrt:per_thread_data.obj
 0001:0012bd74       __acrt_getptd              000000018012cd74 f   libucrt:per_thread_data.obj
 0001:0012be48       __acrt_getptd_head         000000018012ce48 f   libucrt:per_thread_data.obj
 0001:0012bef0       __acrt_getptd_noexit       000000018012cef0 f   libucrt:per_thread_data.obj
 0001:0012bfbc       __acrt_initialize_ptd      000000018012cfbc f   libucrt:per_thread_data.obj
 0001:0012bff8       __acrt_uninitialize_ptd    000000018012cff8 f   libucrt:per_thread_data.obj
 0001:0012c01c       __acrt_initialize_locks    000000018012d01c f   libucrt:locks.obj
 0001:0012c064       __acrt_lock                000000018012d064 f   libucrt:locks.obj
 0001:0012c080       __acrt_uninitialize_locks  000000018012d080 f   libucrt:locks.obj
 0001:0012c0b8       __acrt_unlock              000000018012d0b8 f   libucrt:locks.obj
 0001:0012c0d4       __acrt_get_process_end_policy 000000018012d0d4 f   libucrt:win_policies.obj
 0001:0012c110       __acrt_call_reportfault    000000018012d110 f   libucrt:invalid_parameter.obj
 0001:0012c26c       __acrt_initialize_invalid_parameter_handler 000000018012d26c f   libucrt:invalid_parameter.obj
 0001:0012c274       _invalid_parameter         000000018012d274 f   libucrt:invalid_parameter.obj
 0001:0012c324       _invalid_parameter_noinfo  000000018012d324 f   libucrt:invalid_parameter.obj
 0001:0012c344       _invoke_watson             000000018012d344 f   libucrt:invalid_parameter.obj
 0001:0012c38c       __acrt_errno_from_os_error 000000018012d38c f   libucrt:errno.obj
 0001:0012c3d4       __acrt_errno_map_os_error  000000018012d3d4 f   libucrt:errno.obj
 0001:0012c424       __doserrno                 000000018012d424 f   libucrt:errno.obj
 0001:0012c444       _errno                     000000018012d444 f   libucrt:errno.obj
 0001:0012c464       _calloc_base               000000018012d464 f   libucrt:calloc_base.obj
 0001:0012c4f0       ??$__acrt_mbs_to_wcs_cp@U__crt_win32_buffer_internal_dynamic_resizing@@@@YAHQEBDAEAV?$__crt_win32_buffer@_WU__crt_win32_buffer_internal_dynamic_resizing@@@@I@Z 000000018012d4f0 f i libucrt:argv_wildcards.obj
 0001:0012c668       ??$__acrt_wcs_to_mbs_cp@U__crt_win32_buffer_internal_dynamic_resizing@@@@YAHQEB_WAEAV?$__crt_win32_buffer@DU__crt_win32_buffer_internal_dynamic_resizing@@@@I@Z 000000018012d668 f i libucrt:argv_wildcards.obj
 0001:0012ce98       __acrt_expand_narrow_argv_wildcards 000000018012de98 f   libucrt:argv_wildcards.obj
 0001:0012cea0       ??$__acrt_wcs_to_mbs_cp@U__crt_win32_buffer_no_resizing@@@@YAHQEB_WAEAV?$__crt_win32_buffer@DU__crt_win32_buffer_no_resizing@@@@I@Z 000000018012dea0 f i libucrt:getmodulefilenamea.obj
 0001:0012cfb4       __acrt_GetModuleFileNameA  000000018012dfb4 f   libucrt:getmodulefilenamea.obj
 0001:0012d7fc       __acrt_initialize_multibyte 000000018012e7fc f   libucrt:mbctype.obj
 0001:0012d85c       __acrt_update_thread_multibyte_data 000000018012e85c f   libucrt:mbctype.obj
 0001:0012d878       _setmbcp_nolock            000000018012e878 f   libucrt:mbctype.obj
 0001:0012dbac       _ismbblead                 000000018012ebac f   libucrt:ismbbyte.obj
 0001:0012dbc0       __acrt_initialize_command_line 000000018012ebc0 f   libucrt:argv_data.obj
 0001:0012dbe8       __acrt_MultiByteToWideChar 000000018012ebe8 f   libucrt:multibytetowidechar.obj
 0001:0012dc44       __acrt_WideCharToMultiByte 000000018012ec44 f   libucrt:widechartomultibyte.obj
 0001:0012dcf4       __dcrt_get_narrow_environment_from_os 000000018012ecf4 f   libucrt:get_environment_from_os.obj
 0001:0012ddf8       _recalloc_base             000000018012edf8 f   libucrt:recalloc.obj
 0001:0012e068       __acrt_AppPolicyGetProcessTerminationMethodInternal 000000018012f068 f   libucrt:winapi_thunks.obj
 0001:0012e0b8       __acrt_AreFileApisANSI     000000018012f0b8 f   libucrt:winapi_thunks.obj
 0001:0012e0f4       __acrt_FlsAlloc            000000018012f0f4 f   libucrt:winapi_thunks.obj
 0001:0012e13c       __acrt_FlsFree             000000018012f13c f   libucrt:winapi_thunks.obj
 0001:0012e184       __acrt_FlsGetValue         000000018012f184 f   libucrt:winapi_thunks.obj
 0001:0012e1cc       __acrt_FlsSetValue         000000018012f1cc f   libucrt:winapi_thunks.obj
 0001:0012e220       __acrt_InitializeCriticalSectionEx 000000018012f220 f   libucrt:winapi_thunks.obj
 0001:0012e284       __acrt_LCMapStringEx       000000018012f284 f   libucrt:winapi_thunks.obj
 0001:0012e360       __acrt_LocaleNameToLCID    000000018012f360 f   libucrt:winapi_thunks.obj
 0001:0012e3b0       __acrt_initialize_winapi_thunks 000000018012f3b0 f   libucrt:winapi_thunks.obj
 0001:0012e3e4       __acrt_uninitialize_winapi_thunks 000000018012f3e4 f   libucrt:winapi_thunks.obj
 0001:0012e428       __acrt_initialize_heap     000000018012f428 f   libucrt:heap_handle.obj
 0001:0012e444       __acrt_uninitialize_heap   000000018012f444 f   libucrt:heap_handle.obj
 0001:0012e64c       __acrt_initialize_lowio    000000018012f64c f   libucrt:ioinit.obj
 0001:0012e688       __acrt_uninitialize_lowio  000000018012f688 f   libucrt:ioinit.obj
 0001:0012e6c8       __acrt_execute_initializers 000000018012f6c8 f   libucrt:shared_initialization.obj
 0001:0012e748       __acrt_execute_uninitializers 000000018012f748 f   libucrt:shared_initialization.obj
 0001:0012e784       __acrt_initialize_new_handler 000000018012f784 f   libucrt:new_handler.obj
 0001:0012e78c       _callnewh                  000000018012f78c f   libucrt:new_handler.obj
 0001:0012e7bc       _query_new_handler         000000018012f7bc f   libucrt:new_handler.obj
 0001:0012e838       __acrt_get_sigabrt_handler 000000018012f838 f   libucrt:signal.obj
 0001:0012e868       __acrt_initialize_signal_handlers 000000018012f868 f   libucrt:signal.obj
 0001:0012e888       raise                      000000018012f888 f   libucrt:signal.obj
 0001:0012eaf4       __acrt_has_user_matherr    000000018012faf4 f   libucrt:matherr.obj
 0001:0012eb14       __acrt_initialize_user_matherr 000000018012fb14 f   libucrt:matherr.obj
 0001:0012eb1c       __acrt_invoke_user_matherr 000000018012fb1c f   libucrt:matherr.obj
 0001:0012ed28       __acrt_stdio_flush_nolock  000000018012fd28 f   libucrt:fflush.obj
 0001:0012eda4       _fflush_nolock             000000018012fda4 f   libucrt:fflush.obj
 0001:0012edf0       _flushall                  000000018012fdf0 f   libucrt:fflush.obj
 0001:0012edf8       __acrt_initialize_stdio    000000018012fdf8 f   libucrt:_file.obj
 0001:0012ef18       __acrt_uninitialize_stdio  000000018012ff18 f   libucrt:_file.obj
 0001:0012ef74       _lock_file                 000000018012ff74 f   libucrt:_file.obj
 0001:0012ef80       _unlock_file               000000018012ff80 f   libucrt:_file.obj
 0001:0012ef8c       _malloc_base               000000018012ff8c f   libucrt:malloc_base.obj
 0001:0012efec       strtol                     000000018012ffec f   libucrt:strtox.obj
 0001:0012f018       _mbtowc_l                  0000000180130018 f   libucrt:mbtowc.obj
 0001:0012f198       mbtowc                     0000000180130198 f   libucrt:mbtowc.obj
 0001:0012f1a0       _wctomb_s_l                00000001801301a0 f   libucrt:wctomb.obj
 0001:0012f33c       strnlen                    000000018013033c f   libucrt:strnlen.obj
 0001:0012f48c       wcsnlen                    000000018013048c f   libucrt:strnlen.obj
 0001:0012f664       __acrt_update_locale_info  0000000180130664 f   libucrt:locale_update.obj
 0001:0012f698       __acrt_update_multibyte_info 0000000180130698 f   libucrt:locale_update.obj
 0001:001300d8       __acrt_fp_format           00000001801310d8 f   libucrt:cvt.obj
 0001:00130410       _fileno                    0000000180131410 f   libucrt:fileno.obj
 0001:00130438       _get_printf_count_output   0000000180131438 f   libucrt:printf_count_output.obj
 0001:001304c0       __acrt_set_locale_changed  00000001801314c0 f   libucrt:wsetlocale.obj
 0001:001304cc       __acrt_uninitialize_locale 00000001801314cc f   libucrt:wsetlocale.obj
 0001:001304fc       __pctype_func              00000001801314fc f   libucrt:ctype.obj
 0001:0013052c       _isctype_l                 000000018013152c f   libucrt:isctype.obj
 0001:00130650       _get_fpsr                  0000000180131650 f   libucrt:fpsr.obj
 0001:00130660       _set_fpsr                  0000000180131660 f   libucrt:fpsr.obj
 0001:0013066a       _fclrf                     000000018013166a f   libucrt:fpsr.obj
 0001:0013067e       _frnd                      000000018013167e f   libucrt:fpsr.obj
 0001:001306a0       _raise_exc                 00000001801316a0 f   libucrt:fpexcept.obj
 0001:001306c8       _raise_exc_ex              00000001801316c8 f   libucrt:fpexcept.obj
 0001:001309d8       _raise_excf                00000001801319d8 f   libucrt:fpexcept.obj
 0001:00130a04       _set_errno_from_matherr    0000000180131a04 f   libucrt:fpexcept.obj
 0001:00130a34       __acrt_add_locale_ref      0000000180131a34 f   libucrt:locale_refcounting.obj
 0001:00130ac0       __acrt_free_locale         0000000180131ac0 f   libucrt:locale_refcounting.obj
 0001:00130c38       __acrt_locale_add_lc_time_reference 0000000180131c38 f   libucrt:locale_refcounting.obj
 0001:00130c60       __acrt_locale_free_lc_time_if_unreferenced 0000000180131c60 f   libucrt:locale_refcounting.obj
 0001:00130c98       __acrt_locale_release_lc_time_reference 0000000180131c98 f   libucrt:locale_refcounting.obj
 0001:00130cc0       __acrt_release_locale_ref  0000000180131cc0 f   libucrt:locale_refcounting.obj
 0001:00130d68       __acrt_update_thread_locale_data 0000000180131d68 f   libucrt:locale_refcounting.obj
 0001:00130dd8       _updatetlocinfoEx_nolock   0000000180131dd8 f   libucrt:locale_refcounting.obj
 0001:00130e40       _query_new_mode            0000000180131e40 f   libucrt:new_mode.obj
 0001:00130e50       qsort                      0000000180131e50 f   libucrt:qsort.obj
 0001:001311f0       strncpy_s                  00000001801321f0 f   libucrt:strncpy_s.obj
 0001:00131370       strpbrk                    0000000180132370 f   libucrt:strpbrk.obj
 0001:00131738       _mbsdec                    0000000180132738 f   libucrt:mbsdec.obj
 0001:00131740       _mbsdec_l                  0000000180132740 f   libucrt:mbsdec.obj
 0001:001317d4       __acrt_GetStringTypeA      00000001801327d4 f   libucrt:getstringtypea.obj
 0001:00131c7c       __acrt_LCMapStringA        0000000180132c7c f   libucrt:lcmapstringa.obj
 0001:00131d2c       _msize_base                0000000180132d2c f   libucrt:msize.obj
 0001:00131d68       _realloc_base              0000000180132d68 f   libucrt:realloc_base.obj
 0001:00131de4       __acrt_DownlevelLocaleNameToLCID 0000000180132de4 f   libucrt:lcidtoname_downlevel.obj
 0001:00131e94       __acrt_lowio_create_handle_array 0000000180132e94 f   libucrt:osfinfo.obj
 0001:00131f3c       __acrt_lowio_destroy_handle_array 0000000180132f3c f   libucrt:osfinfo.obj
 0001:00131f8c       __acrt_lowio_ensure_fh_exists 0000000180132f8c f   libucrt:osfinfo.obj
 0001:00132034       __acrt_lowio_lock_fh       0000000180133034 f   libucrt:osfinfo.obj
 0001:0013205c       __acrt_lowio_unlock_fh     000000018013305c f   libucrt:osfinfo.obj
 0001:00132084       _free_osfhnd               0000000180133084 f   libucrt:osfinfo.obj
 0001:00132140       _get_osfhandle             0000000180133140 f   libucrt:osfinfo.obj
 0001:00132244       _commit                    0000000180133244 f   libucrt:commit.obj
 0001:00132b54       _write                     0000000180133b54 f   libucrt:write.obj
 0001:00132c40       _write_nolock              0000000180133c40 f   libucrt:write.obj
 0001:00132f24       _fcloseall                 0000000180133f24 f   libucrt:closeall.obj
 0001:00132fd8       __acrt_stdio_free_buffer_nolock 0000000180133fd8 f   libucrt:_freebuf.obj
 0001:00133018       _isatty                    0000000180134018 f   libucrt:isatty.obj
 0001:00133078       _isleadbyte_l              0000000180134078 f i libucrt:_wctype.obj
 0001:001330c4       ?__mbrtowc_utf8@__crt_mbstring@@YA_KPEA_WPEBD_KPEAU_Mbstatet@@@Z 00000001801340c4 f   libucrt:mbrtowc.obj
 0001:00133100       ?__mbsrtowcs_utf8@__crt_mbstring@@YA_KPEA_WPEAPEBD_KPEAU_Mbstatet@@@Z 0000000180134100 f   libucrt:mbrtowc.obj
 0001:00133278       ?__c32rtomb_utf8@__crt_mbstring@@YA_KPEAD_UPEAU_Mbstatet@@@Z 0000000180134278 f   libucrt:c32rtomb.obj
 0001:0013332c       __acrt_fp_strflt_to_string 000000018013432c f   libucrt:_fptostr.obj
 0001:00133490       ?divide@__crt_strtox@@YA_KAEAUbig_integer@1@AEBU21@@Z 0000000180134490 f i libucrt:cfout.obj
 0001:001338bc       __acrt_fltout              00000001801348bc f   libucrt:cfout.obj
 0001:00134b88       fegetround                 0000000180135b88 f   libucrt:fegetround.obj
 0001:00134b9c       __acrt_locale_free_monetary 0000000180135b9c f   libucrt:initmon.obj
 0001:00134ca8       __acrt_locale_free_numeric 0000000180135ca8 f   libucrt:initnum.obj
 0001:00134d6c       __acrt_locale_free_time    0000000180135d6c f   libucrt:inittime.obj
 0001:00134e74       __strncnt                  0000000180135e74 f   libucrt:strncnt.obj
 0001:00134e8c       __ascii_wcsnicmp           0000000180135e8c f   libucrt:wcsnicmp.obj
 0001:00134ed8       _query_app_type            0000000180135ed8 f   libucrt:report_runtime_error.obj
 0001:00134f7c       _lseeki64_nolock           0000000180135f7c f   libucrt:lseek.obj
 0001:00134f84       _putwch_nolock             0000000180135f84 f   libucrt:putwch.obj
 0001:00134fc0       _fclose_nolock             0000000180135fc0 f   libucrt:fclose.obj
 0001:00135044       fclose                     0000000180136044 f   libucrt:fclose.obj
 0001:001350a8       ?__mbrtoc32_utf8@__crt_mbstring@@YA_KPEA_UPEBD_KPEAU_Mbstatet@@@Z 00000001801360a8 f   libucrt:mbrtoc32.obj
 0001:00135280       _controlfp_s               0000000180136280 f   libucrt:contrlfp.obj
 0001:001352e4       fegetenv                   00000001801362e4 f   libucrt:fegetenv.obj
 0001:00135304       fesetenv                   0000000180136304 f   libucrt:fesetenv.obj
 0001:00135350       feholdexcept               0000000180136350 f   libucrt:feholdexcept.obj
 0001:001353a0       ceil                       00000001801363a0 f   libucrt:ceil.obj
 0001:00135470       log10                      0000000180136470 f   libucrt:log10.obj
 0001:00135a1c       __acrt_fenv_get_common_round_control 0000000180136a1c f   libucrt:_fenvutils.obj
 0001:00135a28       __acrt_fenv_get_control    0000000180136a28 f   libucrt:_fenvutils.obj
 0001:00135b1c       __acrt_fenv_get_status     0000000180136b1c f   libucrt:_fenvutils.obj
 0001:00135b70       __acrt_fenv_set_control    0000000180136b70 f   libucrt:_fenvutils.obj
 0001:00135cb8       __acrt_fenv_set_status     0000000180136cb8 f   libucrt:_fenvutils.obj
 0001:00135d3c       __dcrt_lowio_ensure_console_output_initialized 0000000180136d3c f   libucrt:initcon.obj
 0001:00135d90       __dcrt_terminate_console_output 0000000180136d90 f   libucrt:initcon.obj
 0001:00135dac       __dcrt_write_console       0000000180136dac f   libucrt:initcon.obj
 0001:00135ee0       _close                     0000000180136ee0 f   libucrt:close.obj
 0001:00135f84       _close_nolock              0000000180136f84 f   libucrt:close.obj
 0001:00136044       ?__acrt_stdio_free_stream@@YAXV__crt_stdio_stream@@@Z 0000000180137044 f   libucrt:stream.obj
 0001:00136060       _clearfp                   0000000180137060 f   libucrt:ieee.obj
 0001:001360d0       _control87                 00000001801370d0 f   libucrt:ieee.obj
 0001:001363a0       _log10_special             00000001801373a0 f   libucrt:log_special.obj
 0001:00136460       _FindPESection             0000000180137460 f   LIBCMT:pesect.obj
 0001:001364b0       _IsNonwritableInCurrentImage 00000001801374b0 f   LIBCMT:pesect.obj
 0001:00136500       _ValidateImageBase         0000000180137500 f   LIBCMT:pesect.obj
 0001:00136530       __GSHandlerCheck           0000000180137530 f   LIBCMT:gshandler.obj
 0001:00136550       __GSHandlerCheckCommon     0000000180137550 f   LIBCMT:gshandler.obj
 0001:001365c0       __security_check_cookie    00000001801375c0 f   LIBCMT:amdsecgs.obj
 0001:001365e0       __GSHandlerCheck_SEH       00000001801375e0 f   LIBCMT:gshandlerseh.obj
 0001:00136668       __raise_securityfailure    0000000180137668 f   LIBCMT:gs_report.obj
 0001:0013669c       __report_gsfailure         000000018013769c f   LIBCMT:gs_report.obj
 0001:00136770       __report_rangecheckfailure 0000000180137770 f   LIBCMT:gs_report.obj
 0001:00136784       __report_securityfailure   0000000180137784 f   LIBCMT:gs_report.obj
 0001:00136904       strrchr                    0000000180137904 f   libvcruntime:strrchr.obj
 0001:00136a40       memcmp                     0000000180137a40 f   libvcruntime:memcmp.obj
 0001:00136b20       _guard_dispatch_icall_nop  0000000180137b20 f   LIBCMT:guard_dispatch.obj
 0001:00136b40       _guard_xfg_dispatch_icall_nop 0000000180137b40 f   LIBCMT:guard_xfg_dispatch.obj
 0002:00000000       __imp_FreeLibrary          0000000180138000     kernel32:KERNEL32.dll
 0002:00000008       __imp_GetProcAddress       0000000180138008     kernel32:KERNEL32.dll
 0002:00000010       __imp_LoadLibraryA         0000000180138010     kernel32:KERNEL32.dll
 0002:00000018       __imp_WriteConsoleW        0000000180138018     kernel32:KERNEL32.dll
 0002:00000020       __imp_RaiseException       0000000180138020     kernel32:KERNEL32.dll
 0002:00000028       __imp_GetLastError         0000000180138028     kernel32:KERNEL32.dll
 0002:00000030       __imp_GetSystemInfo        0000000180138030     kernel32:KERNEL32.dll
 0002:00000038       __imp_VirtualProtect       0000000180138038     kernel32:KERNEL32.dll
 0002:00000040       __imp_VirtualQuery         0000000180138040     kernel32:KERNEL32.dll
 0002:00000048       __imp_GetModuleHandleW     0000000180138048     kernel32:KERNEL32.dll
 0002:00000050       __imp_LoadLibraryExA       0000000180138050     kernel32:KERNEL32.dll
 0002:00000058       __imp_InitializeSListHead  0000000180138058     kernel32:KERNEL32.dll
 0002:00000060       __imp_QueryPerformanceCounter 0000000180138060     kernel32:KERNEL32.dll
 0002:00000068       __imp_GetCurrentProcessId  0000000180138068     kernel32:KERNEL32.dll
 0002:00000070       __imp_GetCurrentThreadId   0000000180138070     kernel32:KERNEL32.dll
 0002:00000078       __imp_GetSystemTimeAsFileTime 0000000180138078     kernel32:KERNEL32.dll
 0002:00000080       __imp_RtlCaptureContext    0000000180138080     kernel32:KERNEL32.dll
 0002:00000088       __imp_RtlLookupFunctionEntry 0000000180138088     kernel32:KERNEL32.dll
 0002:00000090       __imp_RtlVirtualUnwind     0000000180138090     kernel32:KERNEL32.dll
 0002:00000098       __imp_IsDebuggerPresent    0000000180138098     kernel32:KERNEL32.dll
 0002:000000a0       __imp_UnhandledExceptionFilter 00000001801380a0     kernel32:KERNEL32.dll
 0002:000000a8       __imp_SetUnhandledExceptionFilter 00000001801380a8     kernel32:KERNEL32.dll
 0002:000000b0       __imp_GetStartupInfoW      00000001801380b0     kernel32:KERNEL32.dll
 0002:000000b8       __imp_IsProcessorFeaturePresent 00000001801380b8     kernel32:KERNEL32.dll
 0002:000000c0       __imp_InterlockedPushEntrySList 00000001801380c0     kernel32:KERNEL32.dll
 0002:000000c8       __imp_InterlockedFlushSList 00000001801380c8     kernel32:KERNEL32.dll
 0002:000000d0       __imp_RtlUnwindEx          00000001801380d0     kernel32:KERNEL32.dll
 0002:000000d8       __imp_SetLastError         00000001801380d8     kernel32:KERNEL32.dll
 0002:000000e0       __imp_EnterCriticalSection 00000001801380e0     kernel32:KERNEL32.dll
 0002:000000e8       __imp_LeaveCriticalSection 00000001801380e8     kernel32:KERNEL32.dll
 0002:000000f0       __imp_DeleteCriticalSection 00000001801380f0     kernel32:KERNEL32.dll
 0002:000000f8       __imp_InitializeCriticalSectionAndSpinCount 00000001801380f8     kernel32:KERNEL32.dll
 0002:00000100       __imp_TlsAlloc             0000000180138100     kernel32:KERNEL32.dll
 0002:00000108       __imp_TlsGetValue          0000000180138108     kernel32:KERNEL32.dll
 0002:00000110       __imp_TlsSetValue          0000000180138110     kernel32:KERNEL32.dll
 0002:00000118       __imp_TlsFree              0000000180138118     kernel32:KERNEL32.dll
 0002:00000120       __imp_LoadLibraryExW       0000000180138120     kernel32:KERNEL32.dll
 0002:00000128       __imp_EncodePointer        0000000180138128     kernel32:KERNEL32.dll
 0002:00000130       __imp_RtlPcToFileHeader    0000000180138130     kernel32:KERNEL32.dll
 0002:00000138       __imp_GetCurrentProcess    0000000180138138     kernel32:KERNEL32.dll
 0002:00000140       __imp_ExitProcess          0000000180138140     kernel32:KERNEL32.dll
 0002:00000148       __imp_TerminateProcess     0000000180138148     kernel32:KERNEL32.dll
 0002:00000150       __imp_GetModuleHandleExW   0000000180138150     kernel32:KERNEL32.dll
 0002:00000158       __imp_GetModuleFileNameW   0000000180138158     kernel32:KERNEL32.dll
 0002:00000160       __imp_HeapFree             0000000180138160     kernel32:KERNEL32.dll
 0002:00000168       __imp_HeapAlloc            0000000180138168     kernel32:KERNEL32.dll
 0002:00000170       __imp_FindClose            0000000180138170     kernel32:KERNEL32.dll
 0002:00000178       __imp_FindFirstFileExW     0000000180138178     kernel32:KERNEL32.dll
 0002:00000180       __imp_FindNextFileW        0000000180138180     kernel32:KERNEL32.dll
 0002:00000188       __imp_IsValidCodePage      0000000180138188     kernel32:KERNEL32.dll
 0002:00000190       __imp_GetACP               0000000180138190     kernel32:KERNEL32.dll
 0002:00000198       __imp_GetOEMCP             0000000180138198     kernel32:KERNEL32.dll
 0002:000001a0       __imp_GetCPInfo            00000001801381a0     kernel32:KERNEL32.dll
 0002:000001a8       __imp_GetCommandLineA      00000001801381a8     kernel32:KERNEL32.dll
 0002:000001b0       __imp_GetCommandLineW      00000001801381b0     kernel32:KERNEL32.dll
 0002:000001b8       __imp_MultiByteToWideChar  00000001801381b8     kernel32:KERNEL32.dll
 0002:000001c0       __imp_WideCharToMultiByte  00000001801381c0     kernel32:KERNEL32.dll
 0002:000001c8       __imp_GetEnvironmentStringsW 00000001801381c8     kernel32:KERNEL32.dll
 0002:000001d0       __imp_FreeEnvironmentStringsW 00000001801381d0     kernel32:KERNEL32.dll
 0002:000001d8       __imp_LCMapStringW         00000001801381d8     kernel32:KERNEL32.dll
 0002:000001e0       __imp_GetProcessHeap       00000001801381e0     kernel32:KERNEL32.dll
 0002:000001e8       __imp_GetStdHandle         00000001801381e8     kernel32:KERNEL32.dll
 0002:000001f0       __imp_GetFileType          00000001801381f0     kernel32:KERNEL32.dll
 0002:000001f8       __imp_GetStringTypeW       00000001801381f8     kernel32:KERNEL32.dll
 0002:00000200       __imp_HeapSize             0000000180138200     kernel32:KERNEL32.dll
 0002:00000208       __imp_HeapReAlloc          0000000180138208     kernel32:KERNEL32.dll
 0002:00000210       __imp_SetStdHandle         0000000180138210     kernel32:KERNEL32.dll
 0002:00000218       __imp_FlushFileBuffers     0000000180138218     kernel32:KERNEL32.dll
 0002:00000220       __imp_WriteFile            0000000180138220     kernel32:KERNEL32.dll
 0002:00000228       __imp_GetConsoleOutputCP   0000000180138228     kernel32:KERNEL32.dll
 0002:00000230       __imp_GetConsoleMode       0000000180138230     kernel32:KERNEL32.dll
 0002:00000238       __imp_SetFilePointerEx     0000000180138238     kernel32:KERNEL32.dll
 0002:00000240       __imp_CreateFileW          0000000180138240     kernel32:KERNEL32.dll
 0002:00000248       __imp_CloseHandle          0000000180138248     kernel32:KERNEL32.dll
 0002:00000250       \177KERNEL32_NULL_THUNK_DATA 0000000180138250     kernel32:KERNEL32.dll
 0002:00000258       __guard_check_icall_fptr   0000000180138258     LIBCMT:guard_support.obj
 0002:00000260       __guard_xfg_check_icall_fptr 0000000180138260     LIBCMT:guard_support.obj
 0002:00000268       __guard_dispatch_icall_fptr 0000000180138268     LIBCMT:guard_support.obj
 0002:00000270       __guard_xfg_dispatch_icall_fptr 0000000180138270     LIBCMT:guard_support.obj
 0002:00000278       __guard_xfg_table_dispatch_icall_fptr 0000000180138278     LIBCMT:guard_support.obj
 0002:00000280       __xc_a                     0000000180138280     LIBCMT:initializers.obj
 0002:000016b0       __xc_z                     00000001801396b0     LIBCMT:initializers.obj
 0002:000016b8       __xi_a                     00000001801396b8     LIBCMT:initializers.obj
 0002:000016c0       __acrt_tran_fma3_initializer 00000001801396c0     libucrt:fma3_initializer.obj
 0002:000016c8       __acrt_multibyte_initializer 00000001801396c8     libucrt:multibyte_initializer.obj
 0002:000016d0       __acrt_stdio_initializer   00000001801396d0     libucrt:stdio_initializer.obj
 0002:000016d8       __xi_z                     00000001801396d8     LIBCMT:initializers.obj
 0002:000016e0       __xp_a                     00000001801396e0     LIBCMT:initializers.obj
 0002:000016e8       __acrt_locale_terminator   00000001801396e8     libucrt:locale_initializer.obj
 0002:000016f0       __dcrt_console_output_terminator 00000001801396f0     libucrt:console_output_initializer.obj
 0002:000016f8       __acrt_stdio_terminator    00000001801396f8     libucrt:stdio_initializer.obj
 0002:00001700       __xp_z                     0000000180139700     LIBCMT:initializers.obj
 0002:00001708       __xt_a                     0000000180139708     LIBCMT:initializers.obj
 0002:00001710       __xt_z                     0000000180139710     LIBCMT:initializers.obj
 0002:00001720       ??_7PxCollection@physx@@6B@ 0000000180139720     CmCollection.obj
 0002:000017a0       ??_C@_0BA@DLCJDKDM@NonTrackedAlloc@ 00000001801397a0     CmCollection.obj
 0002:000017b0       ??_7Collection@Cm@physx@@6B@ 00000001801397b0     CmCollection.obj
 0002:00001830       ??_C@_0GE@GBACBMOC@PxCollection?3?3add?5called?5for?5an@ 0000000180139830     CmCollection.obj
 0002:000018a0       ??_C@_0EJ@BLNLFNHK@C?3?2Users?2user?2Desktop?2PhysX?94?41@ 00000001801398a0     CmCollection.obj
 0002:000018f0       ??_C@_0EM@OMMGDOMK@PxCollection?3?3add?5called?5with?5a@ 00000001801398f0     CmCollection.obj
 0002:00001940       ??_C@_0EL@CBFFIHFG@PxCollection?3?3remove?5called?5for@ 0000000180139940     CmCollection.obj
 0002:00001990       ??_C@_0EP@DBNENNLL@PxCollection?3?3addId?5called?5for?5@ 0000000180139990     CmCollection.obj
 0002:000019e0       ??_C@_0FL@DACPFKDD@PxCollection?3?3addId?5called?5with@ 00000001801399e0     CmCollection.obj
 0002:00001a40       ??_C@_0EP@GMPAMDKI@PxCollection?3?3addId?5called?5with@ 0000000180139a40     CmCollection.obj
 0002:00001a90       ??_C@_0FO@DIHIGAFD@PxCollection?3?3removeId?5called?5w@ 0000000180139a90     CmCollection.obj
 0002:00001af0       ??_C@_0FF@MENHIPMD@PxCollection?3?3removeId?5called?5w@ 0000000180139af0     CmCollection.obj
 0002:00001b50       ??_C@_0FK@BAFICJEM@PxCollection?3?3find?5called?5with?5@ 0000000180139b50     CmCollection.obj
 0002:00001bb0       ??_C@_0DF@CLGAFPLL@PxCollection?3?3add?$CIPxCollection?$CG@ 0000000180139bb0     CmCollection.obj
 0002:00001be8       ??_C@_0DN@DMJACFO@PxCollection?3?3add?$CIPxCollection?$CG@ 0000000180139be8     CmCollection.obj
 0002:00001c28       ??_C@_0DI@DICAIAPC@PxCollection?3?3remove?$CIPxCollecti@ 0000000180139c28     CmCollection.obj
 0002:00001c60       ??_C@_0DG@LOILDLGN@PxCollection?3?3getObjects?5called@ 0000000180139c60     CmCollection.obj
 0002:00001c98       ??_C@_0DD@GMICJLDJ@PxCollection?3?3getObjects?5called@ 0000000180139c98     CmCollection.obj
 0002:00001cd0       ??_C@_0DC@GILGGBAI@PxCollection?3?3getIds?5called?5wit@ 0000000180139cd0     CmCollection.obj
 0002:00001d08       ??_C@_0CP@LFEKADKN@PxCollection?3?3getIds?5called?5wit@ 0000000180139d08     CmCollection.obj
 0002:00001d40       ??_C@_0FC@BLMNJHBI@C?3?2Users?2user?2Desktop?2PhysX?94?41@ 0000000180139d40     CmCollection.obj
 0002:00001d98       ??_C@_0BM@OIFKLHDN@?$DMallocation?5names?5disabled?$DO@ 0000000180139d98     CmCollection.obj
 0002:00001db8       ??_C@_08MDGMHCHN@PtrTable@ 0000000180139db8     CmPtrTable.obj
 0002:00001dc4       ??_C@_04GKJNKENE@void@     0000000180139dc4     CmPtrTable.obj
 0002:00001dd0       ??_C@_07DFEBJDHE@mSingle@  0000000180139dd0     CmPtrTable.obj
 0002:00001dd8       ??_C@_05NLHHBMOH@PxU16@    0000000180139dd8     CmPtrTable.obj
 0002:00001de0       ??_C@_06EPKHJPIM@mCount@   0000000180139de0     CmPtrTable.obj
 0002:00001de8       ??_C@_04DDKJGDCM@bool@     0000000180139de8     CmPtrTable.obj
 0002:00001df0       ??_C@_0M@DAGELID@mOwnsMemory@ 0000000180139df0     CmPtrTable.obj
 0002:00001e00       ??_C@_0M@MMPOMMLP@mBufferUsed@ 0000000180139e00     CmPtrTable.obj
 0002:00001e10       ??_7RadixSort@Cm@physx@@6B@ 0000000180139e10     CmRadixSort.obj
 0002:00001e20       __xmm@00000001000000010000000100000001 0000000180139e20     CmRadixSort.obj
 0002:00001e30       __xmm@00000003000000020000000100000000 0000000180139e30     CmRadixSort.obj
 0002:00001e40       ??_7RadixSortBuffered@Cm@physx@@6B@ 0000000180139e40     CmRadixSortBuffered.obj
 0002:00001e48       ??_C@_0BJ@LFNCOACD@RadixSortBuffered?3mRanks@ 0000000180139e48     CmRadixSortBuffered.obj
 0002:00001e70       ??_C@_0FA@PFMBFGNG@C?3?2Users?2user?2Desktop?2PhysX?94?41@ 0000000180139e70     CmRadixSortBuffered.obj
 0002:00001ec0       ??_C@_0BK@EPKCPHOD@RadixSortBuffered?3mRanks2@ 0000000180139ec0     CmRadixSortBuffered.obj
 0002:00001edc       ?sBufferSize@DebugText@Cm@physx@@2HB 0000000180139edc     CmRenderOutput.obj
 0002:00001ee0       ??_C@_0EK@MOBKHFKB@C?3?2Users?2user?2Desktop?2PhysX?94?41@ 0000000180139ee0     CmRenderOutput.obj
 0002:00001f2c       __real@3e19999a            0000000180139f2c     CmRenderOutput.obj
 0002:00001f30       __real@3e800000            0000000180139f30     CmRenderOutput.obj
 0002:00001f34       __real@3f3504f3            0000000180139f34     CmRenderOutput.obj
 0002:00001f38       __real@3f800000            0000000180139f38     CmRenderOutput.obj
 0002:00001f3c       __real@3fddb3d7            0000000180139f3c     CmRenderOutput.obj
 0002:00001f40       __real@40c90fdb            0000000180139f40     CmRenderOutput.obj
 0002:00001f50       __xmm@7fffffff7fffffff7fffffff7fffffff 0000000180139f50     CmRenderOutput.obj
 0002:00001f60       __xmm@80000000800000008000000080000000 0000000180139f60     CmRenderOutput.obj
 0002:00001f70       __real@3d4ccccd            0000000180139f70     CmVisualization.obj
 0002:00001f74       __real@3e490fdb            0000000180139f74     CmVisualization.obj
 0002:00001f78       __real@3e99999a            0000000180139f78     CmVisualization.obj
 0002:00001f7c       __real@3f000000            0000000180139f7c     CmVisualization.obj
 0002:00001f80       __real@3fc00000            0000000180139f80     CmVisualization.obj
 0002:00001f84       __real@c0000000            0000000180139f84     CmVisualization.obj
 0002:00001f90       __xmm@3f800000000000000000000000000000 0000000180139f90     CmVisualization.obj
 0002:00001fa0       ??_C@_0BB@CPDDPFKD@GetUpdatedModule@ 0000000180139fa0     CmWindowsModuleUpdateLoader.obj
 0002:00001fb8       ??_C@_0BA@EGLNOO@PhysXFoundation@ 0000000180139fb8     CmWindowsDelayLoadHook.obj
 0002:00001fc8       ??_C@_0M@ILKNCJKN@PhysXCommon@ 0000000180139fc8     CmWindowsDelayLoadHook.obj
 0002:00002000       ??_C@_06EJKDJEDO@PxBase@   000000018013a000     GuBounds.obj
 0002:00002008       ??_C@_0N@CDGINLLF@PxConvexMesh@ 000000018013a008     GuBounds.obj
 0002:00002018       ??_C@_0O@PBAKPCEC@PxHeightField@ 000000018013a018     GuBounds.obj
 0002:00002028       ??_7PxBase@physx@@6B@      000000018013a028     GuBounds.obj
 0002:00002050       ??_C@_0DG@DFOCGHP@Gu?3?3GeometryUnion?3?3computeBound@ 000000018013a050     GuBounds.obj
 0002:00002090       ??_C@_0EI@KPKBANAK@C?3?2Users?2user?2Desktop?2PhysX?94?41@ 000000018013a090     GuBounds.obj
 0002:000020d8       __real@358637bd            000000018013a0d8     GuBounds.obj
 0002:000020dc       __real@3f400000            000000018013a0dc     GuBounds.obj
 0002:000020e0       __real@3f7fffef            000000018013a0e0     GuBounds.obj
 0002:000020e4       __real@3f8147ae            000000018013a0e4     GuBounds.obj
 0002:000020e8       __real@7e7fffff            000000018013a0e8     GuBounds.obj
 0002:000020ec       __real@7f7fffff            000000018013a0ec     GuBounds.obj
 0002:000020f0       __real@fe7fffff            000000018013a0f0     GuBounds.obj
 0002:00002100       __xmm@000000003a83126f3a83126f3a83126f 000000018013a100     GuBounds.obj
 0002:00002110       __xmm@00000000ba83126fba83126fba83126f 000000018013a110     GuBounds.obj
 0002:00002120       __xmm@3a83126f3a83126f3a83126f3a83126f 000000018013a120     GuBounds.obj
 0002:00002130       __xmm@3f0000003f0000003f0000003f000000 000000018013a130     GuBounds.obj
 0002:00002140       __xmm@3f8147ae3f8147ae3f8147ae3f8147ae 000000018013a140     GuBounds.obj
 0002:00002150       __xmm@ba83126fba83126fba83126fba83126f 000000018013a150     GuBounds.obj
 0002:00002180       __real@3f7ff972            000000018013a180     GuBox.obj
 0002:000021b0       ??_7?$EntityReport@I@Gu@physx@@6B@ 000000018013a1b0     GuCCTSweepTests.obj
 0002:000021d0       __real@3b03126f            000000018013a1d0     GuCCTSweepTests.obj
 0002:000021d4       __real@40000000            000000018013a1d4     GuCCTSweepTests.obj
 0002:00002200       ??_C@_0CD@CGJJEFHC@Gu?3?3overlap?$CI?$CJ?3?5pose0?5is?5not?5val@ 000000018013a200     GuGeometryQuery.obj
 0002:00002230       ??_C@_0EM@OKLCIFIO@C?3?2Users?2user?2Desktop?2PhysX?94?41@ 000000018013a230     GuGeometryQuery.obj
 0002:00002280       ??_C@_0CD@IIPBNEOD@Gu?3?3overlap?$CI?$CJ?3?5pose1?5is?5not?5val@ 000000018013a280     GuGeometryQuery.obj
 0002:000022a8       ??_C@_0CO@DGHGHPPJ@PxGeometryQuery?3?3sweep?$CI?$CJ?3?5pose0@ 000000018013a2a8     GuGeometryQuery.obj
 0002:000022e0       ??_C@_0EP@JLPAJCH@C?3?2Users?2user?2Desktop?2PhysX?94?41@ 000000018013a2e0     GuGeometryQuery.obj
 0002:00002330       ??_C@_0CO@JIBOOOGI@PxGeometryQuery?3?3sweep?$CI?$CJ?3?5pose1@ 000000018013a330     GuGeometryQuery.obj
 0002:00002360       ??_C@_0DA@JEEBDBEM@PxGeometryQuery?3?3sweep?$CI?$CJ?3?5unitD@ 000000018013a360     GuGeometryQuery.obj
 0002:00002390       ??_C@_0DB@KCEKJBPE@PxGeometryQuery?3?3sweep?$CI?$CJ?3?5dista@ 000000018013a390     GuGeometryQuery.obj
 0002:000023d0       ??_C@_0FM@HAJNNJNC@PxGeometryQuery?3?3sweep?$CI?$CJ?3?5sweep@ 000000018013a3d0     GuGeometryQuery.obj
 0002:00002430       ??_C@_0CB@JDDBKCNL@Provided?5geometry?50?5is?5not?5vali@ 000000018013a430     GuGeometryQuery.obj
 0002:00002458       ??_C@_0CB@CKMKHJDD@Provided?5geometry?51?5is?5not?5vali@ 000000018013a458     GuGeometryQuery.obj
 0002:00002480       ??_C@_0GL@GJKJELMB@PxGeometryQuery?3?3sweep?$CI?$CJ?3?5first@ 000000018013a480     GuGeometryQuery.obj
 0002:000024f0       ??_C@_0DB@OMDGMOND@PxGeometryQuery?3?3raycast?$CI?$CJ?3?5ray@ 000000018013a4f0     GuGeometryQuery.obj
 0002:00002528       ??_C@_0DE@MGFNMBNA@PxGeometryQuery?3?3raycast?$CI?$CJ?3?5ray@ 000000018013a528     GuGeometryQuery.obj
 0002:00002560       ??_C@_0CP@NHLDPNEB@PxGeometryQuery?3?3raycast?$CI?$CJ?3?5pos@ 000000018013a560     GuGeometryQuery.obj
 0002:00002590       ??_C@_0DB@HPNPNEMP@PxGeometryQuery?3?3raycast?$CI?$CJ?3?5max@ 000000018013a590     GuGeometryQuery.obj
 0002:000025c8       ??_C@_0DC@BLMIOBO@PxGeometryQuery?3?3raycast?$CI?$CJ?3?5max@ 000000018013a5c8     GuGeometryQuery.obj
 0002:00002600       ??_C@_0DP@IPJGHFJE@PxGeometryQuery?3?3raycast?$CI?$CJ?3?5ray@ 000000018013a600     GuGeometryQuery.obj
 0002:00002640       ??_C@_0DF@BMEFDPAL@PxGeometryQuery?3?3pointDistance?$CI@ 000000018013a640     GuGeometryQuery.obj
 0002:00002680       ??_C@_0GM@KKKGKIEH@PxGeometryQuery?3?3pointDistance?$CI@ 000000018013a680     GuGeometryQuery.obj
 0002:000026f0       ??_C@_0DG@IHHENNM@PxGeometryQuery?3?3getWorldBounds@ 000000018013a6f0     GuGeometryQuery.obj
 0002:00002728       ??_C@_0DL@LECAKFBF@PxGeometryQuery?3?3computePenetra@ 000000018013a728     GuGeometryQuery.obj
 0002:00002768       ??_C@_0DL@BKEIDEIE@PxGeometryQuery?3?3computePenetra@ 000000018013a768     GuGeometryQuery.obj
 0002:000027a4       __real@38d1b717            000000018013a7a4     GuGeometryQuery.obj
 0002:000027a8       __real@49742400            000000018013a7a8     GuGeometryQuery.obj
 0002:000027ac       __real@bf800000            000000018013a7ac     GuGeometryQuery.obj
 0002:000027d0       ??_C@_0CA@KJFNONEO@MaterialIndicesStruct?3?3allocate@ 000000018013a7d0     GuGeometryUnion.obj
 0002:000027f0       ??_C@_0EN@IDFOLFCL@C?3?2Users?2user?2Desktop?2PhysX?94?41@ 000000018013a7f0     GuGeometryUnion.obj
 0002:00002880       ??_7GuMeshFactory@physx@@6B@ 000000018013a880     GuMeshFactory.obj
 0002:00002888       ??_7MeshDataBase@Gu@physx@@6B@ 000000018013a888     GuMeshFactory.obj
 0002:00002890       ??_C@_06KDGGGLIJ@PxVec3@   000000018013a890     GuMeshFactory.obj
 0002:000028a0       ??_C@_0EN@IFBLPKIB@C?3?2Users?2user?2Desktop?2PhysX?94?41@ 000000018013a8a0     GuMeshFactory.obj
 0002:000028f0       ??_7TriangleMeshData@Gu@physx@@6B@ 000000018013a8f0     GuMeshFactory.obj
 0002:000028f8       ??_C@_0L@KBOFAKLO@mTriangles@ 000000018013a8f8     GuMeshFactory.obj
 0002:00002908       ??_C@_0BA@OCOIGPII@mGRB_triIndices@ 000000018013a908     GuMeshFactory.obj
 0002:00002918       ??_7RTreeTriangleData@Gu@physx@@6B@ 000000018013a918     GuMeshFactory.obj
 0002:00002920       ??_7BV4TriangleData@Gu@physx@@6B@ 000000018013a920     GuMeshFactory.obj
 0002:00002928       ??_C@_0BB@PAEMNLHP@FactoryListeners@ 000000018013a928     GuMeshFactory.obj
 0002:00002940       ??_C@_0EN@GLMNPEAG@C?3?2Users?2user?2Desktop?2PhysX?94?41@ 000000018013a940     GuMeshFactory.obj
 0002:00002990       ??_C@_0GP@NHELMDAL@Loading?5triangle?5mesh?5failed?3?5D@ 000000018013a990     GuMeshFactory.obj
 0002:00002a00       ??_C@_0BP@CDOKDACA@RTree?5binary?5image?5load?5error?4@ 000000018013aa00     GuMeshFactory.obj
 0002:00002a20       ??_C@_0BN@MJPNIELF@BV4?5binary?5image?5load?5error?4@ 000000018013aa20     GuMeshFactory.obj
 0002:00002a40       ??_C@_0BO@JDPABAOF@BV32?5binary?5image?5load?5error?4@ 000000018013aa40     GuMeshFactory.obj
 0002:00002a60       ??_C@_0EK@MHHHHMNI@C?3?2Users?2user?2Desktop?2PhysX?94?41@ 000000018013aa60     GuMeshFactory.obj
 0002:00002ab0       __xmm@cdcdcdcdcdcdcdcdcdcdcdcdcdcdcdcd 000000018013aab0     GuMeshFactory.obj
 0002:00002ae0       ??_C@_0P@GGNFNHKF@PxTriangleMesh@ 000000018013aae0     GuMetaData.obj
 0002:00002af0       ??_C@_07GFCEJNGM@Valency@  000000018013aaf0     GuMetaData.obj
 0002:00002af8       ??_C@_07NHGKEEIN@mOffset@  000000018013aaf8     GuMetaData.obj
 0002:00002b00       ??_C@_0BB@BAGHBMNJ@BigConvexRawData@ 000000018013ab00     GuMetaData.obj
 0002:00002b18       ??_C@_07PBDEJAAC@mSubdiv@  000000018013ab18     GuMetaData.obj
 0002:00002b20       ??_C@_0L@HNPACPGH@mNbSamples@ 000000018013ab20     GuMetaData.obj
 0002:00002b2c       ??_C@_04NCKNBPPK@PxU8@     000000018013ab2c     GuMetaData.obj
 0002:00002b38       ??_C@_08DEPEKJNI@mSamples@ 000000018013ab38     GuMetaData.obj
 0002:00002b44       ??_C@_05LMJPANIN@PxU32@    000000018013ab44     GuMetaData.obj
 0002:00002b50       ??_C@_08IJDNJBMI@mNbVerts@ 000000018013ab50     GuMetaData.obj
 0002:00002b60       ??_C@_0M@MMKMIJAF@mNbAdjVerts@ 000000018013ab60     GuMetaData.obj
 0002:00002b70       ??_C@_0L@EOKMNILC@mValencies@ 000000018013ab70     GuMetaData.obj
 0002:00002b80       ??_C@_0P@DLGEAMHJ@mAdjacentVerts@ 000000018013ab80     GuMetaData.obj
 0002:00002b90       ??_C@_0O@PFOPBKAM@BigConvexData@ 000000018013ab90     GuMetaData.obj
 0002:00002ba0       ??_C@_05PLKALGFN@mData@    000000018013aba0     GuMetaData.obj
 0002:00002ba8       ??_C@_08PEMCLHEM@mVBuffer@ 000000018013aba8     GuMetaData.obj
 0002:00002bb8       ??_C@_09FBMAGD@Alignment@  000000018013abb8     GuMetaData.obj
 0002:00002bc8       ??_C@_0BE@KFHIBEEA@InternalObjectsData@ 000000018013abc8     GuMetaData.obj
 0002:00002bdc       ??_C@_06GIEBFILM@PxReal@   000000018013abdc     GuMetaData.obj
 0002:00002be8       ??_C@_07NKGFFIBH@mRadius@  000000018013abe8     GuMetaData.obj
 0002:00002bf0       ??_C@_08EHFCACAE@mExtents@ 000000018013abf0     GuMetaData.obj
 0002:00002c00       ??_C@_0BA@LFMGGCBK@HullPolygonData@ 000000018013ac00     GuMetaData.obj
 0002:00002c10       ??_C@_06BOHHGLB@mPlane@    000000018013ac10     GuMetaData.obj
 0002:00002c18       ??_C@_06EHMLHGLN@mVRef8@   000000018013ac18     GuMetaData.obj
 0002:00002c20       ??_C@_09BAHHHINI@mMinIndex@ 000000018013ac20     GuMetaData.obj
 0002:00002c30       ??_C@_0P@GBLBPIPB@ConvexHullData@ 000000018013ac30     GuMetaData.obj
 0002:00002c40       ??_C@_09JDCJAPKD@PxBounds3@ 000000018013ac40     GuMetaData.obj
 0002:00002c4c       ??_C@_05NDNHIFA@mAABB@     000000018013ac4c     GuMetaData.obj
 0002:00002c58       ??_C@_0O@LNOGEMJI@mCenterOfMass@ 000000018013ac58     GuMetaData.obj
 0002:00002c68       ??_C@_09CNMCBBKH@mPolygons@ 000000018013ac68     GuMetaData.obj
 0002:00002c78       ??_C@_0BC@KKPDCFJC@mBigConvexRawData@ 000000018013ac78     GuMetaData.obj
 0002:00002c90       ??_C@_08ELDMKGKH@mNbEdges@ 000000018013ac90     GuMetaData.obj
 0002:00002ca0       ??_C@_0BA@CGLOHBAC@mNbHullVertices@ 000000018013aca0     GuMetaData.obj
 0002:00002cb0       ??_C@_0M@HGFFLLDM@mNbPolygons@ 000000018013acb0     GuMetaData.obj
 0002:00002cc0       ??_C@_09BHJEMDGO@mInternal@ 000000018013acc0     GuMetaData.obj
 0002:00002cd0       ??_C@_0L@GMFHOMKA@ConvexMesh@ 000000018013acd0     GuMetaData.obj
 0002:00002ce0       ??_C@_0N@KECKKFLK@RefCountable@ 000000018013ace0     GuMetaData.obj
 0002:00002cf0       ??_C@_09ILEBDLJH@mHullData@ 000000018013acf0     GuMetaData.obj
 0002:00002cfc       ??_C@_03DKDIKGNC@mNb@      000000018013acfc     GuMetaData.obj
 0002:00002d00       ??_C@_0P@ENLHFHMD@mBigConvexData@ 000000018013ad00     GuMetaData.obj
 0002:00002d10       ??_C@_05ILALLCHK@mMass@    000000018013ad10     GuMetaData.obj
 0002:00002d18       ??_C@_07DBPDADGB@PxMat33@  000000018013ad18     GuMetaData.obj
 0002:00002d20       ??_C@_08FNBHNDBI@mInertia@ 000000018013ad20     GuMetaData.obj
 0002:00002d30       ??_C@_0O@FCKNKLMJ@GuMeshFactory@ 000000018013ad30     GuMetaData.obj
 0002:00002d40       ??_C@_0N@EGBCLMAK@mMeshFactory@ 000000018013ad40     GuMetaData.obj
 0002:00002d50       ??_C@_0BE@CJJAMAMK@PxHeightFieldSample@ 000000018013ad50     GuMetaData.obj
 0002:00002d64       ??_C@_05MBLIPEMA@PxI16@    000000018013ad64     GuMetaData.obj
 0002:00002d6c       ??_C@_06LNLHEAAG@height@   000000018013ad6c     GuMetaData.obj
 0002:00002d78       ??_C@_0N@HHDGHJN@PxBitAndByte@ 000000018013ad78     GuMetaData.obj
 0002:00002d88       ??_C@_0P@MBBMLBO@materialIndex0@ 000000018013ad88     GuMetaData.obj
 0002:00002d98       ??_C@_0P@BFAKPKFP@materialIndex1@ 000000018013ad98     GuMetaData.obj
 0002:00002da8       ??_C@_0BD@EBLPJEOE@PxHeightFieldFlags@ 000000018013ada8     GuMetaData.obj
 0002:00002dc0       ??_C@_0BK@FNNCFFCN@PxHeightFieldFormat?3?3Enum@ 000000018013adc0     GuMetaData.obj
 0002:00002de0       ??_C@_0BA@CLNFMAAA@HeightFieldData@ 000000018013ade0     GuMetaData.obj
 0002:00002df0       ??_C@_04IMCGAIPI@rows@     000000018013adf0     GuMetaData.obj
 0002:00002df8       ??_C@_07HIFEPIJN@columns@  000000018013adf8     GuMetaData.obj
 0002:00002e00       ??_C@_08MOAGOABI@rowLimit@ 000000018013ae00     GuMetaData.obj
 0002:00002e10       ??_C@_08BAGEHOBO@colLimit@ 000000018013ae10     GuMetaData.obj
 0002:00002e20       ??_C@_09LKDBLADF@nbColumns@ 000000018013ae20     GuMetaData.obj
 0002:00002e30       ??_C@_07ODIFGGLK@samples@  000000018013ae30     GuMetaData.obj
 0002:00002e38       ??_C@_0BE@POHEGOJG@convexEdgeThreshold@ 000000018013ae38     GuMetaData.obj
 0002:00002e4c       ??_C@_05GECEPKB@flags@     000000018013ae4c     GuMetaData.obj
 0002:00002e54       ??_C@_06DLEPGFEF@format@   000000018013ae54     GuMetaData.obj
 0002:00002e60       ??_C@_0BF@MOGDNMPL@PxMaterialTableIndex@ 000000018013ae60     GuMetaData.obj
 0002:00002e78       ??_C@_0M@JMJICJJO@HeightField@ 000000018013ae78     GuMetaData.obj
 0002:00002e88       ??_C@_0O@ENGHMLJP@mSampleStride@ 000000018013ae88     GuMetaData.obj
 0002:00002e98       ??_C@_0L@EBEEMFFB@mMinHeight@ 000000018013ae98     GuMetaData.obj
 0002:00002ea8       ??_C@_0L@EAEIFPOF@mMaxHeight@ 000000018013aea8     GuMetaData.obj
 0002:00002eb8       ??_C@_0N@FEFJOKKE@mModifyCount@ 000000018013aeb8     GuMetaData.obj
 0002:00002ec8       ??_C@_09PHDKHCK@RTreePage@ 000000018013aec8     GuMetaData.obj
 0002:00002ed4       ??_C@_04LLPOBGED@minx@     000000018013aed4     GuMetaData.obj
 0002:00002edc       ??_C@_04KCOFCHAC@miny@     000000018013aedc     GuMetaData.obj
 0002:00002ee4       ??_C@_04IJMIHEMB@minz@     000000018013aee4     GuMetaData.obj
 0002:00002eec       ??_C@_04GGOBOBGO@maxx@     000000018013aeec     GuMetaData.obj
 0002:00002ef4       ??_C@_04HPPKNACP@maxy@     000000018013aef4     GuMetaData.obj
 0002:00002efc       ??_C@_04FENHIDOM@maxz@     000000018013aefc     GuMetaData.obj
 0002:00002f04       ??_C@_04HHDFEJON@ptrs@     000000018013af04     GuMetaData.obj
 0002:00002f0c       ??_C@_05FFEIGAJF@RTree@    000000018013af0c     GuMetaData.obj
 0002:00002f14       ??_C@_06OMCHPNEO@PxVec4@   000000018013af14     GuMetaData.obj
 0002:00002f20       ??_C@_0L@NBIFEFLN@mBoundsMin@ 000000018013af20     GuMetaData.obj
 0002:00002f30       ??_C@_0L@MDAOKBNC@mBoundsMax@ 000000018013af30     GuMetaData.obj
 0002:00002f40       ??_C@_0N@NJEHLCOF@mInvDiagonal@ 000000018013af40     GuMetaData.obj
 0002:00002f50       ??_C@_0BA@BEFIGPFG@mDiagonalScaler@ 000000018013af50     GuMetaData.obj
 0002:00002f60       ??_C@_09DICGGKGO@mPageSize@ 000000018013af60     GuMetaData.obj
 0002:00002f70       ??_C@_0O@BOFFCNOL@mNumRootPages@ 000000018013af70     GuMetaData.obj
 0002:00002f80       ??_C@_0L@JKLGBKAE@mNumLevels@ 000000018013af80     GuMetaData.obj
 0002:00002f90       ??_C@_0M@PHDOHJGK@mTotalNodes@ 000000018013af90     GuMetaData.obj
 0002:00002fa0       ??_C@_0M@GDGHALAO@mTotalPages@ 000000018013afa0     GuMetaData.obj
 0002:00002fac       ??_C@_06MHCBBJGP@mFlags@   000000018013afac     GuMetaData.obj
 0002:00002fb4       ??_C@_06MMNBLHOK@mPages@   000000018013afb4     GuMetaData.obj
 0002:00002fc0       ??_C@_0L@LEOGNOEC@SourceMesh@ 000000018013afc0     GuMetaData.obj
 0002:00002fcc       ??_C@_06JFCLJMNN@mVerts@   000000018013afcc     GuMetaData.obj
 0002:00002fd8       ??_C@_07MPIKOOAP@mNbTris@  000000018013afd8     GuMetaData.obj
 0002:00002fe0       ??_C@_0N@FBMOMEHF@mTriangles32@ 000000018013afe0     GuMetaData.obj
 0002:00002ff0       ??_C@_0N@DGCGNFBP@mTriangles16@ 000000018013aff0     GuMetaData.obj
 0002:00003000       ??_C@_06DHAAKLFK@mRemap@   000000018013b000     GuMetaData.obj
 0002:00003008       ??_C@_0O@NLNHFNO@QuantizedAABB@ 000000018013b008     GuMetaData.obj
 0002:00003018       ??_C@_0BC@OOGBEMHH@mData?$FL0?$FN?4mExtents@ 000000018013b018     GuMetaData.obj
 0002:00003030       ??_C@_0BB@OCEDKIEF@mData?$FL0?$FN?4mCenter@ 000000018013b030     GuMetaData.obj
 0002:00003048       ??_C@_0BC@HFMEAABI@mData?$FL1?$FN?4mExtents@ 000000018013b048     GuMetaData.obj
 0002:00003060       ??_C@_0BB@CDMNHHIF@mData?$FL1?$FN?4mCenter@ 000000018013b060     GuMetaData.obj
 0002:00003078       ??_C@_0BC@CFKNCOI@mData?$FL2?$FN?4mExtents@ 000000018013b078     GuMetaData.obj
 0002:00003090       ??_C@_0BB@LKCPBBIE@mData?$FL2?$FN?4mCenter@ 000000018013b090     GuMetaData.obj
 0002:000030a8       ??_C@_0O@MJJKKPFN@BVDataPackedQ@ 000000018013b0a8     GuMetaData.obj
 0002:000030b8       ??_C@_0M@PNCEBOG@LocalBounds@ 000000018013b0b8     GuMetaData.obj
 0002:000030c8       ??_C@_07GNKDIIKJ@mCenter@  000000018013b0c8     GuMetaData.obj
 0002:000030d0       ??_C@_05KNFBNCOH@float@    000000018013b0d0     GuMetaData.obj
 0002:000030d8       ??_C@_0BC@LADJKHPL@mExtentsMagnitude@ 000000018013b0d8     GuMetaData.obj
 0002:000030f0       ??_C@_07HELIOLAF@BV4Tree@  000000018013b0f0     GuMetaData.obj
 0002:000030f8       ??_C@_0P@EMMDNPMH@mMeshInterface@ 000000018013b0f8     GuMetaData.obj
 0002:00003108       ??_C@_0N@DCKMHLCL@mLocalBounds@ 000000018013b108     GuMetaData.obj
 0002:00003118       ??_C@_08EEJOMIJL@mNbNodes@ 000000018013b118     GuMetaData.obj
 0002:00003128       ??_C@_09FGKNPI@mInitData@  000000018013b128     GuMetaData.obj
 0002:00003138       ??_C@_0BC@CLDEHKCO@mCenterOrMinCoeff@ 000000018013b138     GuMetaData.obj
 0002:00003150       ??_C@_0BD@LAOLBNJ@mExtentsOrMaxCoeff@ 000000018013b150     GuMetaData.obj
 0002:00003168       ??_C@_0P@JEECKKBL@mUserAllocated@ 000000018013b168     GuMetaData.obj
 0002:00003178       ??_C@_0L@GLIMNECG@mQuantized@ 000000018013b178     GuMetaData.obj
 0002:00003188       ??_C@_08BNDBAGDH@mPadding@ 000000018013b188     GuMetaData.obj
 0002:00003198       ??_C@_0N@OJNNNLIB@TriangleMesh@ 000000018013b198     GuMetaData.obj
 0002:000031a8       ??_C@_0M@OGEDMEAL@mNbVertices@ 000000018013b1a8     GuMetaData.obj
 0002:000031b8       ??_C@_0N@MGGDNHNI@mNbTriangles@ 000000018013b1b8     GuMetaData.obj
 0002:000031c8       ??_C@_09LNNEGOJA@mVertices@ 000000018013b1c8     GuMetaData.obj
 0002:000031d8       ??_C@_0P@MHDFIHLD@mExtraTrigData@ 000000018013b1d8     GuMetaData.obj
 0002:000031e8       ??_C@_0N@MGIKKCI@mGeomEpsilon@ 000000018013b1e8     GuMetaData.obj
 0002:000031f8       ??_C@_0BB@IFLOOCNA@mMaterialIndices@ 000000018013b1f8     GuMetaData.obj
 0002:00003210       ??_C@_0L@OPJMBFMI@mFaceRemap@ 000000018013b210     GuMetaData.obj
 0002:00003220       ??_C@_0N@BIOECAPM@mAdjacencies@ 000000018013b220     GuMetaData.obj
 0002:00003230       ??_C@_0BE@JPINNDAH@mGRB_triAdjacencies@ 000000018013b230     GuMetaData.obj
 0002:00003248       ??_C@_0P@EDFJJHEF@mGRB_faceRemap@ 000000018013b248     GuMetaData.obj
 0002:00003258       ??_C@_0O@CKMBAIFN@mGRB_BV32Tree@ 000000018013b258     GuMetaData.obj
 0002:00003268       ??_C@_0BC@IFGECKF@RTreeTriangleMesh@ 000000018013b268     GuMetaData.obj
 0002:0000327c       ??_C@_06JDIHDDGN@mRTree@   000000018013b27c     GuMetaData.obj
 0002:00003288       ??_C@_0BA@LNNFPOKA@BV4TriangleMesh@ 000000018013b288     GuMetaData.obj
 0002:00003298       ??_C@_08FKLPEGDB@mBV4Tree@ 000000018013b298     GuMetaData.obj
 0002:000032a8       ??_C@_0BG@EAPGHGEI@MaterialIndicesStruct@ 000000018013b2a8     GuMetaData.obj
 0002:000032c0       ??_C@_07OKCKIPNN@indices@  000000018013b2c0     GuMetaData.obj
 0002:000032c8       ??_C@_0L@KCBHBGBP@numIndices@ 000000018013b2c8     GuMetaData.obj
 0002:000032d4       ??_C@_03PNAAIPML@pad@      000000018013b2d4     GuMetaData.obj
 0002:000032d8       ??_C@_05MOMFAHOB@pad64@    000000018013b2d8     GuMetaData.obj
 0002:000032e0       ??_C@_0BK@GNJGHDGO@PxConvexMeshGeometryFlags@ 000000018013b2e0     GuMetaData.obj
 0002:00003300       ??_C@_0BJ@LIOOOKID@ShadowConvexMeshGeometry@ 000000018013b300     GuMetaData.obj
 0002:00003320       ??_C@_0BF@PJFPGDNP@PxGeometryType?3?3Enum@ 000000018013b320     GuMetaData.obj
 0002:00003338       ??_C@_05GNIIDDHH@mType@    000000018013b338     GuMetaData.obj
 0002:00003340       ??_C@_0M@JFNDEGCE@PxMeshScale@ 000000018013b340     GuMetaData.obj
 0002:0000334c       ??_C@_05MHMEBBGO@scale@    000000018013b34c     GuMetaData.obj
 0002:00003358       ??_C@_0L@OKMLGDHH@convexMesh@ 000000018013b358     GuMetaData.obj
 0002:00003368       ??_C@_09PLMNFMJI@meshFlags@ 000000018013b368     GuMetaData.obj
 0002:00003378       ??_C@_0BB@EINMAHMD@paddingFromFlags@ 000000018013b378     GuMetaData.obj
 0002:00003390       ??_C@_08CICKEKCM@hullData@ 000000018013b390     GuMetaData.obj
 0002:000033a0       ??_C@_0O@EOELHBFF@gpuCompatible@ 000000018013b3a0     GuMetaData.obj
 0002:000033b0       ??_C@_0BE@FFPGAPHN@PxMeshGeometryFlags@ 000000018013b3b0     GuMetaData.obj
 0002:000033c8       ??_C@_0BL@KABFLNEB@ShadowTriangleMeshGeometry@ 000000018013b3c8     GuMetaData.obj
 0002:000033e8       ??_C@_0N@FKKDJAHE@triangleMesh@ 000000018013b3e8     GuMetaData.obj
 0002:000033f8       ??_C@_08BEABJAHJ@meshData@ 000000018013b3f8     GuMetaData.obj
 0002:00003408       ??_C@_0BA@NGIONHFJ@materialIndices@ 000000018013b408     GuMetaData.obj
 0002:00003418       ??_C@_09JGGNEAGH@materials@ 000000018013b418     GuMetaData.obj
 0002:00003428       ??_C@_0BK@OIFEOHNJ@ShadowHeightFieldGeometry@ 000000018013b428     GuMetaData.obj
 0002:00003448       ??_C@_0M@IEKJPCGG@heightField@ 000000018013b448     GuMetaData.obj
 0002:00003458       ??_C@_0M@LHLNPPJ@heightScale@ 000000018013b458     GuMetaData.obj
 0002:00003468       ??_C@_08GJPCBGLE@rowScale@ 000000018013b468     GuMetaData.obj
 0002:00003478       ??_C@_0M@HHBHEPCE@columnScale@ 000000018013b478     GuMetaData.obj
 0002:00003488       ??_C@_0BB@PMIIHDKK@heightFieldFlags@ 000000018013b488     GuMetaData.obj
 0002:000034a0       ??_C@_0BA@DMOKLLHN@heightFieldData@ 000000018013b4a0     GuMetaData.obj
 0002:000034b0       ??_C@_0BE@IKADPPC@ShadowPlaneGeometry@ 000000018013b4b0     GuMetaData.obj
 0002:000034c8       ??_C@_0BF@PIKLLBGN@ShadowSphereGeometry@ 000000018013b4c8     GuMetaData.obj
 0002:000034e0       ??_C@_06KGHINEPG@radius@   000000018013b4e0     GuMetaData.obj
 0002:000034e8       ??_C@_0BG@OBHJHKMO@ShadowCapsuleGeometry@ 000000018013b4e8     GuMetaData.obj
 0002:00003500       ??_C@_0L@PMAANELH@halfHeight@ 000000018013b500     GuMetaData.obj
 0002:00003510       ??_C@_0BC@DMJNHLLO@ShadowBoxGeometry@ 000000018013b510     GuMetaData.obj
 0002:00003528       ??_C@_0M@CMAEPJOI@halfExtents@ 000000018013b528     GuMetaData.obj
 0002:00003538       ??_C@_0BH@PKALDLFA@PxConvexMeshGeometryLL@ 000000018013b538     GuMetaData.obj
 0002:00003550       ??_C@_0BJ@GAFBNAAE@PxTriangleMeshGeometryLL@ 000000018013b550     GuMetaData.obj
 0002:00003570       ??_C@_0BI@IIFLCNOC@PxHeightFieldGeometryLL@ 000000018013b570     GuMetaData.obj
 0002:00003588       ??_C@_0BA@NAHKMBFO@PxPlaneGeometry@ 000000018013b588     GuMetaData.obj
 0002:00003598       ??_C@_0BB@CHBDIEFA@PxSphereGeometry@ 000000018013b598     GuMetaData.obj
 0002:000035b0       ??_C@_0BC@LJMOIOOK@PxCapsuleGeometry@ 000000018013b5b0     GuMetaData.obj
 0002:000035c8       ??_C@_0O@OEDJDNFP@PxBoxGeometry@ 000000018013b5c8     GuMetaData.obj
 0002:000035d8       ??_C@_0BC@ICOOCLFG@Gu?3?3GeometryUnion@ 000000018013b5d8     GuMetaData.obj
 0002:000035f0       ??_7?$SupportLocalImpl@VConvexHullV@Gu@physx@@@Gu@physx@@6B@ 000000018013b5f0     GuMTD.obj
 0002:00003610       ??_7?$SupportLocalImpl@VConvexHullNoScaleV@Gu@physx@@@Gu@physx@@6B@ 000000018013b610     GuMTD.obj
 0002:00003630       ??_7?$SupportLocalImpl@VBoxV@Gu@physx@@@Gu@physx@@6B@ 000000018013b630     GuMTD.obj
 0002:00003650       ??_7SupportLocal@Gu@physx@@6B@ 000000018013b650     GuMTD.obj
 0002:00003690       ?absMask@?1??FAbs@aos@shdfnd@physx@@YA?AT__m128@@T5@@Z@4QBIB 000000018013b690     GuMTD.obj
 0002:000036a0       ??_7GjkConvexBase@Gu@physx@@6B@ 000000018013b6a0     GuMTD.obj
 0002:000036d0       ??_7?$LocalConvex@VCapsuleV@Gu@physx@@@Gu@physx@@6B@ 000000018013b6d0     GuMTD.obj
 0002:00003700       ??_7?$LocalConvex@VConvexHullV@Gu@physx@@@Gu@physx@@6B@ 000000018013b700     GuMTD.obj
 0002:00003730       __real@2edbe6ff            000000018013b730     GuMTD.obj
 0002:00003734       __real@3ccccccd            000000018013b734     GuMTD.obj
 0002:00003738       __real@3dcccccd            000000018013b738     GuMTD.obj
 0002:0000373c       __real@ff7fffff            000000018013b73c     GuMTD.obj
 0002:00003740       __xmm@0000000000000000000000003f800000 000000018013b740     GuMTD.obj
 0002:00003750       __xmm@00000000000000003f80000000000000 000000018013b750     GuMTD.obj
 0002:00003760       __xmm@000000003f8000000000000000000000 000000018013b760     GuMTD.obj
 0002:00003770       __xmm@000000003f8000003f8000003f800000 000000018013b770     GuMTD.obj
 0002:00003780       __xmm@00000000ffffffffffffffffffffffff 000000018013b780     GuMTD.obj
 0002:00003790       __xmm@34000000340000003400000034000000 000000018013b790     GuMTD.obj
 0002:000037a0       __xmm@358637bd358637bd358637bd358637bd 000000018013b7a0     GuMTD.obj
 0002:000037b0       __xmm@3dcccccd3dcccccd3dcccccd3dcccccd 000000018013b7b0     GuMTD.obj
 0002:000037c0       __xmm@3e4ccccd3e4ccccd3e4ccccd3e4ccccd 000000018013b7c0     GuMTD.obj
 0002:000037d0       __xmm@3f7ff1413f7ff1413f7ff1413f7ff141 000000018013b7d0     GuMTD.obj
 0002:000037e0       __xmm@3f7ff2e53f7ff2e53f7ff2e53f7ff2e5 000000018013b7e0     GuMTD.obj
 0002:000037f0       __xmm@3f8000003f8000003f8000003f800000 000000018013b7f0     GuMTD.obj
 0002:00003800       __xmm@7f7fffff7f7fffff7f7fffff7f7fffff 000000018013b800     GuMTD.obj
 0002:00003810       __xmm@bf000000bf000000bf000000bf000000 000000018013b810     GuMTD.obj
 0002:00003840       ??_7?$RelativeConvex@VBoxV@Gu@physx@@@Gu@physx@@6B@ 000000018013b840     GuOverlapTests.obj
 0002:00003870       ??_7?$RelativeConvex@VConvexHullV@Gu@physx@@@Gu@physx@@6B@ 000000018013b870     GuOverlapTests.obj
 0002:000038a0       ??_C@_0EC@MLIJOGHA@Height?5Field?5Overlap?5test?5calle@ 000000018013b8a0     GuOverlapTests.obj
 0002:000038f0       ??_C@_0EO@JEBNLOHP@C?3?2Users?2user?2Desktop?2PhysX?94?41@ 000000018013b8f0     GuOverlapTests.obj
 0002:00003970       ??_C@_0EC@GJLDADPE@Height?5Field?5Raycast?5test?5calle@ 000000018013b970     GuRaycastTests.obj
 0002:000039c0       ??_C@_0EO@GHNAMJNF@C?3?2Users?2user?2Desktop?2PhysX?94?41@ 000000018013b9c0     GuRaycastTests.obj
 0002:00003a10       __real@1e3ce508            000000018013ba10     GuRaycastTests.obj
 0002:00003a14       __real@28800000            000000018013ba14     GuRaycastTests.obj
 0002:00003a18       __real@33d6bf95            000000018013ba18     GuRaycastTests.obj
 0002:00003a1c       __real@3727c5ac            000000018013ba1c     GuRaycastTests.obj
 0002:00003a20       __real@3f0147ae            000000018013ba20     GuRaycastTests.obj
 0002:00003a24       __real@3f7ffffe            000000018013ba24     GuRaycastTests.obj
 0002:00003a28       __real@3f800347            000000018013ba28     GuRaycastTests.obj
 0002:00003a2c       __real@41200000            000000018013ba2c     GuRaycastTests.obj
 0002:00003a30       __real@80000000            000000018013ba30     GuRaycastTests.obj
 0002:00003a34       __real@b3d6bf95            000000018013ba34     GuRaycastTests.obj
 0002:00003a38       __real@b8d1b717            000000018013ba38     GuRaycastTests.obj
 0002:00003a3c       __real@c1200000            000000018013ba3c     GuRaycastTests.obj
 0002:00003a70       ??_7?$MeshHitCallback@UPxRaycastHit@physx@@@Gu@physx@@6B@ 000000018013ba70     GuSweepMTD.obj
 0002:00003a80       ??_7MeshMTDGenerationCallback@@6B@ 000000018013ba80     GuSweepMTD.obj
 0002:00003a90       ??_7MidPhaseQueryLocalReport@@6B@ 000000018013ba90     GuSweepMTD.obj
 0002:00003aa0       __real@3f933333            000000018013baa0     GuSweepMTD.obj
 0002:00003ab0       __xmm@00000000000000003f8000003f800000 000000018013bab0     GuSweepMTD.obj
 0002:00003ac0       __xmm@3e19999a3e19999a3e19999a3e19999a 000000018013bac0     GuSweepMTD.obj
 0002:00003ad0       __xmm@3e8000003e8000003e8000003e800000 000000018013bad0     GuSweepMTD.obj
 0002:00003b00       __real@3c23d70a            000000018013bb00     GuSweepSharedTests.obj
 0002:00003b04       __real@42c80000            000000018013bb04     GuSweepSharedTests.obj
 0002:00003b10       __xmm@ffffffffffffffffffffffffffffffff 000000018013bb10     GuSweepSharedTests.obj
 0002:00003b40       ??_C@_0EA@GNDJNJGB@Height?5Field?5Sweep?5test?5called?5@ 000000018013bb40     GuSweepTests.obj
 0002:00003b80       ??_C@_0EM@DGFCKJEN@C?3?2Users?2user?2Desktop?2PhysX?94?41@ 000000018013bb80     GuSweepTests.obj
 0002:00003bd0       ??_7?$LocalConvex@VBoxV@Gu@physx@@@Gu@physx@@6B@ 000000018013bbd0     GuSweepTests.obj
 0002:00003c00       ??_7?$LocalConvex@VTriangleV@Gu@physx@@@Gu@physx@@6B@ 000000018013bc00     GuSweepTests.obj
 0002:00003c30       __xmm@00000002000000020000000200000002 000000018013bc30     GuSweepTests.obj
 0002:00003c40       __xmm@3eaaaa9f3eaaaa9f3eaaaa9f3eaaaa9f 000000018013bc40     GuSweepTests.obj
 0002:00003c70       ??_C@_0EP@MBJPJFKC@C?3?2Users?2user?2Desktop?2PhysX?94?41@ 000000018013bc70     GuAABBTreeBuild.obj
 0002:00003cc0       ??_C@_0BC@EHGLOIPG@AABB?5tree?5indices@ 000000018013bcc0     GuAABBTreeBuild.obj
 0002:00003cd4       ??_C@_05BDNCCAMC@cache@    000000018013bcd4     GuAABBTreeBuild.obj
 0002:00003d00       ??_7PxBVHStructure@physx@@6B@ 000000018013bd00     GuBVHStructure.obj
 0002:00003d50       ??_C@_0P@CDPKBIIF@PxBVHStructure@ 000000018013bd50     GuBVHStructure.obj
 0002:00003d60       ??_7RefCountable@Cm@physx@@6B@ 000000018013bd60     GuBVHStructure.obj
 0002:00003d70       ??_7BVHStructure@Gu@physx@@6BPxBVHStructure@2@@ 000000018013bd70     GuBVHStructure.obj
 0002:00003dc0       ??_7BVHStructure@Gu@physx@@6BRefCountable@Cm@2@@ 000000018013bdc0     GuBVHStructure.obj
 0002:00003dd0       ??_C@_0M@LHBCGNCE@BVH?5indices@ 000000018013bdd0     GuBVHStructure.obj
 0002:00003de0       ??_C@_0EO@BAENEHJN@C?3?2Users?2user?2Desktop?2PhysX?94?41@ 000000018013bde0     GuBVHStructure.obj
 0002:00003e30       ??_C@_0L@HGOGJNHO@BVH?5bounds@ 000000018013be30     GuBVHStructure.obj
 0002:00003e40       ??_C@_09GFGBFFDA@BVH?5nodes@ 000000018013be40     GuBVHStructure.obj
 0002:00003e50       ??_C@_0DF@GMOKOMPK@Gu?3?3BVHStructure?3?3release?3?5doub@ 000000018013be50     GuBVHStructure.obj
 0002:00003e88       ??_C@_0BA@DMBHEKGP@BVH?5volume?5list@ 000000018013be88     GuBVHStructure.obj
 0002:00003f00       __real@00000000            000000018013bf00     GuCCDSweepConvexMesh.obj
 0002:00003f04       __real@3c343958            000000018013bf04     GuCCDSweepConvexMesh.obj
 0002:00003f08       __real@3ca3d70a            000000018013bf08     GuCCDSweepConvexMesh.obj
 0002:00003f0c       __real@3f0ccccd            000000018013bf0c     GuCCDSweepConvexMesh.obj
 0002:00003f10       __real@3f8ccccd            000000018013bf10     GuCCDSweepConvexMesh.obj
 0002:00003f14       __real@b58637bd            000000018013bf14     GuCCDSweepConvexMesh.obj
 0002:00003f20       __xmm@000000000000000000000000fe7fffff 000000018013bf20     GuCCDSweepConvexMesh.obj
 0002:00003f30       __xmm@fe7ffffffe7fffff7e7fffff7e7fffff 000000018013bf30     GuCCDSweepConvexMesh.obj
 0002:00003f60       ??_7?$RelativeConvex@VCapsuleV@Gu@physx@@@Gu@physx@@6B@ 000000018013bf60     GuCCDSweepPrimitives.obj
 0002:00003f90       ??_7?$RelativeConvex@VTriangleV@Gu@physx@@@Gu@physx@@6B@ 000000018013bf90     GuCCDSweepPrimitives.obj
 0002:00003fc0       __real@3ba3d70a            000000018013bfc0     GuCCDSweepPrimitives.obj
 0002:00003fc4       __real@501502f9            000000018013bfc4     GuCCDSweepPrimitives.obj
 0002:000040d0       __real@3f7fbe77            000000018013c0d0     GuContactBoxBox.obj
 0002:00004120       __real@3a83126f            000000018013c120     GuContactCapsuleCapsule.obj
 0002:00004124       __real@3f7ff2e5            000000018013c124     GuContactCapsuleCapsule.obj
 0002:00004128       __real@40800000            000000018013c128     GuContactCapsuleCapsule.obj
 0002:000041b0       __real@358637be            000000018013c1b0     GuContactCapsuleMesh.obj
 0002:000041b4       __real@3eaaaaab            000000018013c1b4     GuContactCapsuleMesh.obj
 0002:000041b8       __real@3f8020c5            000000018013c1b8     GuContactCapsuleMesh.obj
 0002:000041bc       __real@ba83126f            000000018013c1bc     GuContactCapsuleMesh.obj
 0002:00004210       ??_7ConvexMeshContactGenerationCallback@@6B@ 000000018013c210     GuContactConvexMesh.obj
 0002:00004290       __real@3ec90fdb            000000018013c290     GuContactPolygonPolygon.obj
 0002:00004294       __real@3f490fdb            000000018013c294     GuContactPolygonPolygon.obj
 0002:00004298       __real@3f96cbe4            000000018013c298     GuContactPolygonPolygon.obj
 0002:0000429c       __real@3fc90fdb            000000018013c29c     GuContactPolygonPolygon.obj
 0002:000042a0       __real@3ffb53d2            000000018013c2a0     GuContactPolygonPolygon.obj
 0002:000042a4       __real@4016cbe4            000000018013c2a4     GuContactPolygonPolygon.obj
 0002:000042a8       __real@402feddf            000000018013c2a8     GuContactPolygonPolygon.obj
 0002:000042b0       __xmm@ff7fffffff7fffffff7fffffff7fffff 000000018013c2b0     GuContactPolygonPolygon.obj
 0002:00004330       ??_C@_0DL@OAFGOMGB@Dropping?5contacts?5in?5sphere?5vs?5@ 000000018013c330     GuContactSphereMesh.obj
 0002:00004370       ??_C@_0FL@EELPPPKI@C?3?2Users?2user?2Desktop?2PhysX?94?41@ 000000018013c370     GuContactSphereMesh.obj
 0002:00004400       ??_C@_0EJ@NPOGDMKE@C?3?2Users?2user?2Desktop?2PhysX?94?41@ 000000018013c400     GuContactSphereMesh.obj
 0002:00004490       __real@bf000000            000000018013c490     GuContactSphereSphere.obj
 0002:00004498       ??_C@_0BD@PGLLAGCI@BigConvexData?5data@ 000000018013c498     GuBigConvexData.obj
 0002:000044b0       ??_C@_0FG@EGMOLJLA@C?3?2Users?2user?2Desktop?2PhysX?94?41@ 000000018013c4b0     GuBigConvexData.obj
 0002:00004508       ??_C@_0BH@NIMDLCCM@BigConvex?5Samples?5Data@ 000000018013c508     GuBigConvexData.obj
 0002:00004540       ??_7PxConvexMesh@physx@@6B@ 000000018013c540     GuConvexMesh.obj
 0002:000045b8       ??_7ConvexMesh@Gu@physx@@6BPxConvexMesh@2@@ 000000018013c5b8     GuConvexMesh.obj
 0002:00004640       ??_7ConvexMesh@Gu@physx@@6BRefCountable@Cm@2@@ 000000018013c640     GuConvexMesh.obj
 0002:00004650       ??_C@_0BE@EJGGFHND@ConvexHullData?5data@ 000000018013c650     GuConvexMesh.obj
 0002:00004670       ??_C@_0FD@PJHONFBP@C?3?2Users?2user?2Desktop?2PhysX?94?41@ 000000018013c670     GuConvexMesh.obj
 0002:000046c8       ??_C@_0DM@NEJKOFIP@Loading?5convex?5mesh?5failed?3?5Dep@ 000000018013c6c8     GuConvexMesh.obj
 0002:00004708       ??_C@_0DD@GDAMDLJL@Gu?3?3ConvexMesh?3?3release?3?5double@ 000000018013c708     GuConvexMesh.obj
 0002:00004760       __xmm@000000000000000000000000ffffffff 000000018013c760     GuConvexSupportTable.obj
 0002:00004770       __xmm@0000000000000000ffffffff00000000 000000018013c770     GuConvexSupportTable.obj
 0002:00004780       __xmm@0000000000000000ffffffffffffffff 000000018013c780     GuConvexSupportTable.obj
 0002:00004790       __xmm@00000000ffffffff0000000000000000 000000018013c790     GuConvexSupportTable.obj
 0002:000047a0       __xmm@00000000ffffffff00000000ffffffff 000000018013c7a0     GuConvexSupportTable.obj
 0002:000047b0       __xmm@00000000ffffffffffffffff00000000 000000018013c7b0     GuConvexSupportTable.obj
 0002:00004860       __real@2b8cbccc            000000018013c860     GuDistanceSegmentTriangle.obj
 0002:00004870       __xmm@3f8000013f8000013f8000013f800001 000000018013c870     GuDistanceSegmentTriangle.obj
 0002:00004880       __xmm@b4000000b4000000b4000000b4000000 000000018013c880     GuDistanceSegmentTriangle.obj
 0002:000048e0       __xmm@38d1b71738d1b71738d1b71738d1b717 000000018013c8e0     GuGJKSimplex.obj
 0002:000048f0       __xmm@b58637bdb58637bdb58637bdb58637bd 000000018013c8f0     GuGJKSimplex.obj
 0002:00004920       ??_7PxHeightField@physx@@6B@ 000000018013c920     GuHeightField.obj
 0002:000049c0       ??_7HeightField@Gu@physx@@6BPxHeightField@2@@ 000000018013c9c0     GuHeightField.obj
 0002:00004a70       ??_7HeightField@Gu@physx@@6BRefCountable@Cm@2@@ 000000018013ca70     GuHeightField.obj
 0002:00004a80       ??_C@_0DL@DNGFPCEG@Gu?3?3HeightField?3?3onRefCountZero@ 000000018013ca80     GuHeightField.obj
 0002:00004ac0       ??_C@_0FA@MFMAHLFI@C?3?2Users?2user?2Desktop?2PhysX?94?41@ 000000018013cac0     GuHeightField.obj
 0002:00004b10       ??_C@_0DF@LLAFPPKJ@Gu?3?3HeightField?3?3modifySamples?3@ 000000018013cb10     GuHeightField.obj
 0002:00004b48       ??_C@_0CI@DMKEKGNK@Gu?3?3HeightField?3?3load?3?5PX_ALLOC@ 000000018013cb48     GuHeightField.obj
 0002:00004b70       ??_C@_0DG@LACOBMDE@Gu?3?3HeightField?3?3loadFromDesc?3?5@ 000000018013cb70     GuHeightField.obj
 0002:00004bb0       ??_C@_0ED@KLLBHAME@C?3?2Users?2user?2Desktop?2PhysX?94?41@ 000000018013cbb0     GuHeightField.obj
 0002:00004c20       ??_C@_0DH@EJDJIMCB@HeightFieldShape?3?3getTriangle?3?5@ 000000018013cc20     GuHeightFieldUtil.obj
 0002:00004c60       ??_C@_0FE@NIJPOHGE@C?3?2Users?2user?2Desktop?2PhysX?94?41@ 000000018013cc60     GuHeightFieldUtil.obj
 0002:00004cb4       __real@3a03126f            000000018013ccb4     GuHeightFieldUtil.obj
 0002:00004cb8       __real@3f19999a            000000018013ccb8     GuHeightFieldUtil.obj
 0002:00004d20       ??_7HeightFieldTraceSegmentReport@@6B@ 000000018013cd20     GuSweepsHF.obj
 0002:00004d30       ??_7CapsuleTraceSegmentReport@@6B@ 000000018013cd30     GuSweepsHF.obj
 0002:00004d40       ??_7ConvexTraceSegmentReport@@6B@ 000000018013cd40     GuSweepsHF.obj
 0002:00004d50       ??_7BoxTraceSegmentReport@@6B@ 000000018013cd50     GuSweepsHF.obj
 0002:00004d60       __real@aedbe6ff            000000018013cd60     GuSweepsHF.obj
 0002:00004d90       __real@3089705f            000000018013cd90     GuIntersectionRayBox.obj
 0002:00004d94       __real@34000000            000000018013cd94     GuIntersectionRayBox.obj
 0002:00004d98       __real@b4000000            000000018013cd98     GuIntersectionRayBox.obj
 0002:00004da0       __xmm@000000003089705f3089705f3089705f 000000018013cda0     GuIntersectionRayBox.obj
 0002:00004db0       __xmm@00000000bf800000bf800000bf800000 000000018013cdb0     GuIntersectionRayBox.obj
 0002:00004e00       ??_C@_0EK@GPFJDLLA@C?3?2Users?2user?2Desktop?2PhysX?94?41@ 000000018013ce00     GuBV4.obj
 0002:00004e4c       ??_C@_04LHNPKPDA@OPC2@     000000018013ce4c     GuBV4.obj
 0002:00004e58       ??_C@_09JOJONBOP@BV4?5nodes@ 000000018013ce58     GuBV4.obj
 0002:00004e90       ??_C@_03DMLNBBKA@BV4@      000000018013ce90     GuBV4Build.obj
 0002:00004ea0       ??_C@_0EP@NOKHIDDO@C?3?2Users?2user?2Desktop?2PhysX?94?41@ 000000018013cea0     GuBV4Build.obj
 0002:00004ef0       ??_C@_0M@FLGHAIDC@BV4?5indices@ 000000018013cef0     GuBV4Build.obj
 0002:00004efc       __real@38000100            000000018013cefc     GuBV4Build.obj
 0002:00004f00       __real@3e93cd3a            000000018013cf00     GuBV4Build.obj
 0002:00004f04       __real@46fffe00            000000018013cf04     GuBV4Build.obj
 0002:00004f08       __real@be93cd3a            000000018013cf08     GuBV4Build.obj
 0002:00004f30       __xmm@0000ffff0000ffff0000ffff0000ffff 000000018013cf30     GuBV4_AABBSweep.obj
 0002:00004f40       __xmm@3089705f3089705f3089705f3089705f 000000018013cf40     GuBV4_AABBSweep.obj
 0002:00004f50       __xmm@33d6bf9533d6bf9533d6bf9533d6bf95 000000018013cf50     GuBV4_AABBSweep.obj
 0002:00004f60       __xmm@40000000400000004000000040000000 000000018013cf60     GuBV4_AABBSweep.obj
 0002:00005070       __xmm@00000000000000007f7fffff00000000 000000018013d070     GuMidphaseBV4.obj
 0002:000050e0       ??_C@_0DK@FFHPKGEP@PxMeshQuery?3?3getTriangle?3?5trian@ 000000018013d0e0     GuMeshQuery.obj
 0002:00005120       ??_C@_0FA@MGCIIDDD@C?3?2Users?2user?2Desktop?2PhysX?94?41@ 000000018013d120     GuMeshQuery.obj
 0002:00005170       ??_C@_0FD@EHCCILIF@Adjacency?5information?5not?5creat@ 000000018013d170     GuMeshQuery.obj
 0002:000051d0       ??_C@_0FA@MCAAGAGM@findOverlapTriangleMesh?3?5Only?5b@ 000000018013d1d0     GuMeshQuery.obj
 0002:00005220       ??_C@_0EM@BEFNLPHI@findOverlapHeightField?3?5Only?5bo@ 000000018013d220     GuMeshQuery.obj
 0002:00005270       ??_C@_0CJ@NLNHIMDM@PxMeshQuery?3?3sweep?$CI?$CJ?3?5pose?5is?5n@ 000000018013d270     GuMeshQuery.obj
 0002:000052a0       ??_C@_0CM@BFKJPOOO@PxMeshQuery?3?3sweep?$CI?$CJ?3?5unitDir?5i@ 000000018013d2a0     GuMeshQuery.obj
 0002:000052d0       ??_C@_0CN@JKBDLLPP@PxMeshQuery?3?3sweep?$CI?$CJ?3?5distance?5@ 000000018013d2d0     GuMeshQuery.obj
 0002:00005300       ??_C@_0DN@DPNNFGGF@PxMeshQuery?3?3sweep?$CI?$CJ?3?5sweep?5dis@ 000000018013d300     GuMeshQuery.obj
 0002:00005340       ??_C@_0BA@MBAFFELP@MeshQuery?4sweep@ 000000018013d340     GuMeshQuery.obj
 0002:00005350       ??_C@_0FJ@GNAHJJCM@PxMeshQuery?3?3sweep?$CI?$CJ?3?5geometry?5@ 000000018013d350     GuMeshQuery.obj
 0002:000053ac       __real@4cbebc20            000000018013d3ac     GuMeshQuery.obj
 0002:000053d0       ??_7Callback@RTree@Gu@physx@@6B@ 000000018013d3d0     GuMidphaseRTree.obj
 0002:000053e8       ??_7CallbackRaycast@RTree@Gu@physx@@6B@ 000000018013d3e8     GuMidphaseRTree.obj
 0002:000053e8       ??_7CallbackRefit@RTree@Gu@physx@@6B@ 000000018013d3e8     GuTriangleMeshRTree.obj
 0002:000053f8       ??_7?$RayRTreeCallback@$0A@$0A@@@6BCallbackRaycast@RTree@Gu@physx@@@ 000000018013d3f8     GuMidphaseRTree.obj
 0002:000053f8       ??_7?$RayRTreeCallback@$00$0A@@@6BCallbackRaycast@RTree@Gu@physx@@@ 000000018013d3f8     GuMidphaseRTree.obj
 0002:00005408       ??_7?$RayRTreeCallback@$0A@$0A@@@6BCallback@RTree@Gu@physx@@@ 000000018013d408     GuMidphaseRTree.obj
 0002:00005408       ??_7?$RayRTreeCallback@$00$0A@@@6BCallback@RTree@Gu@physx@@@ 000000018013d408     GuMidphaseRTree.obj
 0002:00005420       ??_7RayMeshColliderCallback@@6B@ 000000018013d420     GuMidphaseRTree.obj
 0002:00005430       ??_7?$RayRTreeCallback@$0A@$00@@6BCallbackRaycast@RTree@Gu@physx@@@ 000000018013d430     GuMidphaseRTree.obj
 0002:00005440       ??_7?$RayRTreeCallback@$0A@$00@@6BCallback@RTree@Gu@physx@@@ 000000018013d440     GuMidphaseRTree.obj
 0002:00005458       ??_7?$RayRTreeCallback@$00$00@@6BCallbackRaycast@RTree@Gu@physx@@@ 000000018013d458     GuMidphaseRTree.obj
 0002:00005468       ??_7?$RayRTreeCallback@$00$00@@6BCallback@RTree@Gu@physx@@@ 000000018013d468     GuMidphaseRTree.obj
 0002:00005540       ??_7ConvexVsMeshOverlapCallback@@6B@ 000000018013d540     GuOverlapTestsMesh.obj
 0002:00005550       ?MN@RTreePage@Gu@physx@@2MB 000000018013d550     GuRTree.obj
 0002:00005554       ?MX@RTreePage@Gu@physx@@2MB 000000018013d554     GuRTree.obj
 0002:00005580       ??_C@_0EM@JNHABACC@C?3?2Users?2user?2Desktop?2PhysX?94?41@ 000000018013d580     GuRTree.obj
 0002:00005640       ??_7SweepShapeMeshHitCallback@Gu@physx@@6B@ 000000018013d640     GuSweepsMesh.obj
 0002:00005650       ??_7SweepCapsuleMeshHitCallback@Gu@physx@@6B@ 000000018013d650     GuSweepsMesh.obj
 0002:00005660       ??_7SweepBoxMeshHitCallback@Gu@physx@@6B@ 000000018013d660     GuSweepsMesh.obj
 0002:00005670       ??_7SweepConvexMeshHitCallback@Gu@physx@@6B@ 000000018013d670     GuSweepsMesh.obj
 0002:000056a0       ??_7PxTriangleMesh@physx@@6B@ 000000018013d6a0     GuTriangleMesh.obj
 0002:00005728       ??_7TriangleMesh@Gu@physx@@6BPxTriangleMesh@2@@ 000000018013d728     GuTriangleMesh.obj
 0002:000057c8       ??_7TriangleMesh@Gu@physx@@6BRefCountable@Cm@2@@ 000000018013d7c8     GuTriangleMesh.obj
 0002:000057d8       ??_C@_0DF@DNLKAHAL@Gu?3?3TriangleMesh?3?3release?3?5doub@ 000000018013d7d8     GuTriangleMesh.obj
 0002:00005810       ??_C@_0FD@MHCOHKPO@C?3?2Users?2user?2Desktop?2PhysX?94?41@ 000000018013d810     GuTriangleMesh.obj
 0002:00005870       ??_C@_0GH@IGKFPLIJ@PxTriangleMesh?3?3getVerticesForM@ 000000018013d870     GuTriangleMesh.obj
 0002:000058e0       ??_C@_0FF@LHAOBIMM@PxTriangleMesh?3?3refitBVH?$CI?$CJ?5is?5o@ 000000018013d8e0     GuTriangleMesh.obj
 0002:00005960       ??_C@_0BE@CNJKIINO@PxBVH34TriangleMesh@ 000000018013d960     GuTriangleMeshBV4.obj
 0002:00005978       ??_7BV4TriangleMesh@Gu@physx@@6BPxTriangleMesh@2@@ 000000018013d978     GuTriangleMeshBV4.obj
 0002:00005a18       ??_7BV4TriangleMesh@Gu@physx@@6BRefCountable@Cm@2@@ 000000018013da18     GuTriangleMeshBV4.obj
 0002:00005a50       ??_C@_0BE@EIFHCCBO@PxBVH33TriangleMesh@ 000000018013da50     GuTriangleMeshRTree.obj
 0002:00005a68       ??_7RTreeTriangleMesh@Gu@physx@@6BPxTriangleMesh@2@@ 000000018013da68     GuTriangleMeshRTree.obj
 0002:00005b08       ??_7RTreeTriangleMesh@Gu@physx@@6BRefCountable@Cm@2@@ 000000018013db08     GuTriangleMeshRTree.obj
 0002:00005b18       ??_7?$RefitCallback@G@physx@@6B@ 000000018013db18     GuTriangleMeshRTree.obj
 0002:00005b28       ??_7?$RefitCallback@I@physx@@6B@ 000000018013db28     GuTriangleMeshRTree.obj
 0002:00005b40       __xmm@38383838383838383838383838383838 000000018013db40     GuTriangleMeshRTree.obj
 0002:00005b50       ??_C@_0P@KDMGEHMF@BV32DataPacked@ 000000018013db50     GuBV32.obj
 0002:00005b60       ??_C@_0EL@LHENALKG@C?3?2Users?2user?2Desktop?2PhysX?94?41@ 000000018013db60     GuBV32.obj
 0002:00005bd0       ??_C@_0FA@JDOCFNAG@C?3?2Users?2user?2Desktop?2PhysX?94?41@ 000000018013dbd0     GuBV32Build.obj
 0002:00005c20       ??_C@_04DONFFMAN@BV32@     000000018013dc20     GuBV32Build.obj
 0002:00005c50       __xmm@00000000358637bd358637bd358637bd 000000018013dc50     GuPCMContactBoxBox.obj
 0002:00005c60       __xmm@3d4ccccd3d4ccccd3d4ccccd3d4ccccd 000000018013dc60     GuPCMContactBoxBox.obj
 0002:00005c70       __xmm@3f4ccccd3f4ccccd3f4ccccd3f4ccccd 000000018013dc70     GuPCMContactBoxBox.obj
 0002:00005c80       __xmm@ffffffff00000000ffffffffffffffff 000000018013dc80     GuPCMContactBoxBox.obj
 0002:00005cb0       ??_7?$LocalConvex@VConvexHullNoScaleV@Gu@physx@@@Gu@physx@@6B@ 000000018013dcb0     GuPCMContactBoxConvex.obj
 0002:00005ce0       __xmm@3f3504f33f3504f33f3504f33f3504f3 000000018013dce0     GuPCMContactBoxConvex.obj
 0002:00005d30       __xmm@ffffffffffffffffffffffff00000000 000000018013dd30     GuPCMContactCapsuleCapsule.obj
 0002:00005d60       __xmm@3fa000003fa000003fa000003fa00000 000000018013dd60     GuPCMContactCapsuleConvex.obj
 0002:00005d90       ??_7PCMCapsuleVsHeightfieldContactGenerationCallback@physx@@6B@ 000000018013dd90     GuPCMContactCapsuleHeightField.obj
 0002:00005da0       __real@3f7f3b64            000000018013dda0     GuPCMContactCapsuleHeightField.obj
 0002:00005db0       __xmm@3f7ef9db3f7ef9db3f7ef9db3f7ef9db 000000018013ddb0     GuPCMContactCapsuleHeightField.obj
 0002:00005df0       ??_7PCMCapsuleVsMeshContactGenerationCallback@physx@@6B@ 000000018013ddf0     GuPCMContactCapsuleMesh.obj
 0002:00005e20       ??_7?$SupportLocalImpl@VTriangleV@Gu@physx@@@Gu@physx@@6B@ 000000018013de20     GuPCMContactConvexCommon.obj
 0002:00005e40       ??_C@_0FC@PJPAGEBJ@C?3?2Users?2user?2Desktop?2PhysX?94?41@ 000000018013de40     GuPCMContactConvexCommon.obj
 0002:00005ea0       __xmm@3cf5c2803cf5c2803cf5c2803cf5c280 000000018013dea0     GuPCMContactConvexCommon.obj
 0002:00005eb0       __xmm@3f7851ec3f7851ec3f7851ec3f7851ec 000000018013deb0     GuPCMContactConvexCommon.obj
 0002:00005ec0       __xmm@3f7ff9723f7ff9723f7ff9723f7ff972 000000018013dec0     GuPCMContactConvexCommon.obj
 0002:00005ed0       __xmm@3f7fffef3f7fffef3f7fffef3f7fffef 000000018013ded0     GuPCMContactConvexCommon.obj
 0002:00005f00       ??_7?$RelativeConvex@VConvexHullNoScaleV@Gu@physx@@@Gu@physx@@6B@ 000000018013df00     GuPCMContactConvexConvex.obj
 0002:00005f50       ??_7PCMConvexVsHeightfieldContactGenerationCallback@physx@@6B@ 000000018013df50     GuPCMContactConvexHeightField.obj
 0002:00005f60       __xmm@3f19999a3f19999a3f19999a3f19999a 000000018013df60     GuPCMContactConvexHeightField.obj
 0002:00005fa0       ??_7PCMConvexVsMeshContactGenerationCallback@physx@@6B@ 000000018013dfa0     GuPCMContactConvexMesh.obj
 0002:00005fd0       __xmm@3f34fdf43f34fdf43f34fdf43f34fdf4 000000018013dfd0     GuPCMContactGenBoxConvex.obj
 0002:00006000       __xmm@3f80a3d73f80a3d73f80a3d73f80a3d7 000000018013e000     GuPCMContactGenSphereCapsule.obj
 0002:00006010       __xmm@bba3d70abba3d70abba3d70abba3d70a 000000018013e010     GuPCMContactGenSphereCapsule.obj
 0002:00006060       __real@3b23d70b            000000018013e060     GuPCMContactPlaneCapsule.obj
 0002:00006070       __xmm@3ca3d70a3ca3d70a3ca3d70a3ca3d70a 000000018013e070     GuPCMContactPlaneCapsule.obj
 0002:00006120       ??_7PCMSphereVsHeightfieldContactGenerationCallback@physx@@6B@ 000000018013e120     GuPCMContactSphereHeightField.obj
 0002:00006160       ??_7PCMSphereVsMeshContactGenerationCallback@physx@@6B@ 000000018013e160     GuPCMContactSphereMesh.obj
 0002:000061b0       __xmm@3727c5ac3727c5ac3727c5ac3727c5ac 000000018013e1b0     GuPCMContactSphereSphere.obj
 0002:000061e0       ?gPCMBoxPolygonData@Gu@physx@@3QBEB 000000018013e1e0     GuPCMShapeConvex.obj
 0002:00006220       ?invalidateThresholds@Gu@physx@@3QBMB 000000018013e220     GuPersistentContactManifold.obj
 0002:00006238       ?invalidateQuatThresholds@Gu@physx@@3QBMB 000000018013e238     GuPersistentContactManifold.obj
 0002:00006250       ?invalidateThresholds2@Gu@physx@@3QBMB 000000018013e250     GuPersistentContactManifold.obj
 0002:00006260       ?invalidateQuatThresholds2@Gu@physx@@3QBMB 000000018013e260     GuPersistentContactManifold.obj
 0002:00006290       __xmm@000000003f8000003f80000000000000 000000018013e290     GuPersistentContactManifold.obj
 0002:000062a0       __xmm@00000000bf8000003f80000000000000 000000018013e2a0     GuPersistentContactManifold.obj
 0002:000062b0       __xmm@ffffffffffffffff00000000ffffffff 000000018013e2b0     GuPersistentContactManifold.obj
 0002:00006300       __real@b727c5ac            000000018013e300     GuSweepBoxSphere.obj
 0002:00006370       ??_C@_0FH@JBHFHHLD@C?3?2Users?2user?2Desktop?2PhysX?94?41@ 000000018013e370     GuSweepCapsuleBox.obj
 0002:000063f0       __real@3f7fff58            000000018013e3f0     GuSweepCapsuleTriangle.obj
 0002:00006440       __sz_PhysXFoundation_64_dll 000000018013e440     PhysXFoundation_64:PhysXFoundation_64.dll
 0002:00006458       ??_C@_1BK@DBDEIDLH@?$AAK?$AAE?$AAR?$AAN?$AAE?$AAL?$AA3?$AA2?$AA?4?$AAD?$AAL?$AAL@ 000000018013e458     Delayimp:delayhlp.obj
 0002:00006478       ??_C@_0BI@OMNLIJDB@AcquireSRWLockExclusive@ 000000018013e478     Delayimp:delayhlp.obj
 0002:00006490       ??_C@_0BI@HMIEPCNJ@ReleaseSRWLockExclusive@ 000000018013e490     Delayimp:delayhlp.obj
 0002:000064a8       __pfnDliFailureHook2       000000018013e4a8     Delayimp:delayhk1.obj
 0002:000064b8       ??_7type_info@@6B@         000000018013e4b8     LIBCMT:std_type_info_static.obj
 0002:00006520       _pDefaultRawDllMain        000000018013e520     LIBCMT:dll_dllmain.obj
 0002:00006520       _pRawDllMain               000000018013e520     LIBCMT:dll_dllmain.obj
 0002:00006530       _load_config_used          000000018013e530     LIBCMT:loadcfg.obj
 0002:00006668       _pDestructExceptionObject  000000018013e668     libvcruntime:ehhelpers.obj
 0002:00006d70       ??_C@_08EHJDFFNH@__based?$CI@ 000000018013ed70     libvcruntime:undname.obj
 0002:00006d80       ??_C@_07KOLFKCDI@__cdecl@  000000018013ed80     libvcruntime:undname.obj
 0002:00006d88       ??_C@_08GHMPAG@__pascal@   000000018013ed88     libvcruntime:undname.obj
 0002:00006d98       ??_C@_09IFJBGAPI@__stdcall@ 000000018013ed98     libvcruntime:undname.obj
 0002:00006da8       ??_C@_0L@NPHFGOKO@__thiscall@ 000000018013eda8     libvcruntime:undname.obj
 0002:00006db8       ??_C@_0L@JMKHOMEK@__fastcall@ 000000018013edb8     libvcruntime:undname.obj
 0002:00006dc8       ??_C@_0N@BCKKPABJ@__vectorcall@ 000000018013edc8     libvcruntime:undname.obj
 0002:00006dd8       ??_C@_09HIJEGCPM@__clrcall@ 000000018013edd8     libvcruntime:undname.obj
 0002:00006de4       ??_C@_06GHPCKEAG@__eabi@   000000018013ede4     libvcruntime:undname.obj
 0002:00006df0       ??_C@_09IOPIDJLG@__swift_1@ 000000018013edf0     libvcruntime:undname.obj
 0002:00006e00       ??_C@_09KFNFGKHF@__swift_2@ 000000018013ee00     libvcruntime:undname.obj
 0002:00006e10       ??_C@_07JOMMBBKO@__ptr64@  000000018013ee10     libvcruntime:undname.obj
 0002:00006e18       ??_C@_0L@PILCLIHE@__restrict@ 000000018013ee18     libvcruntime:undname.obj
 0002:00006e28       ??_C@_0M@GFIIJFMG@__unaligned@ 000000018013ee28     libvcruntime:undname.obj
 0002:00006e38       ??_C@_09DHDLOLLB@restrict?$CI@ 000000018013ee38     libvcruntime:undname.obj
 0002:00006e42       ??_C@_00CNPNBAHC@@         000000018013ee42     libvcruntime:undname.obj
 0002:00006e44       ??_C@_04NIHEBCM@?5new@     000000018013ee44     libvcruntime:undname.obj
 0002:00006e50       ??_C@_07FPCDHGMM@?5delete@ 000000018013ee50     libvcruntime:undname.obj
 0002:00006e58       ??_C@_01NEMOKFLO@?$DN@     000000018013ee58     libvcruntime:undname.obj
 0002:00006e5c       ??_C@_02GPIOPFAK@?$DO?$DO@ 000000018013ee5c     libvcruntime:undname.obj
 0002:00006e60       ??_C@_02FODMEDOG@?$DM?$DM@ 000000018013ee60     libvcruntime:undname.obj
 0002:00006e64       ??_C@_01DCLJPIOD@?$CB@     000000018013ee64     libvcruntime:undname.obj
 0002:00006e68       ??_C@_02EGOFBIJA@?$DN?$DN@ 000000018013ee68     libvcruntime:undname.obj
 0002:00006e6c       ??_C@_02FDNJECIE@?$CB?$DN@ 000000018013ee6c     libvcruntime:undname.obj
 0002:00006e70       ??_C@_02GPECMEKF@?$FL?$FN@ 000000018013ee70     libvcruntime:undname.obj
 0002:00006e78       ??_C@_08LHJFAFGD@operator@ 000000018013ee78     libvcruntime:undname.obj
 0002:00006e84       ??_C@_02HBOOOICD@?9?$DO@   000000018013ee84     libvcruntime:undname.obj
 0002:00006e88       ??_C@_01NBENCBCI@?$CK@     000000018013ee88     libvcruntime:undname.obj
 0002:00006e8c       ??_C@_02ECNGHCIF@?$CL?$CL@ 000000018013ee8c     libvcruntime:undname.obj
 0002:00006e90       ??_C@_02BAABKJLB@?9?9@     000000018013ee90     libvcruntime:undname.obj
 0002:00006e94       ??_C@_01JOAMLHOP@?9@       000000018013ee94     libvcruntime:undname.obj
 0002:00006e98       ??_C@_01MIFGBAGJ@?$CL@     000000018013ee98     libvcruntime:undname.obj
 0002:00006e9c       ??_C@_01HNPIGOCE@?$CG@     000000018013ee9c     libvcruntime:undname.obj
 0002:00006ea0       ??_C@_03MNHNFDLC@?9?$DO?$CK@ 000000018013eea0     libvcruntime:undname.obj
 0002:00006ea4       ??_C@_01KMDKNFGN@?1@       000000018013eea4     libvcruntime:undname.obj
 0002:00006ea8       ??_C@_01FGNFDNOH@?$CF@     000000018013eea8     libvcruntime:undname.obj
 0002:00006eac       ??_C@_01MNNFJEPP@?$DM@     000000018013eeac     libvcruntime:undname.obj
 0002:00006eb0       ??_C@_02EHCHHCKH@?$DM?$DN@ 000000018013eeb0     libvcruntime:undname.obj
 0002:00006eb4       ??_C@_01PPODPGHN@?$DO@     000000018013eeb4     libvcruntime:undname.obj
 0002:00006eb8       ??_C@_02EEKDKGMJ@?$DO?$DN@ 000000018013eeb8     libvcruntime:undname.obj
 0002:00006ebc       ??_C@_01IHBHIGKO@?0@       000000018013eebc     libvcruntime:undname.obj
 0002:00006ec0       ??_C@_02HCKGKOFO@?$CI?$CJ@ 000000018013eec0     libvcruntime:undname.obj
 0002:00006ec4       ??_C@_01PJKLJHI@?$HO@      000000018013eec4     libvcruntime:undname.obj
 0002:00006ec8       ??_C@_01JKBOJNNK@?$FO@     000000018013eec8     libvcruntime:undname.obj
 0002:00006ecc       ??_C@_01DNKMNLPK@?$HM@     000000018013eecc     libvcruntime:undname.obj
 0002:00006ed0       ??_C@_02PPKAJPJL@?$CG?$CG@ 000000018013eed0     libvcruntime:undname.obj
 0002:00006ed4       ??_C@_02NONPIBCD@?$HM?$HM@ 000000018013eed4     libvcruntime:undname.obj
 0002:00006ed8       ??_C@_02FPIMKNGF@?$CK?$DN@ 000000018013eed8     libvcruntime:undname.obj
 0002:00006edc       ??_C@_02FOEOMHFC@?$CL?$DN@ 000000018013eedc     libvcruntime:undname.obj
 0002:00006ee0       ??_C@_02FKMDLLOA@?9?$DN@   000000018013eee0     libvcruntime:undname.obj
 0002:00006ee4       ??_C@_02FJEHGPIO@?1?$DN@   000000018013eee4     libvcruntime:undname.obj
 0002:00006ee8       ??_C@_02FENAOKFI@?$CF?$DN@ 000000018013eee8     libvcruntime:undname.obj
 0002:00006eec       ??_C@_03IKFCCPFF@?$DO?$DO?$DN@ 000000018013eeec     libvcruntime:undname.obj
 0002:00006ef0       ??_C@_03CDNPDDLA@?$DM?$DM?$DN@ 000000018013eef0     libvcruntime:undname.obj
 0002:00006ef4       ??_C@_02FGJGFEAB@?$CG?$DN@ 000000018013eef4     libvcruntime:undname.obj
 0002:00006ef8       ??_C@_02DHLNPPGH@?$HM?$DN@ 000000018013eef8     libvcruntime:undname.obj
 0002:00006efc       ??_C@_02MHEGNOJ@?$FO?$DN@  000000018013eefc     libvcruntime:undname.obj
 0002:00006f00       ??_C@_09IFPLHPGF@?$GAvftable?8@ 000000018013ef00     libvcruntime:undname.obj
 0002:00006f10       ??_C@_09BLBHBJP@?$GAvbtable?8@ 000000018013ef10     libvcruntime:undname.obj
 0002:00006f20       ??_C@_07FEEIOKP@?$GAvcall?8@ 000000018013ef20     libvcruntime:undname.obj
 0002:00006f28       ??_C@_08LLFFHHDJ@?$GAtypeof?8@ 000000018013ef28     libvcruntime:undname.obj
 0002:00006f38       ??_C@_0BF@KDPPACIK@?$GAlocal?5static?5guard?8@ 000000018013ef38     libvcruntime:undname.obj
 0002:00006f50       ??_C@_08OBABFOLI@?$GAstring?8@ 000000018013ef50     libvcruntime:undname.obj
 0002:00006f60       ??_C@_0BD@JDLKDPAB@?$GAvbase?5destructor?8@ 000000018013ef60     libvcruntime:undname.obj
 0002:00006f78       ??_C@_0BN@DEGPLNFK@?$GAvector?5deleting?5destructor?8@ 000000018013ef78     libvcruntime:undname.obj
 0002:00006f98       ??_C@_0BO@OBMKPJIG@?$GAdefault?5constructor?5closure?8@ 000000018013ef98     libvcruntime:undname.obj
 0002:00006fb8       ??_C@_0BN@IMDCHIKM@?$GAscalar?5deleting?5destructor?8@ 000000018013efb8     libvcruntime:undname.obj
 0002:00006fd8       ??_C@_0BO@PFGOCPJJ@?$GAvector?5constructor?5iterator?8@ 000000018013efd8     libvcruntime:undname.obj
 0002:00006ff8       ??_C@_0BN@LFPFMEDL@?$GAvector?5destructor?5iterator?8@ 000000018013eff8     libvcruntime:undname.obj
 0002:00007018       ??_C@_0CE@IKBNEHA@?$GAvector?5vbase?5constructor?5itera@ 000000018013f018     libvcruntime:undname.obj
 0002:00007040       ??_C@_0BL@NILFHHPC@?$GAvirtual?5displacement?5map?8@ 000000018013f040     libvcruntime:undname.obj
 0002:00007060       ??_C@_0CB@JONCMFFK@?$GAeh?5vector?5constructor?5iterator@ 000000018013f060     libvcruntime:undname.obj
 0002:00007088       ??_C@_0CA@GCEOPDGL@?$GAeh?5vector?5destructor?5iterator?8@ 000000018013f088     libvcruntime:undname.obj
 0002:000070a8       ??_C@_0CH@OOJPLCPH@?$GAeh?5vector?5vbase?5constructor?5it@ 000000018013f0a8     libvcruntime:undname.obj
 0002:000070d0       ??_C@_0BL@LLKPOHJI@?$GAcopy?5constructor?5closure?8@ 000000018013f0d0     libvcruntime:undname.obj
 0002:000070f0       ??_C@_0BA@KBCDOMBN@?$GAudt?5returning?8@ 000000018013f0f0     libvcruntime:undname.obj
 0002:00007100       ??_C@_03KLGMFNMG@?$GAEH@   000000018013f100     libvcruntime:undname.obj
 0002:00007104       ??_C@_05KHLCHHI@?$GARTTI@  000000018013f104     libvcruntime:undname.obj
 0002:00007110       ??_C@_0BA@KKLDJDLB@?$GAlocal?5vftable?8@ 000000018013f110     libvcruntime:undname.obj
 0002:00007120       ??_C@_0CE@IIHCMGGL@?$GAlocal?5vftable?5constructor?5clos@ 000000018013f120     libvcruntime:undname.obj
 0002:00007144       ??_C@_06FHBGPFGH@?5new?$FL?$FN@ 000000018013f144     libvcruntime:undname.obj
 0002:00007150       ??_C@_09LBNFPBCA@?5delete?$FL?$FN@ 000000018013f150     libvcruntime:undname.obj
 0002:00007160       ??_C@_0P@HJKNJFNN@?$GAomni?5callsig?8@ 000000018013f160     libvcruntime:undname.obj
 0002:00007170       ??_C@_0BL@CNOONJFP@?$GAplacement?5delete?5closure?8@ 000000018013f170     libvcruntime:undname.obj
 0002:00007190       ??_C@_0BN@CKNJLHMB@?$GAplacement?5delete?$FL?$FN?5closure?8@ 000000018013f190     libvcruntime:undname.obj
 0002:000071b0       ??_C@_0CG@CFDHKGGD@?$GAmanaged?5vector?5constructor?5ite@ 000000018013f1b0     libvcruntime:undname.obj
 0002:000071d8       ??_C@_0CF@IMGKMJNO@?$GAmanaged?5vector?5destructor?5iter@ 000000018013f1d8     libvcruntime:undname.obj
 0002:00007200       ??_C@_0CG@HLDDJMAG@?$GAeh?5vector?5copy?5constructor?5ite@ 000000018013f200     libvcruntime:undname.obj
 0002:00007228       ??_C@_0CM@FCBBDIGB@?$GAeh?5vector?5vbase?5copy?5construct@ 000000018013f228     libvcruntime:undname.obj
 0002:00007258       ??_C@_0BL@CLIPGLGB@?$GAdynamic?5initializer?5for?5?8@ 000000018013f258     libvcruntime:undname.obj
 0002:00007278       ??_C@_0CB@PDBIFEP@?$GAdynamic?5atexit?5destructor?5for?5@ 000000018013f278     libvcruntime:undname.obj
 0002:000072a0       ??_C@_0CD@CGAJBKEJ@?$GAvector?5copy?5constructor?5iterat@ 000000018013f2a0     libvcruntime:undname.obj
 0002:000072c8       ??_C@_0CJ@GJELGAMM@?$GAvector?5vbase?5copy?5constructor?5@ 000000018013f2c8     libvcruntime:undname.obj
 0002:000072f8       ??_C@_0CL@FGIJHLCE@?$GAmanaged?5vector?5copy?5constructo@ 000000018013f2f8     libvcruntime:undname.obj
 0002:00007328       ??_C@_0BM@PMGGMLDN@?$GAlocal?5static?5thread?5guard?8@ 000000018013f328     libvcruntime:undname.obj
 0002:00007348       ??_C@_0N@BDNMDMOL@operator?5?$CC?$CC?5@ 000000018013f348     libvcruntime:undname.obj
 0002:00007358       ??_C@_0BC@GGEBGALA@operator?5co_await@ 000000018013f358     libvcruntime:undname.obj
 0002:00007370       ??_C@_0M@GAAIMMOH@operator?$DM?$DN?$DO@ 000000018013f370     libvcruntime:undname.obj
 0002:00007380       ??_C@_0BC@DAFEJGAK@?5Type?5Descriptor?8@ 000000018013f380     libvcruntime:undname.obj
 0002:00007398       ??_C@_0BM@LDKODKLH@?5Base?5Class?5Descriptor?5at?5?$CI@ 000000018013f398     libvcruntime:undname.obj
 0002:000073b8       ??_C@_0BD@LGICGFMM@?5Base?5Class?5Array?8@ 000000018013f3b8     libvcruntime:undname.obj
 0002:000073d0       ??_C@_0BN@MECKDCOJ@?5Class?5Hierarchy?5Descriptor?8@ 000000018013f3d0     libvcruntime:undname.obj
 0002:000073f0       ??_C@_0BK@CFCOFLF@?5Complete?5Object?5Locator?8@ 000000018013f3f0     libvcruntime:undname.obj
 0002:00007410       ??_C@_0BG@JNJLAMPM@?$GAanonymous?5namespace?8@ 000000018013f410     libvcruntime:undname.obj
 0002:00007428       ??_C@_04HEJADOOB@CV?3?5@   000000018013f428     libvcruntime:undname.obj
 0002:00007430       ??_C@_02MOLJINC@?3?3@      000000018013f430     libvcruntime:undname.obj
 0002:00007438       ??_C@_0BE@JAEOCHPE@template?9parameter?9@ 000000018013f438     libvcruntime:undname.obj
 0002:00007450       ??_C@_0BF@LNLGBBNL@?$GAtemplate?9parameter?9@ 000000018013f450     libvcruntime:undname.obj
 0002:00007468       ??_C@_0O@KHGCOMHP@generic?9type?9@ 000000018013f468     libvcruntime:undname.obj
 0002:00007478       ??_C@_0P@ODDENDLM@?$GAgeneric?9type?9@ 000000018013f478     libvcruntime:undname.obj
 0002:00007488       ??_C@_02OHHJMEON@?8?8@     000000018013f488     libvcruntime:undname.obj
 0002:00007490       ??_C@_0BN@IBLMMFAP@?$GAnon?9type?9template?9parameter@ 000000018013f490     libvcruntime:undname.obj
 0002:000074b0       ??_C@_03DLDNIBIK@?$CFlf@   000000018013f4b0     libvcruntime:undname.obj
 0002:000074b4       ??_C@_04OFALKAJ@?$DP?$DP_C@ 000000018013f4b4     libvcruntime:undname.obj
 0002:000074bc       ??_C@_03KHICJKCI@?4?4?4@   000000018013f4bc     libvcruntime:undname.obj
 0002:000074c0       ??_C@_04HIBGFPH@NULL@      000000018013f4c0     libvcruntime:undname.obj
 0002:000074c8       ??_C@_02DPKJAMEF@?$CFd@    000000018013f4c8     libvcruntime:undname.obj
 0002:000074d0       ??_C@_0BK@IHCCFNEL@?$GAtemplate?9type?9parameter?9@ 000000018013f4d0     libvcruntime:undname.obj
 0002:000074f0       ??_C@_0BK@OFCNNNKO@?$GAgeneric?9class?9parameter?9@ 000000018013f4f0     libvcruntime:undname.obj
 0002:00007510       ??_C@_0BL@NGJBLFIL@?$GAgeneric?9method?9parameter?9@ 000000018013f510     libvcruntime:undname.obj
 0002:00007530       ??_C@_07OHNGEDJK@nullptr@  000000018013f530     libvcruntime:undname.obj
 0002:00007538       ??_C@_0BE@EODMJLIF@?$GAtemplate?9parameter@ 000000018013f538     libvcruntime:undname.obj
 0002:0000754c       ??_C@_03OPGICMGF@?$HN?8?5@ 000000018013f54c     libvcruntime:undname.obj
 0002:00007550       ??_C@_02IGFCGPIL@?$HN?8@   000000018013f550     libvcruntime:undname.obj
 0002:00007558       ??_C@_0N@CBHHHENL@?$GAvtordispex?$HL@ 000000018013f558     libvcruntime:undname.obj
 0002:00007568       ??_C@_0L@GHPFDFH@?$GAvtordisp?$HL@ 000000018013f568     libvcruntime:undname.obj
 0002:00007578       ??_C@_0L@HNGCOGAE@?$GAadjustor?$HL@ 000000018013f578     libvcruntime:undname.obj
 0002:00007588       ??_C@_0CB@KJDOOODE@?$GAlocal?5static?5destructor?5helper@ 000000018013f588     libvcruntime:undname.obj
 0002:000075b0       ??_C@_0DB@ILEFOCIJ@?$GAtemplate?5static?5data?5member?5co@ 000000018013f5b0     libvcruntime:undname.obj
 0002:000075e8       ??_C@_0DA@HGFJFBBE@?$GAtemplate?5static?5data?5member?5de@ 000000018013f5e8     libvcruntime:undname.obj
 0002:00007618       ??_C@_07PGOEDBHP@static?5@ 000000018013f618     libvcruntime:undname.obj
 0002:00007620       ??_C@_08NIEOINHE@virtual?5@ 000000018013f620     libvcruntime:undname.obj
 0002:00007630       ??_C@_09LAPHOOG@private?3?5@ 000000018013f630     libvcruntime:undname.obj
 0002:00007640       ??_C@_0M@GAIFPFIP@protected?3?5@ 000000018013f640     libvcruntime:undname.obj
 0002:00007650       ??_C@_08GPDDCMKI@public?3?5@ 000000018013f650     libvcruntime:undname.obj
 0002:00007660       ??_C@_08KJLFOPNE@?$FLthunk?$FN?3@ 000000018013f660     libvcruntime:undname.obj
 0002:00007670       ??_C@_0M@DHNBOJMP@extern?5?$CCC?$CC?5@ 000000018013f670     libvcruntime:undname.obj
 0002:0000767c       ??_C@_02KCKGHPCA@?$CJ?5@   000000018013f67c     libvcruntime:undname.obj
 0002:00007680       ??_C@_05CIHEBHNO@char?5@   000000018013f680     libvcruntime:undname.obj
 0002:00007688       ??_C@_06EHJMALKF@short?5@  000000018013f688     libvcruntime:undname.obj
 0002:00007690       ??_C@_04LAHKHJMA@int?5@    000000018013f690     libvcruntime:undname.obj
 0002:00007698       ??_C@_05CJIMAING@long?5@   000000018013f698     libvcruntime:undname.obj
 0002:000076a0       ??_C@_09EBBEKKIH@unsigned?5@ 000000018013f6a0     libvcruntime:undname.obj
 0002:000076ac       ??_C@_05BEFAKPML@void?5@   000000018013f6ac     libvcruntime:undname.obj
 0002:000076b8       ??_C@_09GAIEOBLP@volatile?5@ 000000018013f6b8     libvcruntime:undname.obj
 0002:000076c8       ??_C@_08PABEKFH@volatile@  000000018013f6c8     libvcruntime:undname.obj
 0002:000076d8       ??_C@_0BA@LKIJLKPP@std?3?3nullptr_t?5@ 000000018013f6d8     libvcruntime:undname.obj
 0002:000076e8       ??_C@_0P@GCOCNKDM@std?3?3nullptr_t@ 000000018013f6e8     libvcruntime:undname.obj
 0002:000076f8       ??_C@_0L@EGPHHEKN@?$DMellipsis?$DO@ 000000018013f6f8     libvcruntime:undname.obj
 0002:00007704       ??_C@_04EENFHACM@?0?4?4?4@ 000000018013f704     libvcruntime:undname.obj
 0002:00007710       ??_C@_0M@ELJOJFFH@?0?$DMellipsis?$DO@ 000000018013f710     libvcruntime:undname.obj
 0002:00007720       ??_C@_09DNHFEOJI@?5noexcept@ 000000018013f720     libvcruntime:undname.obj
 0002:0000772c       ??_C@_03PBJBJNON@cpu@      000000018013f72c     libvcruntime:undname.obj
 0002:00007730       ??_C@_03DCBBJBAA@amp@      000000018013f730     libvcruntime:undname.obj
 0002:00007734       ??_C@_02KEGNLNML@?0?5@     000000018013f734     libvcruntime:undname.obj
 0002:00007738       ??_C@_04ENMBGAPA@char@     000000018013f738     libvcruntime:undname.obj
 0002:00007740       ??_C@_05BFKKPKCG@short@    000000018013f740     libvcruntime:undname.obj
 0002:00007748       ??_C@_03JBIPMCLC@int@      000000018013f748     libvcruntime:undname.obj
 0002:0000774c       ??_C@_04GOKPGOLB@long@     000000018013f74c     libvcruntime:undname.obj
 0002:00007754       ??_C@_06BNJCAIGJ@double@   000000018013f754     libvcruntime:undname.obj
 0002:0000775c       ??_C@_06EBGKOKIG@__int8@   000000018013f75c     libvcruntime:undname.obj
 0002:00007768       ??_C@_07ICFHOGAF@__int16@  000000018013f768     libvcruntime:undname.obj
 0002:00007770       ??_C@_07OFLPPHGP@__int32@  000000018013f770     libvcruntime:undname.obj
 0002:00007778       ??_C@_07LFCOJCAC@__int64@  000000018013f778     libvcruntime:undname.obj
 0002:00007780       ??_C@_08GAHOLHEO@__int128@ 000000018013f780     libvcruntime:undname.obj
 0002:00007790       ??_C@_09EEKGDCPH@?$DMunknown?$DO@ 000000018013f790     libvcruntime:undname.obj
 0002:000077a0       ??_C@_07CFHGOPCN@char8_t@  000000018013f7a0     libvcruntime:undname.obj
 0002:000077a8       ??_C@_08HBIPOFJB@char16_t@ 000000018013f7a8     libvcruntime:undname.obj
 0002:000077b8       ??_C@_08IECNCBKG@char32_t@ 000000018013f7b8     libvcruntime:undname.obj
 0002:000077c8       ??_C@_07CLGGIAMF@wchar_t@  000000018013f7c8     libvcruntime:undname.obj
 0002:000077d0       ??_C@_04HAPDLBFF@auto@     000000018013f7d0     libvcruntime:undname.obj
 0002:000077d8       ??_C@_0P@LHCGKIGK@decltype?$CIauto?$CJ@ 000000018013f7d8     libvcruntime:undname.obj
 0002:000077e8       ??_C@_06GCICPBLB@__w64?5@  000000018013f7e8     libvcruntime:undname.obj
 0002:000077f0       ??_C@_07NFANNNEC@UNKNOWN@  000000018013f7f0     libvcruntime:undname.obj
 0002:000077f8       ??_C@_07EDHNAJHC@signed?5@ 000000018013f7f8     libvcruntime:undname.obj
 0002:00007800       ??_C@_05BNCCCJPP@const@    000000018013f800     libvcruntime:undname.obj
 0002:00007808       ??_C@_09EFNPDFFP@?5volatile@ 000000018013f808     libvcruntime:undname.obj
 0002:00007818       ??_C@_0P@GCIFDJCJ@?$GAunknown?5ecsu?8@ 000000018013f818     libvcruntime:undname.obj
 0002:00007828       ??_C@_06MOJHIBMG@union?5@  000000018013f828     libvcruntime:undname.obj
 0002:00007830       ??_C@_07DIBCDNGL@struct?5@ 000000018013f830     libvcruntime:undname.obj
 0002:00007838       ??_C@_06LJBABKPM@class?5@  000000018013f838     libvcruntime:undname.obj
 0002:00007840       ??_C@_08KOFANOFK@coclass?5@ 000000018013f840     libvcruntime:undname.obj
 0002:00007850       ??_C@_0N@DLIEFKNA@cointerface?5@ 000000018013f850     libvcruntime:undname.obj
 0002:00007860       ??_C@_05LJGMCFOG@enum?5@   000000018013f860     libvcruntime:undname.obj
 0002:00007868       ??_C@_06LIJLOJAG@const?5@  000000018013f868     libvcruntime:undname.obj
 0002:00007870       ??_C@_02KJPKDIBN@?$CG?5@   000000018013f870     libvcruntime:undname.obj
 0002:00007874       ??_C@_03PCKGMOPB@?$CG?$CG?5@ 000000018013f874     libvcruntime:undname.obj
 0002:00007878       ??_C@_0M@EALIELKG@cli?3?3array?$DM@ 000000018013f878     libvcruntime:undname.obj
 0002:00007888       ??_C@_0O@GKABPPIF@cli?3?3pin_ptr?$DM@ 000000018013f888     libvcruntime:undname.obj
 0002:00007898       ??_C@_02GOGNNPBN@?$CJ?$FL@ 000000018013f898     libvcruntime:undname.obj
 0002:0000789c       ??_C@_06EEGAIFAK@?$HLflat?$HN@ 000000018013f89c     libvcruntime:undname.obj
 0002:000078a4       ??_C@_05JIBOFOHK@?$HLfor?5@ 000000018013f8a4     libvcruntime:undname.obj
 0002:000078ac       ??_C@_02MDINNEEG@s?5@      000000018013f8ac     libvcruntime:undname.obj
 0002:000078b8       ??_7charNode@@6B@          000000018013f8b8     libvcruntime:undname.obj
 0002:000078e0       ??_7pcharNode@@6B@         000000018013f8e0     libvcruntime:undname.obj
 0002:00007908       ??_7pDNameNode@@6B@        000000018013f908     libvcruntime:undname.obj
 0002:00007930       ??_7DNameStatusNode@@6B@   000000018013f930     libvcruntime:undname.obj
 0002:00007958       ??_7pairNode@@6B@          000000018013f958     libvcruntime:undname.obj
 0002:00007a80       ??_C@_04OKOHEJBO@?5?$DP?$DP?5@ 000000018013fa80     libvcruntime:undname.obj
 0002:00007a90       ?nodes@?1??make@DNameStatusNode@@SAPEBV2@W4DNameStatus@@@Z@4QBV2@B 000000018013fa90     libvcruntime:undname.obj
 0002:00007ad0       ?s_negLengthTab@FH4@@3QBCB 000000018013fad0     libvcruntime:risctrnsctrl.obj
 0002:00007ae0       ?s_shiftTab@FH4@@3QBEB     000000018013fae0     libvcruntime:risctrnsctrl.obj
 0002:00007ba0       ??_C@_1DM@KHCHBNEB@?$AAa?$AAp?$AAi?$AA?9?$AAm?$AAs?$AA?9?$AAw?$AAi?$AAn?$AA?9?$AAc?$AAo?$AAr?$AAe@ 000000018013fba0     libvcruntime:winapi_downlevel.obj
 0002:00007be0       ??_C@_1DK@LPPGFMPP@?$AAa?$AAp?$AAi?$AA?9?$AAm?$AAs?$AA?9?$AAw?$AAi?$AAn?$AA?9?$AAc?$AAo?$AAr?$AAe@ 000000018013fbe0     libvcruntime:winapi_downlevel.obj
 0002:00007c20       ??_C@_1BC@GDMECMAK@?$AAk?$AAe?$AAr?$AAn?$AAe?$AAl?$AA3?$AA2@ 000000018013fc20     libvcruntime:winapi_downlevel.obj
 0002:00007c38       ??_C@_1BA@PFFKHIOG@?$AAa?$AAp?$AAi?$AA?9?$AAm?$AAs?$AA?9@ 000000018013fc38     libvcruntime:winapi_downlevel.obj
 0002:00007c50       ??_C@_08KNHFBNJ@FlsAlloc@  000000018013fc50     libvcruntime:winapi_downlevel.obj
 0002:00007c68       ??_C@_07PEJMOBNF@FlsFree@  000000018013fc68     libvcruntime:winapi_downlevel.obj
 0002:00007c78       ??_C@_0M@GDNOONDI@FlsGetValue@ 000000018013fc78     libvcruntime:winapi_downlevel.obj
 0002:00007c90       ??_C@_0M@JCPCPOEF@FlsSetValue@ 000000018013fc90     libvcruntime:winapi_downlevel.obj
 0002:00007ca8       ??_C@_0BM@HCFOFFN@InitializeCriticalSectionEx@ 000000018013fca8     libvcruntime:winapi_downlevel.obj
 0002:00007cd0       ??_7exception@std@@6B@     000000018013fcd0     libvcruntime:frame.obj
 0002:00007ce0       ??_C@_0BC@EOODALEL@Unknown?5exception@ 000000018013fce0     libvcruntime:frame.obj
 0002:00007d00       ??_7bad_exception@std@@6B@ 000000018013fd00     libvcruntime:frame.obj
 0002:00007d10       ??_C@_0O@DPKOEFFH@bad?5exception@ 000000018013fd10     libvcruntime:frame.obj
 0002:00008060       ??_C@_05FFFCHCED@acosf@    0000000180140060     libucrt:acosf.obj
 0002:00008068       __real@3b81ce6b            0000000180140068     libucrt:acosf.obj
 0002:00008070       __real@3c91a62633145c07    0000000180140070     libucrt:acosf.obj
 0002:00008078       __real@3d678bdd            0000000180140078     libucrt:acosf.obj
 0002:0000807c       __real@3e3c94dc            000000018014007c     libucrt:acosf.obj
 0002:00008080       __real@3f561f0d            0000000180140080     libucrt:acosf.obj
 0002:00008084       __real@3f8d6fa5            0000000180140084     libucrt:acosf.obj
 0002:00008088       __real@3ff921fb54442d18    0000000180140088     libucrt:acosf.obj
 0002:00008090       __real@400921fb54442d18    0000000180140090     libucrt:acosf.obj
 0002:00008098       __real@40490fdb            0000000180140098     libucrt:acosf.obj
 0002:0000809c       __real@bc5b3fe1            000000018014009c     libucrt:acosf.obj
 0002:000080a0       __acrt_exception_action_table 00000001801400a0     libucrt:exception_filter.obj
 0002:00008160       __acrt_signal_action_table_count 0000000180140160     libucrt:exception_filter.obj
 0002:00008168       __acrt_signal_action_first_fpe_index 0000000180140168     libucrt:exception_filter.obj
 0002:00008170       __acrt_signal_action_fpe_count 0000000180140170     libucrt:exception_filter.obj
 0002:00008178       ??_C@_1BI@BGOHAHKC@?$AAm?$AAs?$AAc?$AAo?$AAr?$AAe?$AAe?$AA?4?$AAd?$AAl?$AAl@ 0000000180140178     libucrt:exit.obj
 0002:00008190       ??_C@_0P@MIGLKIOC@CorExitProcess@ 0000000180140190     libucrt:exit.obj
 0002:000082a0       ?format_validation_lookup_table_spectre@__crt_stdio_output@@3V?$spectre_mitigated_lookup_table@Ustate_transition_pair@__crt_stdio_output@@$0IA@@1@B 00000001801402a0     libucrt:output.obj
 0002:000086a0       ??_C@_1O@CEDCILHN@?$AA?$CI?$AAn?$AAu?$AAl?$AAl?$AA?$CJ@ 00000001801406a0     libucrt:output.obj
 0002:000086b0       ??_C@_06OJHGLDPL@?$CInull?$CJ@ 00000001801406b0     libucrt:output.obj
 0002:00008830       ??_C@_04LAGPAAHP@sinf@     0000000180140830     libucrt:sincos_special.obj
 0002:00008838       ??_C@_04OBBKPIAC@cosf@     0000000180140838     libucrt:sincos_special.obj
 0002:00008840       ??_C@_04MHPLPEIA@tanf@     0000000180140840     libucrt:sincos_special.obj
 0002:00008850       __Lcosfarray               0000000180140850     libucrt:lsincosf_array.obj
 0002:00008880       __Lsinfarray               0000000180140880     libucrt:lsincosf_array.obj
 0002:000088a0       __L_2_by_pi_bits           00000001801408a0     libucrt:l2_by_pi_bits.obj
 0002:00008b78       ??_C@_1M@HPNHIDJI@?$AAj?$AAa?$AA?9?$AAJ?$AAP@ 0000000180140b78     libucrt:mbctype.obj
 0002:00008b88       ??_C@_1M@BIBDDEMK@?$AAz?$AAh?$AA?9?$AAC?$AAN@ 0000000180140b88     libucrt:mbctype.obj
 0002:00008b98       ??_C@_1M@JLOOOEGK@?$AAk?$AAo?$AA?9?$AAK?$AAR@ 0000000180140b98     libucrt:mbctype.obj
 0002:00008ba8       ??_C@_1M@CLNBBOPM@?$AAz?$AAh?$AA?9?$AAT?$AAW@ 0000000180140ba8     libucrt:mbctype.obj
 0002:00008c60       ??_C@_1EA@JGEFHKEI@?$AAa?$AAp?$AAi?$AA?9?$AAm?$AAs?$AA?9?$AAw?$AAi?$AAn?$AA?9?$AAc?$AAo?$AAr?$AAe@ 0000000180140c60     libucrt:winapi_thunks.obj
 0002:00008ca0       ??_C@_1DI@IJCEHOCB@?$AAa?$AAp?$AAi?$AA?9?$AAm?$AAs?$AA?9?$AAw?$AAi?$AAn?$AA?9?$AAc?$AAo?$AAr?$AAe@ 0000000180140ca0     libucrt:winapi_thunks.obj
 0002:00008ce0       ??_C@_1EI@MPIAOHOC@?$AAa?$AAp?$AAi?$AA?9?$AAm?$AAs?$AA?9?$AAw?$AAi?$AAn?$AA?9?$AAc?$AAo?$AAr?$AAe@ 0000000180140ce0     libucrt:winapi_thunks.obj
 0002:00008d30       ??_C@_1FK@FPHCKFIE@?$AAa?$AAp?$AAi?$AA?9?$AAm?$AAs?$AA?9?$AAw?$AAi?$AAn?$AA?9?$AAc?$AAo?$AAr?$AAe@ 0000000180140d30     libucrt:winapi_thunks.obj
 0002:00008d90       ??_C@_1EM@DILCGIIO@?$AAa?$AAp?$AAi?$AA?9?$AAm?$AAs?$AA?9?$AAw?$AAi?$AAn?$AA?9?$AAc?$AAo?$AAr?$AAe@ 0000000180140d90     libucrt:winapi_thunks.obj
 0002:00008de0       ??_C@_1DM@LNCGDDPN@?$AAa?$AAp?$AAi?$AA?9?$AAm?$AAs?$AA?9?$AAw?$AAi?$AAn?$AA?9?$AAc?$AAo?$AAr?$AAe@ 0000000180140de0     libucrt:winapi_thunks.obj
 0002:00008e20       ??_C@_1DO@FPAPJEMD@?$AAa?$AAp?$AAi?$AA?9?$AAm?$AAs?$AA?9?$AAw?$AAi?$AAn?$AA?9?$AAc?$AAo?$AAr?$AAe@ 0000000180140e20     libucrt:winapi_thunks.obj
 0002:00008e60       ??_C@_1DK@NDHNAHIO@?$AAa?$AAp?$AAi?$AA?9?$AAm?$AAs?$AA?9?$AAw?$AAi?$AAn?$AA?9?$AAc?$AAo?$AAr?$AAe@ 0000000180140e60     libucrt:winapi_thunks.obj
 0002:00008ea0       ??_C@_1DM@KGHDGBCM@?$AAa?$AAp?$AAi?$AA?9?$AAm?$AAs?$AA?9?$AAw?$AAi?$AAn?$AA?9?$AAc?$AAo?$AAr?$AAe@ 0000000180140ea0     libucrt:winapi_thunks.obj
 0002:00008ee0       ??_C@_1EO@IJIOEFOH@?$AAa?$AAp?$AAi?$AA?9?$AAm?$AAs?$AA?9?$AAw?$AAi?$AAn?$AA?9?$AAr?$AAt?$AAc?$AAo@ 0000000180140ee0     libucrt:winapi_thunks.obj
 0002:00008f30       ??_C@_1FG@HHGEKANL@?$AAa?$AAp?$AAi?$AA?9?$AAm?$AAs?$AA?9?$AAw?$AAi?$AAn?$AA?9?$AAs?$AAe?$AAc?$AAu@ 0000000180140f30     libucrt:winapi_thunks.obj
 0002:00008f90       ??_C@_1EG@DBIOJECG@?$AAe?$AAx?$AAt?$AA?9?$AAm?$AAs?$AA?9?$AAw?$AAi?$AAn?$AA?9?$AAn?$AAt?$AAu?$AAs@ 0000000180140f90     libucrt:winapi_thunks.obj
 0002:00008fe0       ??_C@_1EO@FIHMJCLF@?$AAe?$AAx?$AAt?$AA?9?$AAm?$AAs?$AA?9?$AAw?$AAi?$AAn?$AA?9?$AAn?$AAt?$AAu?$AAs@ 0000000180140fe0     libucrt:winapi_thunks.obj
 0002:00009030       ??_C@_1BC@DNHGCMLG@?$AAa?$AAd?$AAv?$AAa?$AAp?$AAi?$AA3?$AA2@ 0000000180141030     libucrt:winapi_thunks.obj
 0002:00009048       ??_C@_1M@OAIMIKLP@?$AAn?$AAt?$AAd?$AAl?$AAl@ 0000000180141048     libucrt:winapi_thunks.obj
 0002:00009060       ??_C@_1EG@DPGNFKGC@?$AAa?$AAp?$AAi?$AA?9?$AAm?$AAs?$AA?9?$AAw?$AAi?$AAn?$AA?9?$AAa?$AAp?$AAp?$AAm@ 0000000180141060     libucrt:winapi_thunks.obj
 0002:000090a8       ??_C@_1O@BCCLBEOE@?$AAu?$AAs?$AAe?$AAr?$AA3?$AA2@ 00000001801410a8     libucrt:winapi_thunks.obj
 0002:000090b8       ??_C@_1BA@IAIFMGEF@?$AAe?$AAx?$AAt?$AA?9?$AAm?$AAs?$AA?9@ 00000001801410b8     libucrt:winapi_thunks.obj
 0002:000090d0       ??_C@_0BA@FHFNEAED@AreFileApisANSI@ 00000001801410d0     libucrt:winapi_thunks.obj
 0002:00009110       ??_C@_0O@KKBNKAPF@LCMapStringEx@ 0000000180141110     libucrt:winapi_thunks.obj
 0002:00009128       ??_C@_0BB@HBDEELFH@LocaleNameToLCID@ 0000000180141128     libucrt:winapi_thunks.obj
 0002:00009140       ??_C@_0CF@OJOFEIGO@AppPolicyGetProcessTerminationM@ 0000000180141140     libucrt:winapi_thunks.obj
 0002:00009170       __lc_time_c                0000000180141170     libucrt:nlsdata.obj
 0002:00009430       ??_C@_03KOEHGMDN@Sun@      0000000180141430     libucrt:nlsdata.obj
 0002:00009434       ??_C@_03PDAGKDH@Mon@       0000000180141434     libucrt:nlsdata.obj
 0002:00009438       ??_C@_03NAGEINEP@Tue@      0000000180141438     libucrt:nlsdata.obj
 0002:0000943c       ??_C@_03MHOMLAJA@Wed@      000000018014143c     libucrt:nlsdata.obj
 0002:00009440       ??_C@_03IOFIKPDN@Thu@      0000000180141440     libucrt:nlsdata.obj
 0002:00009444       ??_C@_03IDIOELNC@Fri@      0000000180141444     libucrt:nlsdata.obj
 0002:00009448       ??_C@_03FEFJNEK@Sat@       0000000180141448     libucrt:nlsdata.obj
 0002:0000944c       ??_C@_06OOPIFAJ@Sunday@    000000018014144c     libucrt:nlsdata.obj
 0002:00009454       ??_C@_06JLEDEDGH@Monday@   0000000180141454     libucrt:nlsdata.obj
 0002:00009460       ??_C@_07BAAGCFCM@Tuesday@  0000000180141460     libucrt:nlsdata.obj
 0002:00009468       ??_C@_09DLIGFAKA@Wednesday@ 0000000180141468     libucrt:nlsdata.obj
 0002:00009478       ??_C@_08HACCIKIA@Thursday@ 0000000180141478     libucrt:nlsdata.obj
 0002:00009484       ??_C@_06JECMNKMI@Friday@   0000000180141484     libucrt:nlsdata.obj
 0002:00009490       ??_C@_08INBOOONO@Saturday@ 0000000180141490     libucrt:nlsdata.obj
 0002:0000949c       ??_C@_03JIHJHPIE@Jan@      000000018014149c     libucrt:nlsdata.obj
 0002:000094a0       ??_C@_03HJBDCHOM@Feb@      00000001801414a0     libucrt:nlsdata.obj
 0002:000094a4       ??_C@_03ODNJBKGA@Mar@      00000001801414a4     libucrt:nlsdata.obj
 0002:000094a8       ??_C@_03LEOLGMJP@Apr@      00000001801414a8     libucrt:nlsdata.obj
 0002:000094ac       ??_C@_03CNMDKL@May@        00000001801414ac     libucrt:nlsdata.obj
 0002:000094b0       ??_C@_03IDFGHECI@Jun@      00000001801414b0     libucrt:nlsdata.obj
 0002:000094b4       ??_C@_03LBGABGKK@Jul@      00000001801414b4     libucrt:nlsdata.obj
 0002:000094b8       ??_C@_03IFJFEIGA@Aug@      00000001801414b8     libucrt:nlsdata.obj
 0002:000094bc       ??_C@_03GGCAPAJC@Sep@      00000001801414bc     libucrt:nlsdata.obj
 0002:000094c0       ??_C@_03BMAOKBAD@Oct@      00000001801414c0     libucrt:nlsdata.obj
 0002:000094c4       ??_C@_03JPJOFNIA@Nov@      00000001801414c4     libucrt:nlsdata.obj
 0002:000094c8       ??_C@_03MKABNOCG@Dec@      00000001801414c8     libucrt:nlsdata.obj
 0002:000094d0       ??_C@_07CGJPFGJA@January@  00000001801414d0     libucrt:nlsdata.obj
 0002:000094d8       ??_C@_08GNJGEPFN@February@ 00000001801414d8     libucrt:nlsdata.obj
 0002:000094e4       ??_C@_05HPCKOFNC@March@    00000001801414e4     libucrt:nlsdata.obj
 0002:000094ec       ??_C@_05DMJDNLEJ@April@    00000001801414ec     libucrt:nlsdata.obj
 0002:000094f4       ??_C@_04CNLMGBGM@June@     00000001801414f4     libucrt:nlsdata.obj
 0002:000094fc       ??_C@_04MIEPOIFP@July@     00000001801414fc     libucrt:nlsdata.obj
 0002:00009504       ??_C@_06LBBHFDDG@August@   0000000180141504     libucrt:nlsdata.obj
 0002:00009510       ??_C@_09BHHEALKD@September@ 0000000180141510     libucrt:nlsdata.obj
 0002:00009520       ??_C@_07JJNFCEND@October@  0000000180141520     libucrt:nlsdata.obj
 0002:00009528       ??_C@_08HCHEGEOA@November@ 0000000180141528     libucrt:nlsdata.obj
 0002:00009538       ??_C@_08EDHMEBNP@December@ 0000000180141538     libucrt:nlsdata.obj
 0002:00009544       ??_C@_02DEDBPAFC@AM@       0000000180141544     libucrt:nlsdata.obj
 0002:00009548       ??_C@_02CJNFDJBF@PM@       0000000180141548     libucrt:nlsdata.obj
 0002:00009550       ??_C@_08BPBNCDIB@MM?1dd?1yy@ 0000000180141550     libucrt:nlsdata.obj
 0002:00009560       ??_C@_0BE@CKGJFCPC@dddd?0?5MMMM?5dd?0?5yyyy@ 0000000180141560     libucrt:nlsdata.obj
 0002:00009578       ??_C@_08JCCMCCIL@HH?3mm?3ss@ 0000000180141578     libucrt:nlsdata.obj
 0002:00009588       ??_C@_17MBGCMIPB@?$AAS?$AAu?$AAn@ 0000000180141588     libucrt:nlsdata.obj
 0002:00009590       ??_C@_17KBOMKBF@?$AAM?$AAo?$AAn@ 0000000180141590     libucrt:nlsdata.obj
 0002:00009598       ??_C@_17BMKGEGOJ@?$AAT?$AAu?$AAe@ 0000000180141598     libucrt:nlsdata.obj
 0002:000095a0       ??_C@_17CJEDCEPE@?$AAW?$AAe?$AAd@ 00000001801415a0     libucrt:nlsdata.obj
 0002:000095a8       ??_C@_17PDPHAADD@?$AAT?$AAh?$AAu@ 00000001801415a8     libucrt:nlsdata.obj
 0002:000095b0       ??_C@_17HFOLPPLP@?$AAF?$AAr?$AAi@ 00000001801415b0     libucrt:nlsdata.obj
 0002:000095b8       ??_C@_17GGIBDPIH@?$AAS?$AAa?$AAt@ 00000001801415b8     libucrt:nlsdata.obj
 0002:000095c0       ??_C@_1O@IHNHDHPB@?$AAS?$AAu?$AAn?$AAd?$AAa?$AAy@ 00000001801415c0     libucrt:nlsdata.obj
 0002:000095d0       ??_C@_1O@MMNBFLIA@?$AAM?$AAo?$AAn?$AAd?$AAa?$AAy@ 00000001801415d0     libucrt:nlsdata.obj
 0002:000095e0       ??_C@_1BA@ENFBFFEK@?$AAT?$AAu?$AAe?$AAs?$AAd?$AAa?$AAy@ 00000001801415e0     libucrt:nlsdata.obj
 0002:000095f0       ??_C@_1BE@EBOGMDOH@?$AAW?$AAe?$AAd?$AAn?$AAe?$AAs?$AAd?$AAa?$AAy@ 00000001801415f0     libucrt:nlsdata.obj
 0002:00009608       ??_C@_1BC@HHMNLIHE@?$AAT?$AAh?$AAu?$AAr?$AAs?$AAd?$AAa?$AAy@ 0000000180141608     libucrt:nlsdata.obj
 0002:00009620       ??_C@_1O@PDICJHAG@?$AAF?$AAr?$AAi?$AAd?$AAa?$AAy@ 0000000180141620     libucrt:nlsdata.obj
 0002:00009630       ??_C@_1BC@ENMNNPAJ@?$AAS?$AAa?$AAt?$AAu?$AAr?$AAd?$AAa?$AAy@ 0000000180141630     libucrt:nlsdata.obj
 0002:00009648       ??_C@_17DKNBKCHM@?$AAJ?$AAa?$AAn@ 0000000180141648     libucrt:nlsdata.obj
 0002:00009650       ??_C@_17LMDJEKJN@?$AAF?$AAe?$AAb@ 0000000180141650     libucrt:nlsdata.obj
 0002:00009658       ??_C@_17CKNLEDEC@?$AAM?$AAa?$AAr@ 0000000180141658     libucrt:nlsdata.obj
 0002:00009660       ??_C@_17LFPOIHDD@?$AAA?$AAp?$AAr@ 0000000180141660     libucrt:nlsdata.obj
 0002:00009668       ??_C@_17PNNKMEED@?$AAM?$AAa?$AAy@ 0000000180141668     libucrt:nlsdata.obj
 0002:00009670       ??_C@_17KCJGOCPB@?$AAJ?$AAu?$AAn@ 0000000180141670     libucrt:nlsdata.obj
 0002:00009678       ??_C@_17IJPCKHK@?$AAJ?$AAu?$AAl@ 0000000180141678     libucrt:nlsdata.obj
 0002:00009680       ??_C@_17ICPELBCN@?$AAA?$AAu?$AAg@ 0000000180141680     libucrt:nlsdata.obj
 0002:00009688       ??_C@_17HCHCOKMG@?$AAS?$AAe?$AAp@ 0000000180141688     libucrt:nlsdata.obj
 0002:00009690       ??_C@_17FNLKOI@?$AAO?$AAc?$AAt@ 0000000180141690     libucrt:nlsdata.obj
 0002:00009698       ??_C@_17BBDMLCIG@?$AAN?$AAo?$AAv@ 0000000180141698     libucrt:nlsdata.obj
 0002:000096a0       ??_C@_17EGKACKIF@?$AAD?$AAe?$AAc@ 00000001801416a0     libucrt:nlsdata.obj
 0002:000096a8       ??_C@_1BA@EFMEIEBA@?$AAJ?$AAa?$AAn?$AAu?$AAa?$AAr?$AAy@ 00000001801416a8     libucrt:nlsdata.obj
 0002:000096b8       ??_C@_1BC@JGDDFFAM@?$AAF?$AAe?$AAb?$AAr?$AAu?$AAa?$AAr?$AAy@ 00000001801416b8     libucrt:nlsdata.obj
 0002:000096d0       ??_C@_1M@IKEENEDF@?$AAM?$AAa?$AAr?$AAc?$AAh@ 00000001801416d0     libucrt:nlsdata.obj
 0002:000096e0       ??_C@_1M@GJNLMHFD@?$AAA?$AAp?$AAr?$AAi?$AAl@ 00000001801416e0     libucrt:nlsdata.obj
 0002:000096f0       ??_C@_19EPFLPGAP@?$AAJ?$AAu?$AAn?$AAe@ 00000001801416f0     libucrt:nlsdata.obj
 0002:00009700       ??_C@_19BIFMLPCD@?$AAJ?$AAu?$AAl?$AAy@ 0000000180141700     libucrt:nlsdata.obj
 0002:00009710       ??_C@_1O@PAHLKOAC@?$AAA?$AAu?$AAg?$AAu?$AAs?$AAt@ 0000000180141710     libucrt:nlsdata.obj
 0002:00009720       ??_C@_1BE@DKAAMBJL@?$AAS?$AAe?$AAp?$AAt?$AAe?$AAm?$AAb?$AAe?$AAr@ 0000000180141720     libucrt:nlsdata.obj
 0002:00009738       ??_C@_1BA@EPANDLNG@?$AAO?$AAc?$AAt?$AAo?$AAb?$AAe?$AAr@ 0000000180141738     libucrt:nlsdata.obj
 0002:00009748       ??_C@_1BC@BGLIFPF@?$AAN?$AAo?$AAv?$AAe?$AAm?$AAb?$AAe?$AAr@ 0000000180141748     libucrt:nlsdata.obj
 0002:00009760       ??_C@_1BC@FEMKIFH@?$AAD?$AAe?$AAc?$AAe?$AAm?$AAb?$AAe?$AAr@ 0000000180141760     libucrt:nlsdata.obj
 0002:00009774       ??_C@_15ODEHAHHF@?$AAA?$AAM@ 0000000180141774     libucrt:nlsdata.obj
 0002:0000977c       ??_C@_15CLMNNGEL@?$AAP?$AAM@ 000000018014177c     libucrt:nlsdata.obj
 0002:00009788       ??_C@_1BC@IEBCMHCM@?$AAM?$AAM?$AA?1?$AAd?$AAd?$AA?1?$AAy?$AAy@ 0000000180141788     libucrt:nlsdata.obj
 0002:000097a0       ??_C@_1CI@KNAKOEBC@?$AAd?$AAd?$AAd?$AAd?$AA?0?$AA?5?$AAM?$AAM?$AAM?$AAM?$AA?5?$AAd?$AAd?$AA?0?$AA?5@ 00000001801417a0     libucrt:nlsdata.obj
 0002:000097c8       ??_C@_1BC@GDGBMEMK@?$AAH?$AAH?$AA?3?$AAm?$AAm?$AA?3?$AAs?$AAs@ 00000001801417c8     libucrt:nlsdata.obj
 0002:000097e0       ??_C@_1M@BMHNFIME@?$AAe?$AAn?$AA?9?$AAU?$AAS@ 00000001801417e0     libucrt:nlsdata.obj
 0002:00009870       ??_C@_03OEIAHPBN@INF@      0000000180141870     libucrt:cvt.obj
 0002:00009874       ??_C@_03OJHLLCGB@inf@      0000000180141874     libucrt:cvt.obj
 0002:00009878       ??_C@_03LKNCIKJB@NAN@      0000000180141878     libucrt:cvt.obj
 0002:0000987c       ??_C@_03LHCJEHON@nan@      000000018014187c     libucrt:cvt.obj
 0002:00009880       ??_C@_09OFJJIMPC@NAN?$CISNAN?$CJ@ 0000000180141880     libucrt:cvt.obj
 0002:00009890       ??_C@_09IPFBKMDL@nan?$CIsnan?$CJ@ 0000000180141890     libucrt:cvt.obj
 0002:000098a0       ??_C@_08IKHNHAJ@NAN?$CIIND?$CJ@ 00000001801418a0     libucrt:cvt.obj
 0002:000098b0       ??_C@_08OFCDMILK@nan?$CIind?$CJ@ 00000001801418b0     libucrt:cvt.obj
 0002:000098bc       ??_C@_05KLBDPFGC@e?$CL000@ 00000001801418bc     libucrt:cvt.obj
 0002:000098d0       __newctype                 00000001801418d0     libucrt:ctype.obj
 0002:00009bd0       __newclmap                 0000000180141bd0     libucrt:ctype.obj
 0002:00009d50       __newcumap                 0000000180141d50     libucrt:ctype.obj
 0002:00009ee0       ??_C@_05HGHHAHAP@log10@    0000000180141ee0     libucrt:fpexcept.obj
 0002:0000ad30       ??_C@_15EMKDOKLE@?$AAa?$AAr@ 0000000180142d30     libucrt:lcidtoname_downlevel.obj
 0002:0000ad38       ??_C@_15KNPADPLH@?$AAb?$AAg@ 0000000180142d38     libucrt:lcidtoname_downlevel.obj
 0002:0000ad40       ??_C@_15EDMHLDMO@?$AAc?$AAa@ 0000000180142d40     libucrt:lcidtoname_downlevel.obj
 0002:0000ad48       ??_C@_1O@BPEAJADD@?$AAz?$AAh?$AA?9?$AAC?$AAH?$AAS@ 0000000180142d48     libucrt:lcidtoname_downlevel.obj
 0002:0000ad58       ??_C@_15LJNHCMNK@?$AAc?$AAs@ 0000000180142d58     libucrt:lcidtoname_downlevel.obj
 0002:0000ad60       ??_C@_15FOMCIDHG@?$AAd?$AAa@ 0000000180142d60     libucrt:lcidtoname_downlevel.obj
 0002:0000ad68       ??_C@_15NBKABECB@?$AAd?$AAe@ 0000000180142d68     libucrt:lcidtoname_downlevel.obj
 0002:0000ad70       ??_C@_15GHPEIIAO@?$AAe?$AAl@ 0000000180142d70     libucrt:lcidtoname_downlevel.obj
 0002:0000ad78       ??_C@_15MNPNEAIF@?$AAe?$AAn@ 0000000180142d78     libucrt:lcidtoname_downlevel.obj
 0002:0000ad80       ??_C@_15GPIOMPMH@?$AAe?$AAs@ 0000000180142d80     libucrt:lcidtoname_downlevel.obj
 0002:0000ad88       ??_C@_15NGLOAKJC@?$AAf?$AAi@ 0000000180142d88     libucrt:lcidtoname_downlevel.obj
 0002:0000ad90       ??_C@_15FBKGNKAM@?$AAf?$AAr@ 0000000180142d90     libucrt:lcidtoname_downlevel.obj
 0002:0000ad98       ??_C@_15KGGCNEFK@?$AAh?$AAe@ 0000000180142d98     libucrt:lcidtoname_downlevel.obj
 0002:0000ada0       ??_C@_15PGHLIDMF@?$AAh?$AAu@ 0000000180142da0     libucrt:lcidtoname_downlevel.obj
 0002:0000ada8       ??_C@_15BIEMAPLM@?$AAi?$AAs@ 0000000180142da8     libucrt:lcidtoname_downlevel.obj
 0002:0000adb0       ??_C@_15IFJLDHAF@?$AAi?$AAt@ 0000000180142db0     libucrt:lcidtoname_downlevel.obj
 0002:0000adb8       ??_C@_15GEMIOCAG@?$AAj?$AAa@ 0000000180142db8     libucrt:lcidtoname_downlevel.obj
 0002:0000adc0       ??_C@_15EPELEGJA@?$AAk?$AAo@ 0000000180142dc0     libucrt:lcidtoname_downlevel.obj
 0002:0000adc8       ??_C@_15NDDHIMN@?$AAn?$AAl@ 0000000180142dc8     libucrt:lcidtoname_downlevel.obj
 0002:0000add0       ??_C@_15BPIGNHCD@?$AAn?$AAo@ 0000000180142dd0     libucrt:lcidtoname_downlevel.obj
 0002:0000add8       ??_C@_15DEOPBLCG@?$AAp?$AAl@ 0000000180142dd8     libucrt:lcidtoname_downlevel.obj
 0002:0000ade0       ??_C@_15KBECGEFG@?$AAp?$AAt@ 0000000180142de0     libucrt:lcidtoname_downlevel.obj
 0002:0000ade8       ??_C@_15GLJCBFMD@?$AAr?$AAo@ 0000000180142de8     libucrt:lcidtoname_downlevel.obj
 0002:0000adf0       ??_C@_15FEDGKCDI@?$AAr?$AAu@ 0000000180142df0     libucrt:lcidtoname_downlevel.obj
 0002:0000adf8       ??_C@_15GLKMLLHM@?$AAh?$AAr@ 0000000180142df8     libucrt:lcidtoname_downlevel.obj
 0002:0000ae00       ??_C@_15CPKMFBDB@?$AAs?$AAk@ 0000000180142e00     libucrt:lcidtoname_downlevel.obj
 0002:0000ae08       ??_C@_15BAAIOGMK@?$AAs?$AAq@ 0000000180142e08     libucrt:lcidtoname_downlevel.obj
 0002:0000ae10       ??_C@_15INNPNOHD@?$AAs?$AAv@ 0000000180142e10     libucrt:lcidtoname_downlevel.obj
 0002:0000ae18       ??_C@_15CABMMOGH@?$AAt?$AAh@ 0000000180142e18     libucrt:lcidtoname_downlevel.obj
 0002:0000ae20       ??_C@_15BPLIHJJM@?$AAt?$AAr@ 0000000180142e20     libucrt:lcidtoname_downlevel.obj
 0002:0000ae28       ??_C@_15NEOEKKDJ@?$AAu?$AAr@ 0000000180142e28     libucrt:lcidtoname_downlevel.obj
 0002:0000ae30       ??_C@_15NFICGAJK@?$AAi?$AAd@ 0000000180142e30     libucrt:lcidtoname_downlevel.obj
 0002:0000ae38       ??_C@_15PJPFLCCM@?$AAu?$AAk@ 0000000180142e38     libucrt:lcidtoname_downlevel.obj
 0002:0000ae40       ??_C@_15HPJPHDM@?$AAb?$AAe@ 0000000180142e40     libucrt:lcidtoname_downlevel.obj
 0002:0000ae48       ??_C@_15LCHLGJII@?$AAs?$AAl@ 0000000180142e48     libucrt:lcidtoname_downlevel.obj
 0002:0000ae50       ??_C@_15PCFJPHHO@?$AAe?$AAt@ 0000000180142e50     libucrt:lcidtoname_downlevel.obj
 0002:0000ae58       ??_C@_15HPFPGODN@?$AAl?$AAv@ 0000000180142e58     libucrt:lcidtoname_downlevel.obj
 0002:0000ae60       ??_C@_15NFFGKGLG@?$AAl?$AAt@ 0000000180142e60     libucrt:lcidtoname_downlevel.obj
 0002:0000ae68       ??_C@_15BDAKCCHN@?$AAf?$AAa@ 0000000180142e68     libucrt:lcidtoname_downlevel.obj
 0002:0000ae70       ??_C@_15NFGIAIAJ@?$AAv?$AAi@ 0000000180142e70     libucrt:lcidtoname_downlevel.obj
 0002:0000ae78       ??_C@_15LMKNDMHN@?$AAh?$AAy@ 0000000180142e78     libucrt:lcidtoname_downlevel.obj
 0002:0000ae80       ??_C@_15IJBHMCFL@?$AAa?$AAz@ 0000000180142e80     libucrt:lcidtoname_downlevel.obj
 0002:0000ae88       ??_C@_15EKOFJABL@?$AAe?$AAu@ 0000000180142e88     libucrt:lcidtoname_downlevel.obj
 0002:0000ae90       ??_C@_15BGHADCNK@?$AAm?$AAk@ 0000000180142e90     libucrt:lcidtoname_downlevel.obj
 0002:0000ae98       ??_C@_15JDNICKHM@?$AAa?$AAf@ 0000000180142e98     libucrt:lcidtoname_downlevel.obj
 0002:0000aea0       ??_C@_15KPJEDBKD@?$AAk?$AAa@ 0000000180142ea0     libucrt:lcidtoname_downlevel.obj
 0002:0000aea8       ??_C@_15PDNFFFEO@?$AAf?$AAo@ 0000000180142ea8     libucrt:lcidtoname_downlevel.obj
 0002:0000aeb0       ??_C@_15OMLEGLOC@?$AAh?$AAi@ 0000000180142eb0     libucrt:lcidtoname_downlevel.obj
 0002:0000aeb8       ??_C@_15IDNNENKK@?$AAm?$AAs@ 0000000180142eb8     libucrt:lcidtoname_downlevel.obj
 0002:0000aec0       ??_C@_15MACJNBMH@?$AAk?$AAk@ 0000000180142ec0     libucrt:lcidtoname_downlevel.obj
 0002:0000aec8       ??_C@_15DKDJEOND@?$AAk?$AAy@ 0000000180142ec8     libucrt:lcidtoname_downlevel.obj
 0002:0000aed0       ??_C@_15DFGDLJBG@?$AAs?$AAw@ 0000000180142ed0     libucrt:lcidtoname_downlevel.obj
 0002:0000aed8       ??_C@_15BBFAICNG@?$AAu?$AAz@ 0000000180142ed8     libucrt:lcidtoname_downlevel.obj
 0002:0000aee0       ??_C@_15DKNDCGEA@?$AAt?$AAt@ 0000000180142ee0     libucrt:lcidtoname_downlevel.obj
 0002:0000aee8       ??_C@_15MGIFMDPL@?$AAp?$AAa@ 0000000180142ee8     libucrt:lcidtoname_downlevel.obj
 0002:0000aef0       ??_C@_15HCNDBBA@?$AAg?$AAu@ 0000000180142ef0     libucrt:lcidtoname_downlevel.obj
 0002:0000aef8       ??_C@_15FNBEIBON@?$AAt?$AAa@ 0000000180142ef8     libucrt:lcidtoname_downlevel.obj
 0002:0000af00       ??_C@_15NCHGBGLK@?$AAt?$AAe@ 0000000180142f00     libucrt:lcidtoname_downlevel.obj
 0002:0000af08       ??_C@_15PHPHCBPF@?$AAk?$AAn@ 0000000180142f08     libucrt:lcidtoname_downlevel.obj
 0002:0000af10       ??_C@_15DLGBCKMP@?$AAm?$AAr@ 0000000180142f10     libucrt:lcidtoname_downlevel.obj
 0002:0000af18       ??_C@_15EABBLBFF@?$AAs?$AAa@ 0000000180142f18     libucrt:lcidtoname_downlevel.obj
 0002:0000af20       ??_C@_15CBKOMCOI@?$AAm?$AAn@ 0000000180142f20     libucrt:lcidtoname_downlevel.obj
 0002:0000af28       ??_C@_15CKDMCJAF@?$AAg?$AAl@ 0000000180142f28     libucrt:lcidtoname_downlevel.obj
 0002:0000af30       ??_C@_17CNJFBPG@?$AAk?$AAo?$AAk@ 0000000180142f30     libucrt:lcidtoname_downlevel.obj
 0002:0000af38       ??_C@_17FFBJICPL@?$AAs?$AAy?$AAr@ 0000000180142f38     libucrt:lcidtoname_downlevel.obj
 0002:0000af40       ??_C@_17KPNDCPAF@?$AAd?$AAi?$AAv@ 0000000180142f40     libucrt:lcidtoname_downlevel.obj
 0002:0000af48       ??_C@_11LOCGONAA@@         0000000180142f48     libucrt:lcidtoname_downlevel.obj
 0002:0000af50       ??_C@_1M@OKAHONE@?$AAa?$AAr?$AA?9?$AAS?$AAA@ 0000000180142f50     libucrt:lcidtoname_downlevel.obj
 0002:0000af60       ??_C@_1M@FFFIGIGK@?$AAb?$AAg?$AA?9?$AAB?$AAG@ 0000000180142f60     libucrt:lcidtoname_downlevel.obj
 0002:0000af70       ??_C@_1M@BJNKEDC@?$AAc?$AAa?$AA?9?$AAE?$AAS@ 0000000180142f70     libucrt:lcidtoname_downlevel.obj
 0002:0000af80       ??_C@_1M@IJJHFJHA@?$AAc?$AAs?$AA?9?$AAC?$AAZ@ 0000000180142f80     libucrt:lcidtoname_downlevel.obj
 0002:0000af90       ??_C@_1M@CLPEOBGI@?$AAd?$AAa?$AA?9?$AAD?$AAK@ 0000000180142f90     libucrt:lcidtoname_downlevel.obj
 0002:0000afa0       ??_C@_1M@MCMADGCB@?$AAd?$AAe?$AA?9?$AAD?$AAE@ 0000000180142fa0     libucrt:lcidtoname_downlevel.obj
 0002:0000afb0       ??_C@_1M@OOCKEMAM@?$AAe?$AAl?$AA?9?$AAG?$AAR@ 0000000180142fb0     libucrt:lcidtoname_downlevel.obj
 0002:0000afc0       ??_C@_1M@DDNJFGID@?$AAf?$AAi?$AA?9?$AAF?$AAI@ 0000000180142fc0     libucrt:lcidtoname_downlevel.obj
 0002:0000afd0       ??_C@_1M@GLIPPMAC@?$AAf?$AAr?$AA?9?$AAF?$AAR@ 0000000180142fd0     libucrt:lcidtoname_downlevel.obj
 0002:0000afe0       ??_C@_1M@GFMCHPE@?$AAh?$AAe?$AA?9?$AAI?$AAL@ 0000000180142fe0     libucrt:lcidtoname_downlevel.obj
 0002:0000aff0       ??_C@_1M@MHLPGNKM@?$AAh?$AAu?$AA?9?$AAH?$AAU@ 0000000180142ff0     libucrt:lcidtoname_downlevel.obj
 0002:0000b000       ??_C@_1M@LPDDNNPN@?$AAi?$AAs?$AA?9?$AAI?$AAS@ 0000000180143000     libucrt:lcidtoname_downlevel.obj
 0002:0000b010       ??_C@_1M@MADIPODN@?$AAi?$AAt?$AA?9?$AAI?$AAT@ 0000000180143010     libucrt:lcidtoname_downlevel.obj
 0002:0000b020       ??_C@_1M@IHBJJGG@?$AAn?$AAl?$AA?9?$AAN?$AAL@ 0000000180143020     libucrt:lcidtoname_downlevel.obj
 0002:0000b030       ??_C@_1M@EANAGDL@?$AAn?$AAb?$AA?9?$AAN?$AAO@ 0000000180143030     libucrt:lcidtoname_downlevel.obj
 0002:0000b040       ??_C@_1M@NEIEMEGP@?$AAp?$AAl?$AA?9?$AAP?$AAL@ 0000000180143040     libucrt:lcidtoname_downlevel.obj
 0002:0000b050       ??_C@_1M@BOCFIGEP@?$AAp?$AAt?$AA?9?$AAB?$AAR@ 0000000180143050     libucrt:lcidtoname_downlevel.obj
 0002:0000b060       ??_C@_1M@IMPFOPBG@?$AAr?$AAo?$AA?9?$AAR?$AAO@ 0000000180143060     libucrt:lcidtoname_downlevel.obj
 0002:0000b070       ??_C@_1M@IDNNEJMM@?$AAr?$AAu?$AA?9?$AAR?$AAU@ 0000000180143070     libucrt:lcidtoname_downlevel.obj
 0002:0000b080       ??_C@_1M@LILEEOGM@?$AAh?$AAr?$AA?9?$AAH?$AAR@ 0000000180143080     libucrt:lcidtoname_downlevel.obj
 0002:0000b090       ??_C@_1M@FKIFEHPB@?$AAs?$AAk?$AA?9?$AAS?$AAK@ 0000000180143090     libucrt:lcidtoname_downlevel.obj
 0002:0000b0a0       ??_C@_1M@LJMAMNPJ@?$AAs?$AAq?$AA?9?$AAA?$AAL@ 00000001801430a0     libucrt:lcidtoname_downlevel.obj
 0002:0000b0b0       ??_C@_1M@GIAKDKJK@?$AAs?$AAv?$AA?9?$AAS?$AAE@ 00000001801430b0     libucrt:lcidtoname_downlevel.obj
 0002:0000b0c0       ??_C@_1M@MKJKIKCL@?$AAt?$AAh?$AA?9?$AAT?$AAH@ 00000001801430c0     libucrt:lcidtoname_downlevel.obj
 0002:0000b0d0       ??_C@_1M@MFLCCMPB@?$AAt?$AAr?$AA?9?$AAT?$AAR@ 00000001801430d0     libucrt:lcidtoname_downlevel.obj
 0002:0000b0e0       ??_C@_1M@OIJHDKJN@?$AAu?$AAr?$AA?9?$AAP?$AAK@ 00000001801430e0     libucrt:lcidtoname_downlevel.obj
 0002:0000b0f0       ??_C@_1M@LHIPCIEK@?$AAi?$AAd?$AA?9?$AAI?$AAD@ 00000001801430f0     libucrt:lcidtoname_downlevel.obj
 0002:0000b100       ??_C@_1M@MFMOBGI@?$AAu?$AAk?$AA?9?$AAU?$AAA@ 0000000180143100     libucrt:lcidtoname_downlevel.obj
 0002:0000b110       ??_C@_1M@OBGLJIPL@?$AAb?$AAe?$AA?9?$AAB?$AAY@ 0000000180143110     libucrt:lcidtoname_downlevel.obj
 0002:0000b120       ??_C@_1M@BCFAJEAD@?$AAs?$AAl?$AA?9?$AAS?$AAI@ 0000000180143120     libucrt:lcidtoname_downlevel.obj
 0002:0000b130       ??_C@_1M@FKFFEDDN@?$AAe?$AAt?$AA?9?$AAE?$AAE@ 0000000180143130     libucrt:lcidtoname_downlevel.obj
 0002:0000b140       ??_C@_1M@KGKKAACI@?$AAl?$AAv?$AA?9?$AAL?$AAV@ 0000000180143140     libucrt:lcidtoname_downlevel.obj
 0002:0000b150       ??_C@_1M@IFGBIJO@?$AAl?$AAt?$AA?9?$AAL?$AAT@ 0000000180143150     libucrt:lcidtoname_downlevel.obj
 0002:0000b160       ??_C@_1M@FGEAHEDM@?$AAf?$AAa?$AA?9?$AAI?$AAR@ 0000000180143160     libucrt:lcidtoname_downlevel.obj
 0002:0000b170       ??_C@_1M@KBMAIBFN@?$AAv?$AAi?$AA?9?$AAV?$AAN@ 0000000180143170     libucrt:lcidtoname_downlevel.obj
 0002:0000b180       ??_C@_1M@GPCBKDJK@?$AAh?$AAy?$AA?9?$AAA?$AAM@ 0000000180143180     libucrt:lcidtoname_downlevel.obj
 0002:0000b190       ??_C@_1BG@BECMDDJB@?$AAa?$AAz?$AA?9?$AAA?$AAZ?$AA?9?$AAL?$AAa?$AAt?$AAn@ 0000000180143190     libucrt:lcidtoname_downlevel.obj
 0002:0000b1a8       ??_C@_1M@MAOFCAEA@?$AAe?$AAu?$AA?9?$AAE?$AAS@ 00000001801431a8     libucrt:lcidtoname_downlevel.obj
 0002:0000b1b8       ??_C@_1M@IGHABKPI@?$AAm?$AAk?$AA?9?$AAM?$AAK@ 00000001801431b8     libucrt:lcidtoname_downlevel.obj
 0002:0000b1c8       ??_C@_1M@IAIGNEJG@?$AAt?$AAn?$AA?9?$AAZ?$AAA@ 00000001801431c8     libucrt:lcidtoname_downlevel.obj
 0002:0000b1d8       ??_C@_1M@IIJCOJFA@?$AAx?$AAh?$AA?9?$AAZ?$AAA@ 00000001801431d8     libucrt:lcidtoname_downlevel.obj
 0002:0000b1e8       ??_C@_1M@LGPJHNJH@?$AAz?$AAu?$AA?9?$AAZ?$AAA@ 00000001801431e8     libucrt:lcidtoname_downlevel.obj
 0002:0000b1f8       ??_C@_1M@HOKAOIO@?$AAa?$AAf?$AA?9?$AAZ?$AAA@ 00000001801431f8     libucrt:lcidtoname_downlevel.obj
 0002:0000b208       ??_C@_1M@DPCLHLIE@?$AAk?$AAa?$AA?9?$AAG?$AAE@ 0000000180143208     libucrt:lcidtoname_downlevel.obj
 0002:0000b218       ??_C@_1M@BLKMHJBI@?$AAf?$AAo?$AA?9?$AAF?$AAO@ 0000000180143218     libucrt:lcidtoname_downlevel.obj
 0002:0000b228       ??_C@_1M@LGGJAPPB@?$AAh?$AAi?$AA?9?$AAI?$AAN@ 0000000180143228     libucrt:lcidtoname_downlevel.obj
 0002:0000b238       ??_C@_1M@FIKPIHFE@?$AAm?$AAt?$AA?9?$AAM?$AAT@ 0000000180143238     libucrt:lcidtoname_downlevel.obj
 0002:0000b248       ??_C@_1M@HEGGPBFA@?$AAs?$AAe?$AA?9?$AAN?$AAO@ 0000000180143248     libucrt:lcidtoname_downlevel.obj
 0002:0000b258       ??_C@_1M@EIBJEEPA@?$AAm?$AAs?$AA?9?$AAM?$AAY@ 0000000180143258     libucrt:lcidtoname_downlevel.obj
 0002:0000b268       ??_C@_1M@FHLBGMPP@?$AAk?$AAk?$AA?9?$AAK?$AAZ@ 0000000180143268     libucrt:lcidtoname_downlevel.obj
 0002:0000b278       ??_C@_1M@NGJJLCGI@?$AAk?$AAy?$AA?9?$AAK?$AAG@ 0000000180143278     libucrt:lcidtoname_downlevel.obj
 0002:0000b288       ??_C@_1M@GIENNBFC@?$AAs?$AAw?$AA?9?$AAK?$AAE@ 0000000180143288     libucrt:lcidtoname_downlevel.obj
 0002:0000b298       ??_C@_1BG@NDGMJIMJ@?$AAu?$AAz?$AA?9?$AAU?$AAZ?$AA?9?$AAL?$AAa?$AAt?$AAn@ 0000000180143298     libucrt:lcidtoname_downlevel.obj
 0002:0000b2b0       ??_C@_1M@IDCCIHBC@?$AAt?$AAt?$AA?9?$AAR?$AAU@ 00000001801432b0     libucrt:lcidtoname_downlevel.obj
 0002:0000b2c0       ??_C@_1M@LOICPMOJ@?$AAb?$AAn?$AA?9?$AAI?$AAN@ 00000001801432c0     libucrt:lcidtoname_downlevel.obj
 0002:0000b2d0       ??_C@_1M@KPKKNEAH@?$AAp?$AAa?$AA?9?$AAI?$AAN@ 00000001801432d0     libucrt:lcidtoname_downlevel.obj
 0002:0000b2e0       ??_C@_1M@PJGPPBOG@?$AAg?$AAu?$AA?9?$AAI?$AAN@ 00000001801432e0     libucrt:lcidtoname_downlevel.obj
 0002:0000b2f0       ??_C@_1M@KMKMOPHI@?$AAt?$AAa?$AA?9?$AAI?$AAN@ 00000001801432f0     libucrt:lcidtoname_downlevel.obj
 0002:0000b300       ??_C@_1M@KFEHEPAC@?$AAt?$AAe?$AA?9?$AAI?$AAN@ 0000000180143300     libucrt:lcidtoname_downlevel.obj
 0002:0000b310       ??_C@_1M@CDCLMGHI@?$AAk?$AAn?$AA?9?$AAI?$AAN@ 0000000180143310     libucrt:lcidtoname_downlevel.obj
 0002:0000b320       ??_C@_1M@MIODLDKF@?$AAm?$AAl?$AA?9?$AAI?$AAN@ 0000000180143320     libucrt:lcidtoname_downlevel.obj
 0002:0000b330       ??_C@_1M@PBIEACPO@?$AAm?$AAr?$AA?9?$AAI?$AAN@ 0000000180143330     libucrt:lcidtoname_downlevel.obj
 0002:0000b340       ??_C@_1M@NIDEAGPH@?$AAs?$AAa?$AA?9?$AAI?$AAN@ 0000000180143340     libucrt:lcidtoname_downlevel.obj
 0002:0000b350       ??_C@_1M@FHIHCBIO@?$AAm?$AAn?$AA?9?$AAM?$AAN@ 0000000180143350     libucrt:lcidtoname_downlevel.obj
 0002:0000b360       ??_C@_1M@JAIJPENP@?$AAc?$AAy?$AA?9?$AAG?$AAB@ 0000000180143360     libucrt:lcidtoname_downlevel.obj
 0002:0000b370       ??_C@_1M@PHGFBEPN@?$AAg?$AAl?$AA?9?$AAE?$AAS@ 0000000180143370     libucrt:lcidtoname_downlevel.obj
 0002:0000b380       ??_C@_1O@KPIPDNCP@?$AAk?$AAo?$AAk?$AA?9?$AAI?$AAN@ 0000000180143380     libucrt:lcidtoname_downlevel.obj
 0002:0000b390       ??_C@_1O@KNHJLDJA@?$AAs?$AAy?$AAr?$AA?9?$AAS?$AAY@ 0000000180143390     libucrt:lcidtoname_downlevel.obj
 0002:0000b3a0       ??_C@_1O@MKEKBLAH@?$AAd?$AAi?$AAv?$AA?9?$AAM?$AAV@ 00000001801433a0     libucrt:lcidtoname_downlevel.obj
 0002:0000b3b0       ??_C@_1O@OHDCKDDF@?$AAq?$AAu?$AAz?$AA?9?$AAB?$AAO@ 00000001801433b0     libucrt:lcidtoname_downlevel.obj
 0002:0000b3c0       ??_C@_1M@LEPJNLFD@?$AAn?$AAs?$AA?9?$AAZ?$AAA@ 00000001801433c0     libucrt:lcidtoname_downlevel.obj
 0002:0000b3d0       ??_C@_1M@OMLEIIJB@?$AAm?$AAi?$AA?9?$AAN?$AAZ@ 00000001801433d0     libucrt:lcidtoname_downlevel.obj
 0002:0000b3e0       ??_C@_1M@PMPEAILG@?$AAa?$AAr?$AA?9?$AAI?$AAQ@ 00000001801433e0     libucrt:lcidtoname_downlevel.obj
 0002:0000b3f0       ??_C@_1M@CNKPNOEE@?$AAd?$AAe?$AA?9?$AAC?$AAH@ 00000001801433f0     libucrt:lcidtoname_downlevel.obj
 0002:0000b400       ??_C@_1M@LKMGMLKO@?$AAe?$AAn?$AA?9?$AAG?$AAB@ 0000000180143400     libucrt:lcidtoname_downlevel.obj
 0002:0000b410       ??_C@_1M@PGKJFFGL@?$AAe?$AAs?$AA?9?$AAM?$AAX@ 0000000180143410     libucrt:lcidtoname_downlevel.obj
 0002:0000b420       ??_C@_1M@DNNANBDC@?$AAf?$AAr?$AA?9?$AAB?$AAE@ 0000000180143420     libucrt:lcidtoname_downlevel.obj
 0002:0000b430       ??_C@_1M@HLGMDFHM@?$AAi?$AAt?$AA?9?$AAC?$AAH@ 0000000180143430     libucrt:lcidtoname_downlevel.obj
 0002:0000b440       ??_C@_1M@CLLBGJH@?$AAn?$AAl?$AA?9?$AAB?$AAE@ 0000000180143440     libucrt:lcidtoname_downlevel.obj
 0002:0000b450       ??_C@_1M@BODBOGLF@?$AAn?$AAn?$AA?9?$AAN?$AAO@ 0000000180143450     libucrt:lcidtoname_downlevel.obj
 0002:0000b460       ??_C@_1M@HFFAHKAD@?$AAp?$AAt?$AA?9?$AAP?$AAT@ 0000000180143460     libucrt:lcidtoname_downlevel.obj
 0002:0000b470       ??_C@_1BG@LNOAKHIE@?$AAs?$AAr?$AA?9?$AAS?$AAP?$AA?9?$AAL?$AAa?$AAt?$AAn@ 0000000180143470     libucrt:lcidtoname_downlevel.obj
 0002:0000b488       ??_C@_1M@HBMHBGAK@?$AAs?$AAv?$AA?9?$AAF?$AAI@ 0000000180143488     libucrt:lcidtoname_downlevel.obj
 0002:0000b498       ??_C@_1BG@DGCJGJBE@?$AAa?$AAz?$AA?9?$AAA?$AAZ?$AA?9?$AAC?$AAy?$AAr?$AAl@ 0000000180143498     libucrt:lcidtoname_downlevel.obj
 0002:0000b4b0       ??_C@_1M@KEJDAAHB@?$AAs?$AAe?$AA?9?$AAS?$AAE@ 00000001801434b0     libucrt:lcidtoname_downlevel.obj
 0002:0000b4c0       ??_C@_1M@HEIBJJAD@?$AAm?$AAs?$AA?9?$AAB?$AAN@ 00000001801434c0     libucrt:lcidtoname_downlevel.obj
 0002:0000b4d0       ??_C@_1BG@PBGJMCEM@?$AAu?$AAz?$AA?9?$AAU?$AAZ?$AA?9?$AAC?$AAy?$AAr?$AAl@ 00000001801434d0     libucrt:lcidtoname_downlevel.obj
 0002:0000b4e8       ??_C@_1O@LAOBCMDF@?$AAq?$AAu?$AAz?$AA?9?$AAE?$AAC@ 00000001801434e8     libucrt:lcidtoname_downlevel.obj
 0002:0000b4f8       ??_C@_1M@POEEMAIO@?$AAa?$AAr?$AA?9?$AAE?$AAG@ 00000001801434f8     libucrt:lcidtoname_downlevel.obj
 0002:0000b508       ??_C@_1M@EFAKDEDL@?$AAz?$AAh?$AA?9?$AAH?$AAK@ 0000000180143508     libucrt:lcidtoname_downlevel.obj
 0002:0000b518       ??_C@_1M@HKKIJHGI@?$AAd?$AAe?$AA?9?$AAA?$AAT@ 0000000180143518     libucrt:lcidtoname_downlevel.obj
 0002:0000b528       ??_C@_1M@KBFBEHJF@?$AAe?$AAn?$AA?9?$AAA?$AAU@ 0000000180143528     libucrt:lcidtoname_downlevel.obj
 0002:0000b538       ??_C@_1M@MNPLFAAH@?$AAe?$AAs?$AA?9?$AAE?$AAS@ 0000000180143538     libucrt:lcidtoname_downlevel.obj
 0002:0000b548       ??_C@_1M@HJOOJFMA@?$AAf?$AAr?$AA?9?$AAC?$AAA@ 0000000180143548     libucrt:lcidtoname_downlevel.obj
 0002:0000b558       ??_C@_1BG@JPOFPNAB@?$AAs?$AAr?$AA?9?$AAS?$AAP?$AA?9?$AAC?$AAy?$AAr?$AAl@ 0000000180143558     libucrt:lcidtoname_downlevel.obj
 0002:0000b570       ??_C@_1M@LNFOCMOB@?$AAs?$AAe?$AA?9?$AAF?$AAI@ 0000000180143570     libucrt:lcidtoname_downlevel.obj
 0002:0000b580       ??_C@_1O@MGJBOAMB@?$AAq?$AAu?$AAz?$AA?9?$AAP?$AAE@ 0000000180143580     libucrt:lcidtoname_downlevel.obj
 0002:0000b590       ??_C@_1M@GJINLBOK@?$AAa?$AAr?$AA?9?$AAL?$AAY@ 0000000180143590     libucrt:lcidtoname_downlevel.obj
 0002:0000b5a0       ??_C@_1M@GGMNHJNL@?$AAz?$AAh?$AA?9?$AAS?$AAG@ 00000001801435a0     libucrt:lcidtoname_downlevel.obj
 0002:0000b5b0       ??_C@_1M@HOIKODND@?$AAd?$AAe?$AA?9?$AAL?$AAU@ 00000001801435b0     libucrt:lcidtoname_downlevel.obj
 0002:0000b5c0       ??_C@_1M@DDOCCGFG@?$AAe?$AAn?$AA?9?$AAC?$AAA@ 00000001801435c0     libucrt:lcidtoname_downlevel.obj
 0002:0000b5d0       ??_C@_1M@BNOEMJLF@?$AAe?$AAs?$AA?9?$AAG?$AAT@ 00000001801435d0     libucrt:lcidtoname_downlevel.obj
 0002:0000b5e0       ??_C@_1M@EOGNKEK@?$AAf?$AAr?$AA?9?$AAC?$AAH@ 00000001801435e0     libucrt:lcidtoname_downlevel.obj
 0002:0000b5f0       ??_C@_1M@FLIDJFHL@?$AAh?$AAr?$AA?9?$AAB?$AAA@ 00000001801435f0     libucrt:lcidtoname_downlevel.obj
 0002:0000b600       ??_C@_1O@FMCELNAJ@?$AAs?$AAm?$AAj?$AA?9?$AAN?$AAO@ 0000000180143600     libucrt:lcidtoname_downlevel.obj
 0002:0000b610       ??_C@_1M@JHGLJMGJ@?$AAa?$AAr?$AA?9?$AAD?$AAZ@ 0000000180143610     libucrt:lcidtoname_downlevel.obj
 0002:0000b620       ??_C@_1M@JKKFDCNP@?$AAz?$AAh?$AA?9?$AAM?$AAO@ 0000000180143620     libucrt:lcidtoname_downlevel.obj
 0002:0000b630       ??_C@_1M@GEEFALPE@?$AAd?$AAe?$AA?9?$AAL?$AAI@ 0000000180143630     libucrt:lcidtoname_downlevel.obj
 0002:0000b640       ??_C@_1M@IGEOFBG@?$AAe?$AAn?$AA?9?$AAN?$AAZ@ 0000000180143640     libucrt:lcidtoname_downlevel.obj
 0002:0000b650       ??_C@_1M@KDBONEHP@?$AAe?$AAs?$AA?9?$AAC?$AAR@ 0000000180143650     libucrt:lcidtoname_downlevel.obj
 0002:0000b660       ??_C@_1M@FHMDOHNN@?$AAf?$AAr?$AA?9?$AAL?$AAU@ 0000000180143660     libucrt:lcidtoname_downlevel.obj
 0002:0000b670       ??_C@_1BG@NFKKMAFG@?$AAb?$AAs?$AA?9?$AAB?$AAA?$AA?9?$AAL?$AAa?$AAt?$AAn@ 0000000180143670     libucrt:lcidtoname_downlevel.obj
 0002:0000b688       ??_C@_1O@IMNBEMCI@?$AAs?$AAm?$AAj?$AA?9?$AAS?$AAE@ 0000000180143688     libucrt:lcidtoname_downlevel.obj
 0002:0000b698       ??_C@_1M@DHHMBNDP@?$AAa?$AAr?$AA?9?$AAM?$AAA@ 0000000180143698     libucrt:lcidtoname_downlevel.obj
 0002:0000b6a8       ??_C@_1M@BNBLJCGH@?$AAe?$AAn?$AA?9?$AAI?$AAE@ 00000001801436a8     libucrt:lcidtoname_downlevel.obj
 0002:0000b6b8       ??_C@_1M@GEPAFMDL@?$AAe?$AAs?$AA?9?$AAP?$AAA@ 00000001801436b8     libucrt:lcidtoname_downlevel.obj
 0002:0000b6c8       ??_C@_1M@OJONDMDL@?$AAf?$AAr?$AA?9?$AAM?$AAC@ 00000001801436c8     libucrt:lcidtoname_downlevel.obj
 0002:0000b6d8       ??_C@_1BG@OBCNFJB@?$AAs?$AAr?$AA?9?$AAB?$AAA?$AA?9?$AAL?$AAa?$AAt?$AAn@ 00000001801436d8     libucrt:lcidtoname_downlevel.obj
 0002:0000b6f0       ??_C@_1O@KEMEEGPO@?$AAs?$AAm?$AAa?$AA?9?$AAN?$AAO@ 00000001801436f0     libucrt:lcidtoname_downlevel.obj
 0002:0000b700       ??_C@_1M@ELMGFODK@?$AAa?$AAr?$AA?9?$AAT?$AAN@ 0000000180143700     libucrt:lcidtoname_downlevel.obj
 0002:0000b710       ??_C@_1M@BHDLHFAF@?$AAe?$AAn?$AA?9?$AAZ?$AAA@ 0000000180143710     libucrt:lcidtoname_downlevel.obj
 0002:0000b720       ??_C@_1M@BMGIGLIF@?$AAe?$AAs?$AA?9?$AAD?$AAO@ 0000000180143720     libucrt:lcidtoname_downlevel.obj
 0002:0000b730       ??_C@_1BG@CMBHIPBE@?$AAs?$AAr?$AA?9?$AAB?$AAA?$AA?9?$AAC?$AAy?$AAr?$AAl@ 0000000180143730     libucrt:lcidtoname_downlevel.obj
 0002:0000b748       ??_C@_1O@HEDBLHNP@?$AAs?$AAm?$AAa?$AA?9?$AAS?$AAE@ 0000000180143748     libucrt:lcidtoname_downlevel.obj
 0002:0000b758       ??_C@_1M@DAGCADIM@?$AAa?$AAr?$AA?9?$AAO?$AAM@ 0000000180143758     libucrt:lcidtoname_downlevel.obj
 0002:0000b768       ??_C@_1M@FODLMICG@?$AAe?$AAn?$AA?9?$AAJ?$AAM@ 0000000180143768     libucrt:lcidtoname_downlevel.obj
 0002:0000b778       ??_C@_1M@DNMLCIHB@?$AAe?$AAs?$AA?9?$AAV?$AAE@ 0000000180143778     libucrt:lcidtoname_downlevel.obj
 0002:0000b788       ??_C@_1O@EOKHMKJK@?$AAs?$AAm?$AAs?$AA?9?$AAF?$AAI@ 0000000180143788     libucrt:lcidtoname_downlevel.obj
 0002:0000b798       ??_C@_1M@CAFJMKOF@?$AAa?$AAr?$AA?9?$AAY?$AAE@ 0000000180143798     libucrt:lcidtoname_downlevel.obj
 0002:0000b7a8       ??_C@_1M@CBFHIJLI@?$AAe?$AAn?$AA?9?$AAC?$AAB@ 00000001801437a8     libucrt:lcidtoname_downlevel.obj
 0002:0000b7b8       ??_C@_1M@BGNFLDN@?$AAe?$AAs?$AA?9?$AAC?$AAO@ 00000001801437b8     libucrt:lcidtoname_downlevel.obj
 0002:0000b7c8       ??_C@_1O@JMPHMAMC@?$AAs?$AAm?$AAn?$AA?9?$AAF?$AAI@ 00000001801437c8     libucrt:lcidtoname_downlevel.obj
 0002:0000b7d8       ??_C@_1M@JLANABKE@?$AAa?$AAr?$AA?9?$AAS?$AAY@ 00000001801437d8     libucrt:lcidtoname_downlevel.obj
 0002:0000b7e8       ??_C@_1M@HPKGCFGN@?$AAe?$AAn?$AA?9?$AAB?$AAZ@ 00000001801437e8     libucrt:lcidtoname_downlevel.obj
 0002:0000b7f8       ??_C@_1M@OLJCMLGM@?$AAe?$AAs?$AA?9?$AAP?$AAE@ 00000001801437f8     libucrt:lcidtoname_downlevel.obj
 0002:0000b808       ??_C@_1M@MKKGFKLE@?$AAa?$AAr?$AA?9?$AAJ?$AAO@ 0000000180143808     libucrt:lcidtoname_downlevel.obj
 0002:0000b818       ??_C@_1M@EKPGLDNI@?$AAe?$AAn?$AA?9?$AAT?$AAT@ 0000000180143818     libucrt:lcidtoname_downlevel.obj
 0002:0000b828       ??_C@_1M@OONGHFHE@?$AAe?$AAs?$AA?9?$AAA?$AAR@ 0000000180143828     libucrt:lcidtoname_downlevel.obj
 0002:0000b838       ??_C@_1M@OOJFGBHE@?$AAa?$AAr?$AA?9?$AAL?$AAB@ 0000000180143838     libucrt:lcidtoname_downlevel.obj
 0002:0000b848       ??_C@_1M@GCEJHNEG@?$AAe?$AAn?$AA?9?$AAZ?$AAW@ 0000000180143848     libucrt:lcidtoname_downlevel.obj
 0002:0000b858       ??_C@_1M@JNOCAHJI@?$AAe?$AAs?$AA?9?$AAE?$AAC@ 0000000180143858     libucrt:lcidtoname_downlevel.obj
 0002:0000b868       ??_C@_1M@JEFHPGGB@?$AAa?$AAr?$AA?9?$AAK?$AAW@ 0000000180143868     libucrt:lcidtoname_downlevel.obj
 0002:0000b878       ??_C@_1M@MLKIBJOJ@?$AAe?$AAn?$AA?9?$AAP?$AAH@ 0000000180143878     libucrt:lcidtoname_downlevel.obj
 0002:0000b888       ??_C@_1M@BDNIPEND@?$AAe?$AAs?$AA?9?$AAC?$AAL@ 0000000180143888     libucrt:lcidtoname_downlevel.obj
 0002:0000b898       ??_C@_1M@MPNMEKBD@?$AAa?$AAr?$AA?9?$AAA?$AAE@ 0000000180143898     libucrt:lcidtoname_downlevel.obj
 0002:0000b8a8       ??_C@_1M@KBJALCPI@?$AAe?$AAs?$AA?9?$AAU?$AAY@ 00000001801438a8     libucrt:lcidtoname_downlevel.obj
 0002:0000b8b8       ??_C@_1M@LLCCOAGA@?$AAa?$AAr?$AA?9?$AAB?$AAH@ 00000001801438b8     libucrt:lcidtoname_downlevel.obj
 0002:0000b8c8       ??_C@_1M@PBFNCDEL@?$AAe?$AAs?$AA?9?$AAP?$AAY@ 00000001801438c8     libucrt:lcidtoname_downlevel.obj
 0002:0000b8d8       ??_C@_1M@EDGINPNP@?$AAa?$AAr?$AA?9?$AAQ?$AAA@ 00000001801438d8     libucrt:lcidtoname_downlevel.obj
 0002:0000b8e8       ??_C@_1M@MKDBIIJI@?$AAe?$AAs?$AA?9?$AAB?$AAO@ 00000001801438e8     libucrt:lcidtoname_downlevel.obj
 0002:0000b8f8       ??_C@_1M@CPKKEBLD@?$AAe?$AAs?$AA?9?$AAS?$AAV@ 00000001801438f8     libucrt:lcidtoname_downlevel.obj
 0002:0000b908       ??_C@_1M@NDBGMMJL@?$AAe?$AAs?$AA?9?$AAH?$AAN@ 0000000180143908     libucrt:lcidtoname_downlevel.obj
 0002:0000b918       ??_C@_1M@JIJIBHDP@?$AAe?$AAs?$AA?9?$AAN?$AAI@ 0000000180143918     libucrt:lcidtoname_downlevel.obj
 0002:0000b928       ??_C@_1M@CGFMKEEK@?$AAe?$AAs?$AA?9?$AAP?$AAR@ 0000000180143928     libucrt:lcidtoname_downlevel.obj
 0002:0000b938       ??_C@_1O@ICJHKIIK@?$AAz?$AAh?$AA?9?$AAC?$AAH?$AAT@ 0000000180143938     libucrt:lcidtoname_downlevel.obj
 0002:0000b948       ??_C@_15CLNEJCE@?$AAs?$AAr@ 0000000180143948     libucrt:lcidtoname_downlevel.obj
 0002:0000c790       ??_C@_1M@KAHEKEIG@?$AAa?$AAf?$AA?9?$AAz?$AAa@ 0000000180144790     libucrt:lcidtoname_downlevel.obj
 0002:0000c7a0       ??_C@_1M@GIECOABL@?$AAa?$AAr?$AA?9?$AAa?$AAe@ 00000001801447a0     libucrt:lcidtoname_downlevel.obj
 0002:0000c7b0       ??_C@_1M@BMLMEKGI@?$AAa?$AAr?$AA?9?$AAb?$AAh@ 00000001801447b0     libucrt:lcidtoname_downlevel.obj
 0002:0000c7c0       ??_C@_1M@DAPFDGGB@?$AAa?$AAr?$AA?9?$AAd?$AAz@ 00000001801447c0     libucrt:lcidtoname_downlevel.obj
 0002:0000c7d0       ??_C@_1M@FJNKGKIG@?$AAa?$AAr?$AA?9?$AAe?$AAg@ 00000001801447d0     libucrt:lcidtoname_downlevel.obj
 0002:0000c7e0       ??_C@_1M@FLGKKCLO@?$AAa?$AAr?$AA?9?$AAi?$AAq@ 00000001801447e0     libucrt:lcidtoname_downlevel.obj
 0002:0000c7f0       ??_C@_1M@GNDIPALM@?$AAa?$AAr?$AA?9?$AAj?$AAo@ 00000001801447f0     libucrt:lcidtoname_downlevel.obj
 0002:0000c800       ??_C@_1M@DDMJFMGJ@?$AAa?$AAr?$AA?9?$AAk?$AAw@ 0000000180144800     libucrt:lcidtoname_downlevel.obj
 0002:0000c810       ??_C@_1M@EJALMLHM@?$AAa?$AAr?$AA?9?$AAl?$AAb@ 0000000180144810     libucrt:lcidtoname_downlevel.obj
 0002:0000c820       ??_C@_1M@MOBDBLOC@?$AAa?$AAr?$AA?9?$AAl?$AAy@ 0000000180144820     libucrt:lcidtoname_downlevel.obj
 0002:0000c830       ??_C@_1M@JAOCLHDH@?$AAa?$AAr?$AA?9?$AAm?$AAa@ 0000000180144830     libucrt:lcidtoname_downlevel.obj
 0002:0000c840       ??_C@_1M@JHPMKJIE@?$AAa?$AAr?$AA?9?$AAo?$AAm@ 0000000180144840     libucrt:lcidtoname_downlevel.obj
 0002:0000c850       ??_C@_1M@OEPGHFNH@?$AAa?$AAr?$AA?9?$AAq?$AAa@ 0000000180144850     libucrt:lcidtoname_downlevel.obj
 0002:0000c860       ??_C@_1M@KJDONENM@?$AAa?$AAr?$AA?9?$AAs?$AAa@ 0000000180144860     libucrt:lcidtoname_downlevel.obj
 0002:0000c870       ??_C@_1M@DMJDKLKM@?$AAa?$AAr?$AA?9?$AAs?$AAy@ 0000000180144870     libucrt:lcidtoname_downlevel.obj
 0002:0000c880       ??_C@_1M@OMFIPEDC@?$AAa?$AAr?$AA?9?$AAt?$AAn@ 0000000180144880     libucrt:lcidtoname_downlevel.obj
 0002:0000c890       ??_C@_1M@IHMHGAON@?$AAa?$AAr?$AA?9?$AAy?$AAe@ 0000000180144890     libucrt:lcidtoname_downlevel.obj
 0002:0000c8a0       ??_C@_1BG@KDCPGJGB@?$AAa?$AAz?$AA?9?$AAa?$AAz?$AA?9?$AAc?$AAy?$AAr?$AAl@ 00000001801448a0     libucrt:lcidtoname_downlevel.obj
 0002:0000c8b8       ??_C@_1BG@IBCKDDOE@?$AAa?$AAz?$AA?9?$AAa?$AAz?$AA?9?$AAl?$AAa?$AAt?$AAn@ 00000001801448b8     libucrt:lcidtoname_downlevel.obj
 0002:0000c8d0       ??_C@_1M@EGPFDCPD@?$AAb?$AAe?$AA?9?$AAb?$AAy@ 00000001801448d0     libucrt:lcidtoname_downlevel.obj
 0002:0000c8e0       ??_C@_1M@PCMGMCGC@?$AAb?$AAg?$AA?9?$AAb?$AAg@ 00000001801448e0     libucrt:lcidtoname_downlevel.obj
 0002:0000c8f0       ??_C@_1M@BJBMFGOB@?$AAb?$AAn?$AA?9?$AAi?$AAn@ 00000001801448f0     libucrt:lcidtoname_downlevel.obj
 0002:0000c900       ??_C@_1BG@EAKMMACD@?$AAb?$AAs?$AA?9?$AAb?$AAa?$AA?9?$AAl?$AAa?$AAt?$AAn@ 0000000180144900     libucrt:lcidtoname_downlevel.obj
 0002:0000c918       ??_C@_1M@KGADAODK@?$AAc?$AAa?$AA?9?$AAe?$AAs@ 0000000180144918     libucrt:lcidtoname_downlevel.obj
 0002:0000c928       ??_C@_1M@COAJPDHI@?$AAc?$AAs?$AA?9?$AAc?$AAz@ 0000000180144928     libucrt:lcidtoname_downlevel.obj
 0002:0000c938       ??_C@_1M@DHBHFONH@?$AAc?$AAy?$AA?9?$AAg?$AAb@ 0000000180144938     libucrt:lcidtoname_downlevel.obj
 0002:0000c948       ??_C@_1M@IMGKELGA@?$AAd?$AAa?$AA?9?$AAd?$AAk@ 0000000180144948     libucrt:lcidtoname_downlevel.obj
 0002:0000c958       ??_C@_1M@NNDGDNGA@?$AAd?$AAe?$AA?9?$AAa?$AAt@ 0000000180144958     libucrt:lcidtoname_downlevel.obj
 0002:0000c968       ??_C@_1M@IKDBHEEM@?$AAd?$AAe?$AA?9?$AAc?$AAh@ 0000000180144968     libucrt:lcidtoname_downlevel.obj
 0002:0000c978       ??_C@_1M@GFFOJMCJ@?$AAd?$AAe?$AA?9?$AAd?$AAe@ 0000000180144978     libucrt:lcidtoname_downlevel.obj
 0002:0000c988       ??_C@_1M@MDNLKBPM@?$AAd?$AAe?$AA?9?$AAl?$AAi@ 0000000180144988     libucrt:lcidtoname_downlevel.obj
 0002:0000c998       ??_C@_1M@NJBEEJNL@?$AAd?$AAe?$AA?9?$AAl?$AAu@ 0000000180144998     libucrt:lcidtoname_downlevel.obj
 0002:0000c9a8       ??_C@_1O@GNNELBAP@?$AAd?$AAi?$AAv?$AA?9?$AAm?$AAv@ 00000001801449a8     libucrt:lcidtoname_downlevel.obj
 0002:0000c9b8       ??_C@_1M@EJLEOGAE@?$AAe?$AAl?$AA?9?$AAg?$AAr@ 00000001801449b8     libucrt:lcidtoname_downlevel.obj
 0002:0000c9c8       ??_C@_1M@GMPONJN@?$AAe?$AAn?$AA?9?$AAa?$AAu@ 00000001801449c8     libucrt:lcidtoname_downlevel.obj
 0002:0000c9d8       ??_C@_1M@NIDIIPGF@?$AAe?$AAn?$AA?9?$AAb?$AAz@ 00000001801449d8     libucrt:lcidtoname_downlevel.obj
 0002:0000c9e8       ??_C@_1M@JEHMIMFO@?$AAe?$AAn?$AA?9?$AAc?$AAa@ 00000001801449e8     libucrt:lcidtoname_downlevel.obj
 0002:0000c9f8       ??_C@_1M@IGMJCDLA@?$AAe?$AAn?$AA?9?$AAc?$AAb@ 00000001801449f8     libucrt:lcidtoname_downlevel.obj
 0002:0000ca08       ??_C@_1M@BNFIGBKG@?$AAe?$AAn?$AA?9?$AAg?$AAb@ 0000000180144a08     libucrt:lcidtoname_downlevel.obj
 0002:0000ca18       ??_C@_1M@LKIFDIGP@?$AAe?$AAn?$AA?9?$AAi?$AAe@ 0000000180144a18     libucrt:lcidtoname_downlevel.obj
 0002:0000ca28       ??_C@_1M@PJKFGCCO@?$AAe?$AAn?$AA?9?$AAj?$AAm@ 0000000180144a28     libucrt:lcidtoname_downlevel.obj
 0002:0000ca38       ??_C@_1M@KPPKEPBO@?$AAe?$AAn?$AA?9?$AAn?$AAz@ 0000000180144a38     libucrt:lcidtoname_downlevel.obj
 0002:0000ca48       ??_C@_1M@GMDGLDOB@?$AAe?$AAn?$AA?9?$AAp?$AAh@ 0000000180144a48     libucrt:lcidtoname_downlevel.obj
 0002:0000ca58       ??_C@_1M@ONGIBJNA@?$AAe?$AAn?$AA?9?$AAt?$AAt@ 0000000180144a58     libucrt:lcidtoname_downlevel.obj
 0002:0000ca68       ??_C@_1M@LLODPCMM@?$AAe?$AAn?$AA?9?$AAu?$AAs@ 0000000180144a68     libucrt:lcidtoname_downlevel.obj
 0002:0000ca78       ??_C@_1M@LAKFNPAN@?$AAe?$AAn?$AA?9?$AAz?$AAa@ 0000000180144a78     libucrt:lcidtoname_downlevel.obj
 0002:0000ca88       ??_C@_1M@MFNHNHEO@?$AAe?$AAn?$AA?9?$AAz?$AAw@ 0000000180144a88     libucrt:lcidtoname_downlevel.obj
 0002:0000ca98       ??_C@_1M@EJEINPHM@?$AAe?$AAs?$AA?9?$AAa?$AAr@ 0000000180144a98     libucrt:lcidtoname_downlevel.obj
 0002:0000caa8       ??_C@_1M@GNKPCCJA@?$AAe?$AAs?$AA?9?$AAb?$AAo@ 0000000180144aa8     libucrt:lcidtoname_downlevel.obj
 0002:0000cab8       ??_C@_1M@LEEGFONL@?$AAe?$AAs?$AA?9?$AAc?$AAl@ 0000000180144ab8     libucrt:lcidtoname_downlevel.obj
 0002:0000cac8       ??_C@_1M@KGPDPBDF@?$AAe?$AAs?$AA?9?$AAc?$AAo@ 0000000180144ac8     libucrt:lcidtoname_downlevel.obj
 0002:0000cad8       ??_C@_1M@EIAHOHH@?$AAe?$AAs?$AA?9?$AAc?$AAr@ 0000000180144ad8     libucrt:lcidtoname_downlevel.obj
 0002:0000cae8       ??_C@_1M@LLPGMBIN@?$AAe?$AAs?$AA?9?$AAd?$AAo@ 0000000180144ae8     libucrt:lcidtoname_downlevel.obj
 0002:0000caf8       ??_C@_1M@DKHMKNJA@?$AAe?$AAs?$AA?9?$AAe?$AAc@ 0000000180144af8     libucrt:lcidtoname_downlevel.obj
 0002:0000cb08       ??_C@_1M@GKGFPKAP@?$AAe?$AAs?$AA?9?$AAe?$AAs@ 0000000180144b08     libucrt:lcidtoname_downlevel.obj
 0002:0000cb18       ??_C@_1M@LKHKGDLN@?$AAe?$AAs?$AA?9?$AAg?$AAt@ 0000000180144b18     libucrt:lcidtoname_downlevel.obj
 0002:0000cb28       ??_C@_1M@HEIIGGJD@?$AAe?$AAs?$AA?9?$AAh?$AAn@ 0000000180144b28     libucrt:lcidtoname_downlevel.obj
 0002:0000cb38       ??_C@_1M@FBDHPPGD@?$AAe?$AAs?$AA?9?$AAm?$AAx@ 0000000180144b38     libucrt:lcidtoname_downlevel.obj
 0002:0000cb48       ??_C@_1M@DPAGLNDH@?$AAe?$AAs?$AA?9?$AAn?$AAi@ 0000000180144b48     libucrt:lcidtoname_downlevel.obj
 0002:0000cb58       ??_C@_1M@MDGOPGDD@?$AAe?$AAs?$AA?9?$AAp?$AAa@ 0000000180144b58     libucrt:lcidtoname_downlevel.obj
 0002:0000cb68       ??_C@_1M@EMAMGBGE@?$AAe?$AAs?$AA?9?$AAp?$AAe@ 0000000180144b68     libucrt:lcidtoname_downlevel.obj
 0002:0000cb78       ??_C@_1M@IBMCAOEC@?$AAe?$AAs?$AA?9?$AAp?$AAr@ 0000000180144b78     libucrt:lcidtoname_downlevel.obj
 0002:0000cb88       ??_C@_1M@FGMDIJED@?$AAe?$AAs?$AA?9?$AAp?$AAy@ 0000000180144b88     libucrt:lcidtoname_downlevel.obj
 0002:0000cb98       ??_C@_1M@IIDEOLLL@?$AAe?$AAs?$AA?9?$AAs?$AAv@ 0000000180144b98     libucrt:lcidtoname_downlevel.obj
 0002:0000cba8       ??_C@_1M@GAOBIPA@?$AAe?$AAs?$AA?9?$AAu?$AAy@ 0000000180144ba8     libucrt:lcidtoname_downlevel.obj
 0002:0000cbb8       ??_C@_1M@JKFFICHJ@?$AAe?$AAs?$AA?9?$AAv?$AAe@ 0000000180144bb8     libucrt:lcidtoname_downlevel.obj
 0002:0000cbc8       ??_C@_1M@PNMLOJDF@?$AAe?$AAt?$AA?9?$AAe?$AAe@ 0000000180144bc8     libucrt:lcidtoname_downlevel.obj
 0002:0000cbd8       ??_C@_1M@GHHLIKEI@?$AAe?$AAu?$AA?9?$AAe?$AAs@ 0000000180144bd8     libucrt:lcidtoname_downlevel.obj
 0002:0000cbe8       ??_C@_1M@PBNONODE@?$AAf?$AAa?$AA?9?$AAi?$AAr@ 0000000180144be8     libucrt:lcidtoname_downlevel.obj
 0002:0000cbf8       ??_C@_1M@JEEHPMIL@?$AAf?$AAi?$AA?9?$AAf?$AAi@ 0000000180144bf8     libucrt:lcidtoname_downlevel.obj
 0002:0000cc08       ??_C@_1M@LMDCNDBA@?$AAf?$AAo?$AA?9?$AAf?$AAo@ 0000000180144c08     libucrt:lcidtoname_downlevel.obj
 0002:0000cc18       ??_C@_1M@JKEOHLDK@?$AAf?$AAr?$AA?9?$AAb?$AAe@ 0000000180144c18     libucrt:lcidtoname_downlevel.obj
 0002:0000cc28       ??_C@_1M@NOHADPMI@?$AAf?$AAr?$AA?9?$AAc?$AAa@ 0000000180144c28     libucrt:lcidtoname_downlevel.obj
 0002:0000cc38       ??_C@_1M@KDHIHAEC@?$AAf?$AAr?$AA?9?$AAc?$AAh@ 0000000180144c38     libucrt:lcidtoname_downlevel.obj
 0002:0000cc48       ??_C@_1M@MMBBFGAK@?$AAf?$AAr?$AA?9?$AAf?$AAr@ 0000000180144c48     libucrt:lcidtoname_downlevel.obj
 0002:0000cc58       ??_C@_1M@PAFNENNF@?$AAf?$AAr?$AA?9?$AAl?$AAu@ 0000000180144c58     libucrt:lcidtoname_downlevel.obj
 0002:0000cc68       ??_C@_1M@EOHDJGDD@?$AAf?$AAr?$AA?9?$AAm?$AAc@ 0000000180144c68     libucrt:lcidtoname_downlevel.obj
 0002:0000cc78       ??_C@_1M@FAPLLOPF@?$AAg?$AAl?$AA?9?$AAe?$AAs@ 0000000180144c78     libucrt:lcidtoname_downlevel.obj
 0002:0000cc88       ??_C@_1M@FOPBFLOO@?$AAg?$AAu?$AA?9?$AAi?$AAn@ 0000000180144c88     libucrt:lcidtoname_downlevel.obj
 0002:0000cc98       ??_C@_1M@KBMCINPM@?$AAh?$AAe?$AA?9?$AAi?$AAl@ 0000000180144c98     libucrt:lcidtoname_downlevel.obj
 0002:0000cca8       ??_C@_1M@BBPHKFPJ@?$AAh?$AAi?$AA?9?$AAi?$AAn@ 0000000180144ca8     libucrt:lcidtoname_downlevel.obj
 0002:0000ccb8       ??_C@_1M@PMBNDPHD@?$AAh?$AAr?$AA?9?$AAb?$AAa@ 0000000180144cb8     libucrt:lcidtoname_downlevel.obj
 0002:0000ccc8       ??_C@_1M@BPCKOEGE@?$AAh?$AAr?$AA?9?$AAh?$AAr@ 0000000180144cc8     libucrt:lcidtoname_downlevel.obj
 0002:0000ccd8       ??_C@_1M@GACBMHKE@?$AAh?$AAu?$AA?9?$AAh?$AAu@ 0000000180144cd8     libucrt:lcidtoname_downlevel.obj
 0002:0000cce8       ??_C@_1M@MILPAJJC@?$AAh?$AAy?$AA?9?$AAa?$AAm@ 0000000180144ce8     libucrt:lcidtoname_downlevel.obj
 0002:0000ccf8       ??_C@_1M@BABBICEC@?$AAi?$AAd?$AA?9?$AAi?$AAd@ 0000000180144cf8     libucrt:lcidtoname_downlevel.obj
 0002:0000cd08       ??_C@_1M@BIKNHHPF@?$AAi?$AAs?$AA?9?$AAi?$AAs@ 0000000180144d08     libucrt:lcidtoname_downlevel.obj
 0002:0000cd18       ??_C@_1M@NMPCJPHE@?$AAi?$AAt?$AA?9?$AAc?$AAh@ 0000000180144d18     libucrt:lcidtoname_downlevel.obj
 0002:0000cd28       ??_C@_1M@GHKGFEDF@?$AAi?$AAt?$AA?9?$AAi?$AAt@ 0000000180144d28     libucrt:lcidtoname_downlevel.obj
 0002:0000cd38       ??_C@_1M@NIEJCJJA@?$AAj?$AAa?$AA?9?$AAj?$AAp@ 0000000180144d38     libucrt:lcidtoname_downlevel.obj
 0002:0000cd48       ??_C@_1M@JILFNBIM@?$AAk?$AAa?$AA?9?$AAg?$AAe@ 0000000180144d48     libucrt:lcidtoname_downlevel.obj
 0002:0000cd58       ??_C@_1M@PACPMGPH@?$AAk?$AAk?$AA?9?$AAk?$AAz@ 0000000180144d58     libucrt:lcidtoname_downlevel.obj
 0002:0000cd68       ??_C@_1M@IELFGMHA@?$AAk?$AAn?$AA?9?$AAi?$AAn@ 0000000180144d68     libucrt:lcidtoname_downlevel.obj
 0002:0000cd78       ??_C@_1O@IBBJHCH@?$AAk?$AAo?$AAk?$AA?9?$AAi?$AAn@ 0000000180144d78     libucrt:lcidtoname_downlevel.obj
 0002:0000cd88       ??_C@_1M@DMHAEOGC@?$AAk?$AAo?$AA?9?$AAk?$AAr@ 0000000180144d88     libucrt:lcidtoname_downlevel.obj
 0002:0000cd98       ??_C@_1M@HBAHBIGA@?$AAk?$AAy?$AA?9?$AAk?$AAg@ 0000000180144d98     libucrt:lcidtoname_downlevel.obj
 0002:0000cda8       ??_C@_1M@KPMILCJG@?$AAl?$AAt?$AA?9?$AAl?$AAt@ 0000000180144da8     libucrt:lcidtoname_downlevel.obj
 0002:0000cdb8       ??_C@_1M@BDEKKCA@?$AAl?$AAv?$AA?9?$AAl?$AAv@ 0000000180144db8     libucrt:lcidtoname_downlevel.obj
 0002:0000cdc8       ??_C@_1M@ELCKCCJJ@?$AAm?$AAi?$AA?9?$AAn?$AAz@ 0000000180144dc8     libucrt:lcidtoname_downlevel.obj
 0002:0000cdd8       ??_C@_1M@CBOOLAPA@?$AAm?$AAk?$AA?9?$AAm?$AAk@ 0000000180144dd8     libucrt:lcidtoname_downlevel.obj
 0002:0000cde8       ??_C@_1M@GPHNBJKN@?$AAm?$AAl?$AA?9?$AAi?$AAn@ 0000000180144de8     libucrt:lcidtoname_downlevel.obj
 0002:0000cdf8       ??_C@_1M@PABJILIG@?$AAm?$AAn?$AA?9?$AAm?$AAn@ 0000000180144df8     libucrt:lcidtoname_downlevel.obj
 0002:0000ce08       ??_C@_1M@FGBKKIPG@?$AAm?$AAr?$AA?9?$AAi?$AAn@ 0000000180144e08     libucrt:lcidtoname_downlevel.obj
 0002:0000ce18       ??_C@_1M@NDBPDDAL@?$AAm?$AAs?$AA?9?$AAb?$AAn@ 0000000180144e18     libucrt:lcidtoname_downlevel.obj
 0002:0000ce28       ??_C@_1M@OPIHOOPI@?$AAm?$AAs?$AA?9?$AAm?$AAy@ 0000000180144e28     libucrt:lcidtoname_downlevel.obj
 0002:0000ce38       ??_C@_1M@PPDBCNFM@?$AAm?$AAt?$AA?9?$AAm?$AAt@ 0000000180144e38     libucrt:lcidtoname_downlevel.obj
 0002:0000ce48       ??_C@_1M@KDJDKMDD@?$AAn?$AAb?$AA?9?$AAn?$AAo@ 0000000180144e48     libucrt:lcidtoname_downlevel.obj
 0002:0000ce58       ??_C@_1M@KFCFLMJP@?$AAn?$AAl?$AA?9?$AAb?$AAe@ 0000000180144e58     libucrt:lcidtoname_downlevel.obj
 0002:0000ce68       ??_C@_1M@KPOPDDGO@?$AAn?$AAl?$AA?9?$AAn?$AAl@ 0000000180144e68     libucrt:lcidtoname_downlevel.obj
 0002:0000ce78       ??_C@_1M@LJKPEMLN@?$AAn?$AAn?$AA?9?$AAn?$AAo@ 0000000180144e78     libucrt:lcidtoname_downlevel.obj
 0002:0000ce88       ??_C@_1M@BDGHHBFL@?$AAn?$AAs?$AA?9?$AAz?$AAa@ 0000000180144e88     libucrt:lcidtoname_downlevel.obj
 0002:0000ce98       ??_C@_1M@IDEHOAP@?$AAp?$AAa?$AA?9?$AAi?$AAn@ 0000000180144e98     libucrt:lcidtoname_downlevel.obj
 0002:0000cea8       ??_C@_1M@HDBKGOGH@?$AAp?$AAl?$AA?9?$AAp?$AAl@ 0000000180144ea8     libucrt:lcidtoname_downlevel.obj
 0002:0000ceb8       ??_C@_1M@LJLLCMEH@?$AAp?$AAt?$AA?9?$AAb?$AAr@ 0000000180144eb8     libucrt:lcidtoname_downlevel.obj
 0002:0000cec8       ??_C@_1M@NCMONAAL@?$AAp?$AAt?$AA?9?$AAp?$AAt@ 0000000180144ec8     libucrt:lcidtoname_downlevel.obj
 0002:0000ced8       ??_C@_1O@EAKMAJDN@?$AAq?$AAu?$AAz?$AA?9?$AAb?$AAo@ 0000000180144ed8     libucrt:lcidtoname_downlevel.obj
 0002:0000cee8       ??_C@_1O@BHHPIGDN@?$AAq?$AAu?$AAz?$AA?9?$AAe?$AAc@ 0000000180144ee8     libucrt:lcidtoname_downlevel.obj
 0002:0000cef8       ??_C@_1O@GBAPEKMJ@?$AAq?$AAu?$AAz?$AA?9?$AAp?$AAe@ 0000000180144ef8     libucrt:lcidtoname_downlevel.obj
 0002:0000cf08       ??_C@_1M@CLGLEFBO@?$AAr?$AAo?$AA?9?$AAr?$AAo@ 0000000180144f08     libucrt:lcidtoname_downlevel.obj
 0002:0000cf18       ??_C@_1M@CEEDODME@?$AAr?$AAu?$AA?9?$AAr?$AAu@ 0000000180144f18     libucrt:lcidtoname_downlevel.obj
 0002:0000cf28       ??_C@_1M@HPKKKMPP@?$AAs?$AAa?$AA?9?$AAi?$AAn@ 0000000180144f28     libucrt:lcidtoname_downlevel.obj
 0002:0000cf38       ??_C@_1M@BKMAIGOJ@?$AAs?$AAe?$AA?9?$AAf?$AAi@ 0000000180144f38     libucrt:lcidtoname_downlevel.obj
 0002:0000cf48       ??_C@_1M@NDPIFLFI@?$AAs?$AAe?$AA?9?$AAn?$AAo@ 0000000180144f48     libucrt:lcidtoname_downlevel.obj
 0002:0000cf58       ??_C@_1M@DANKKHJ@?$AAs?$AAe?$AA?9?$AAs?$AAe@ 0000000180144f58     libucrt:lcidtoname_downlevel.obj
 0002:0000cf68       ??_C@_1M@PNBLONPJ@?$AAs?$AAk?$AA?9?$AAs?$AAk@ 0000000180144f68     libucrt:lcidtoname_downlevel.obj
 0002:0000cf78       ??_C@_1M@LFMODOAL@?$AAs?$AAl?$AA?9?$AAs?$AAi@ 0000000180144f78     libucrt:lcidtoname_downlevel.obj
 0002:0000cf88       ??_C@_1O@DFKOMPG@?$AAs?$AAm?$AAa?$AA?9?$AAn?$AAo@ 0000000180144f88     libucrt:lcidtoname_downlevel.obj
 0002:0000cf98       ??_C@_1O@NDKPBNNH@?$AAs?$AAm?$AAa?$AA?9?$AAs?$AAe@ 0000000180144f98     libucrt:lcidtoname_downlevel.obj
 0002:0000cfa8       ??_C@_1O@PLLKBHAB@?$AAs?$AAm?$AAj?$AA?9?$AAn?$AAo@ 0000000180144fa8     libucrt:lcidtoname_downlevel.obj
 0002:0000cfb8       ??_C@_1O@CLEPOGCA@?$AAs?$AAm?$AAj?$AA?9?$AAs?$AAe@ 0000000180144fb8     libucrt:lcidtoname_downlevel.obj
 0002:0000cfc8       ??_C@_1O@DLGJGKMK@?$AAs?$AAm?$AAn?$AA?9?$AAf?$AAi@ 0000000180144fc8     libucrt:lcidtoname_downlevel.obj
 0002:0000cfd8       ??_C@_1O@OJDJGAJC@?$AAs?$AAm?$AAs?$AA?9?$AAf?$AAi@ 0000000180144fd8     libucrt:lcidtoname_downlevel.obj
 0002:0000cfe8       ??_C@_1M@BOFOGHPB@?$AAs?$AAq?$AA?9?$AAa?$AAl@ 0000000180144fe8     libucrt:lcidtoname_downlevel.obj
 0002:0000cff8       ??_C@_1BG@LJBBIPGB@?$AAs?$AAr?$AA?9?$AAb?$AAa?$AA?9?$AAc?$AAy?$AAr?$AAl@ 0000000180144ff8     libucrt:lcidtoname_downlevel.obj
 0002:0000d010       ??_C@_1BG@JLBENFOE@?$AAs?$AAr?$AA?9?$AAb?$AAa?$AA?9?$AAl?$AAa?$AAt?$AAn@ 0000000180145010     libucrt:lcidtoname_downlevel.obj
 0002:0000d028       ??_C@_1BG@KODPNHE@?$AAs?$AAr?$AA?9?$AAs?$AAp?$AA?9?$AAc?$AAy?$AAr?$AAl@ 0000000180145028     libucrt:lcidtoname_downlevel.obj
 0002:0000d040       ??_C@_1BG@CIOGKHPB@?$AAs?$AAr?$AA?9?$AAs?$AAp?$AA?9?$AAl?$AAa?$AAt?$AAn@ 0000000180145040     libucrt:lcidtoname_downlevel.obj
 0002:0000d058       ??_C@_1M@NGFJLMAC@?$AAs?$AAv?$AA?9?$AAf?$AAi@ 0000000180145058     libucrt:lcidtoname_downlevel.obj
 0002:0000d068       ??_C@_1M@MPJEJAJC@?$AAs?$AAv?$AA?9?$AAs?$AAe@ 0000000180145068     libucrt:lcidtoname_downlevel.obj
 0002:0000d078       ??_C@_1M@MPNDHLFK@?$AAs?$AAw?$AA?9?$AAk?$AAe@ 0000000180145078     libucrt:lcidtoname_downlevel.obj
 0002:0000d088       ??_C@_1O@KOHBJJI@?$AAs?$AAy?$AAr?$AA?9?$AAs?$AAy@ 0000000180145088     libucrt:lcidtoname_downlevel.obj
 0002:0000d098       ??_C@_1M@LDCEFHA@?$AAt?$AAa?$AA?9?$AAi?$AAn@ 0000000180145098     libucrt:lcidtoname_downlevel.obj
 0002:0000d0a8       ??_C@_1M@CNJOFAK@?$AAt?$AAe?$AA?9?$AAi?$AAn@ 00000001801450a8     libucrt:lcidtoname_downlevel.obj
 0002:0000d0b8       ??_C@_1M@GNAECACD@?$AAt?$AAh?$AA?9?$AAt?$AAh@ 00000001801450b8     libucrt:lcidtoname_downlevel.obj
 0002:0000d0c8       ??_C@_1M@CHBIHOJO@?$AAt?$AAn?$AA?9?$AAz?$AAa@ 00000001801450c8     libucrt:lcidtoname_downlevel.obj
 0002:0000d0d8       ??_C@_1M@GCCMIGPJ@?$AAt?$AAr?$AA?9?$AAt?$AAr@ 00000001801450d8     libucrt:lcidtoname_downlevel.obj
 0002:0000d0e8       ??_C@_1M@CELMCNBK@?$AAt?$AAt?$AA?9?$AAr?$AAu@ 00000001801450e8     libucrt:lcidtoname_downlevel.obj
 0002:0000d0f8       ??_C@_1M@KLMCELGA@?$AAu?$AAk?$AA?9?$AAu?$AAa@ 00000001801450f8     libucrt:lcidtoname_downlevel.obj
 0002:0000d108       ??_C@_1M@EPAJJAJF@?$AAu?$AAr?$AA?9?$AAp?$AAk@ 0000000180145108     libucrt:lcidtoname_downlevel.obj
 0002:0000d118       ??_C@_1BG@GEGPMCDJ@?$AAu?$AAz?$AA?9?$AAu?$AAz?$AA?9?$AAc?$AAy?$AAr?$AAl@ 0000000180145118     libucrt:lcidtoname_downlevel.obj
 0002:0000d130       ??_C@_1BG@EGGKJILM@?$AAu?$AAz?$AA?9?$AAu?$AAz?$AA?9?$AAl?$AAa?$AAt?$AAn@ 0000000180145130     libucrt:lcidtoname_downlevel.obj
 0002:0000d148       ??_C@_1M@GFOCLFF@?$AAv?$AAi?$AA?9?$AAv?$AAn@ 0000000180145148     libucrt:lcidtoname_downlevel.obj
 0002:0000d158       ??_C@_1M@CPAMEDFI@?$AAx?$AAh?$AA?9?$AAz?$AAa@ 0000000180145158     libucrt:lcidtoname_downlevel.obj
 0002:0000d168       ??_C@_1O@EBKIFIGN@?$AAz?$AAh?$AA?9?$AAc?$AAh?$AAs@ 0000000180145168     libucrt:lcidtoname_downlevel.obj
 0002:0000d178       ??_C@_1O@NMHPGANE@?$AAz?$AAh?$AA?9?$AAc?$AAh?$AAt@ 0000000180145178     libucrt:lcidtoname_downlevel.obj
 0002:0000d188       ??_C@_1M@LPINJOMC@?$AAz?$AAh?$AA?9?$AAc?$AAn@ 0000000180145188     libucrt:lcidtoname_downlevel.obj
 0002:0000d198       ??_C@_1M@OCJEJODD@?$AAz?$AAh?$AA?9?$AAh?$AAk@ 0000000180145198     libucrt:lcidtoname_downlevel.obj
 0002:0000d1a8       ??_C@_1M@DNDLJINH@?$AAz?$AAh?$AA?9?$AAm?$AAo@ 00000001801451a8     libucrt:lcidtoname_downlevel.obj
 0002:0000d1b8       ??_C@_1M@MBFDNDND@?$AAz?$AAh?$AA?9?$AAs?$AAg@ 00000001801451b8     libucrt:lcidtoname_downlevel.obj
 0002:0000d1c8       ??_C@_1M@IMEPLEPE@?$AAz?$AAh?$AA?9?$AAt?$AAw@ 00000001801451c8     libucrt:lcidtoname_downlevel.obj
 0002:0000d1d8       ??_C@_1M@BBGHNHJP@?$AAz?$AAu?$AA?9?$AAz?$AAa@ 00000001801451d8     libucrt:lcidtoname_downlevel.obj
 0002:0000d1f0       ?large_power_data@?1??multiply_by_power_of_ten@__crt_strtox@@YA_NAEAUbig_integer@2@I@Z@4QBIB 00000001801451f0     libucrt:cfout.obj
 0002:0000db00       ?large_power_indices@?1??multiply_by_power_of_ten@__crt_strtox@@YA_NAEAUbig_integer@2@I@Z@4QBUunpack_index@?1??12@YA_N0I@Z@B 0000000180145b00     libucrt:cfout.obj
 0002:0000db98       ?small_powers_of_ten@?1??multiply_by_power_of_ten@__crt_strtox@@YA_NAEAUbig_integer@2@I@Z@4QBIB 0000000180145b98     libucrt:cfout.obj
 0002:0000dbbc       ??_C@_01GBGANLPD@0@        0000000180145bbc     libucrt:cfout.obj
 0002:0000dbc0       ??_C@_05DNEBIAHO@1?$CDINF@ 0000000180145bc0     libucrt:cfout.obj
 0002:0000dbc8       ??_C@_06IMKFLFPG@1?$CDQNAN@ 0000000180145bc8     libucrt:cfout.obj
 0002:0000dbd0       ??_C@_06PGGFOGJG@1?$CDSNAN@ 0000000180145bd0     libucrt:cfout.obj
 0002:0000dbd8       ??_C@_05PHHOCPM@1?$CDIND@  0000000180145bd8     libucrt:cfout.obj
 0002:0000dbe0       __real@3ff0000000000000    0000000180145be0     libucrt:ceil.obj
 0002:0000de40       ??_C@_1BA@BALFACEM@?$AAC?$AAO?$AAN?$AAO?$AAU?$AAT?$AA$@ 0000000180145e40     libucrt:initcon.obj
 0002:0000de50       __log10_256_lead           0000000180145e50     libucrt:log10_256_lead_tail_table.obj
 0002:0000e660       __log10_256_tail           0000000180146660     libucrt:log10_256_lead_tail_table.obj
 0002:0000ee70       __log_F_inv_qword          0000000180146e70     libucrt:log_f_inv_qword_table.obj
 0002:0000f700       ??_R4type_info@@6B@        0000000180147700     LIBCMT:std_type_info_static.obj
 0002:0000f728       ??_R3type_info@@8          0000000180147728     LIBCMT:std_type_info_static.obj
 0002:0000f740       ??_R2type_info@@8          0000000180147740     LIBCMT:std_type_info_static.obj
 0002:0000f750       ??_R1A@?0A@EA@type_info@@8 0000000180147750     LIBCMT:std_type_info_static.obj
 0002:0000f778       ??_R3DNameNode@@8          0000000180147778     libvcruntime:undname.obj
 0002:0000f790       ??_R2DNameNode@@8          0000000180147790     libvcruntime:undname.obj
 0002:0000f7a0       ??_R1A@?0A@EA@DNameNode@@8 00000001801477a0     libvcruntime:undname.obj
 0002:0000f7c8       ??_R4charNode@@6B@         00000001801477c8     libvcruntime:undname.obj
 0002:0000f7f0       ??_R3charNode@@8           00000001801477f0     libvcruntime:undname.obj
 0002:0000f808       ??_R2charNode@@8           0000000180147808     libvcruntime:undname.obj
 0002:0000f820       ??_R1A@?0A@EA@charNode@@8  0000000180147820     libvcruntime:undname.obj
 0002:0000f848       ??_R4pcharNode@@6B@        0000000180147848     libvcruntime:undname.obj
 0002:0000f870       ??_R3pcharNode@@8          0000000180147870     libvcruntime:undname.obj
 0002:0000f888       ??_R2pcharNode@@8          0000000180147888     libvcruntime:undname.obj
 0002:0000f8a0       ??_R1A@?0A@EA@pcharNode@@8 00000001801478a0     libvcruntime:undname.obj
 0002:0000f8c8       ??_R4pDNameNode@@6B@       00000001801478c8     libvcruntime:undname.obj
 0002:0000f8f0       ??_R3pDNameNode@@8         00000001801478f0     libvcruntime:undname.obj
 0002:0000f908       ??_R2pDNameNode@@8         0000000180147908     libvcruntime:undname.obj
 0002:0000f920       ??_R1A@?0A@EA@pDNameNode@@8 0000000180147920     libvcruntime:undname.obj
 0002:0000f948       ??_R4DNameStatusNode@@6B@  0000000180147948     libvcruntime:undname.obj
 0002:0000f970       ??_R3DNameStatusNode@@8    0000000180147970     libvcruntime:undname.obj
 0002:0000f988       ??_R2DNameStatusNode@@8    0000000180147988     libvcruntime:undname.obj
 0002:0000f9a0       ??_R1A@?0A@EA@DNameStatusNode@@8 00000001801479a0     libvcruntime:undname.obj
 0002:0000f9c8       ??_R4pairNode@@6B@         00000001801479c8     libvcruntime:undname.obj
 0002:0000f9f0       ??_R3pairNode@@8           00000001801479f0     libvcruntime:undname.obj
 0002:0000fa08       ??_R2pairNode@@8           0000000180147a08     libvcruntime:undname.obj
 0002:0000fa20       ??_R1A@?0A@EA@pairNode@@8  0000000180147a20     libvcruntime:undname.obj
 0002:0000fa48       ??_R4exception@std@@6B@    0000000180147a48     libvcruntime:frame.obj
 0002:0000fa70       ??_R3exception@std@@8      0000000180147a70     libvcruntime:frame.obj
 0002:0000fa88       ??_R2exception@std@@8      0000000180147a88     libvcruntime:frame.obj
 0002:0000fa98       ??_R1A@?0A@EA@exception@std@@8 0000000180147a98     libvcruntime:frame.obj
 0002:0000fac0       ??_R4bad_exception@std@@6B@ 0000000180147ac0     libvcruntime:frame.obj
 0002:0000fae8       ??_R3bad_exception@std@@8  0000000180147ae8     libvcruntime:frame.obj
 0002:0000fb00       ??_R2bad_exception@std@@8  0000000180147b00     libvcruntime:frame.obj
 0002:0000fb18       ??_R1A@?0A@EA@bad_exception@std@@8 0000000180147b18     libvcruntime:frame.obj
 0002:0000fb3c       __volatile_metadata        0000000180147b3c     <linker-defined>
 0002:00010108       __rtc_iaa                  0000000180148108     LIBCMT:initsect.obj
 0002:00010110       __rtc_izz                  0000000180148110     LIBCMT:initsect.obj
 0002:00010118       __rtc_taa                  0000000180148118     LIBCMT:initsect.obj
 0002:00010120       __rtc_tzz                  0000000180148120     LIBCMT:initsect.obj
 0002:0001c8f8       _TI2?AVbad_exception@std@@ 00000001801548f8     libvcruntime:frame.obj
 0002:0001c918       _CTA2?AVbad_exception@std@@ 0000000180154918     libvcruntime:frame.obj
 0002:0001c930       _CT??_R0?AVbad_exception@std@@@8??0bad_exception@std@@QEAA@AEBV01@@Z24 0000000180154930     libvcruntime:frame.obj
 0002:0001c958       _CT??_R0?AVexception@std@@@8??0exception@std@@QEAA@AEBV01@@Z24 0000000180154958     libvcruntime:frame.obj
 0002:0001c97c       __DELAY_IMPORT_DESCRIPTOR_physxfoundation_64_dll 000000018015497c     PhysXFoundation_64:PhysXFoundation_64.dll
 0002:0001c99c       __NULL_DELAY_IMPORT_DESCRIPTOR 000000018015499c     PhysXFoundation_64:PhysXFoundation_64.dll
 0002:0001ca70       \177PhysXFoundation_64_NULL_THUNK_DATA_DLN 0000000180154a70     PhysXFoundation_64:PhysXFoundation_64.dll
 0002:0001ceb0       \177PhysXFoundation_64_NULL_THUNK_DATA_DLB 0000000180154eb0     PhysXFoundation_64:PhysXFoundation_64.dll
 0002:0002703c       __IMPORT_DESCRIPTOR_KERNEL32 000000018015f03c     kernel32:KERNEL32.dll
 0002:00027050       __NULL_IMPORT_DESCRIPTOR   000000018015f050     kernel32:KERNEL32.dll
 0003:00000000       __pfnDliNotifyHook2        0000000180160000     CmWindowsDelayLoadHook.obj
 0003:00000020       ?gGeomMTDMethodTable@@3PAY06P6A_NAEAVPxVec3@physx@@AEAMAEBVPxGeometry@2@AEBVPxTransform@2@23@ZA 0000000180160020     GuMTD.obj
 0003:000001b0       ?gGeomOverlapMethodTable@@3PAY06P6A_NAEBVPxGeometry@physx@@AEBVPxTransform@2@01PEAUTriggerCache@Gu@2@@ZA 00000001801601b0     GuOverlapTests.obj
 0003:00000338       ?gRaycastMap@@3PAP6AIAEBVPxGeometry@physx@@AEBVPxTransform@2@AEBVPxVec3@2@2MV?$PxFlags@W4Enum@PxHitFlag@physx@@G@2@IPEIAUPxRaycastHit@2@@ZA 0000000180160338     GuRaycastTests.obj
 0003:00000370       ?gGeomSweepFuncs@@3UGeomSweepFuncs@Gu@physx@@A 0000000180160370     GuSweepTests.obj
 0003:00000490       ?g_SweepMethodTable@Gu@physx@@3PAY06P6AMAEBUCCDShape@12@0AEBVPxTransform@2@111MAEAVPxVec3@2@2MAEAIM@ZA 0000000180160490     GuCCDSweepPrimitives.obj
 0003:00000618       ?g_TriangleSweepMethodTable@Gu@physx@@3PAP6AMAEBVGeometryUnion@12@0AEBVPxTransform@2@111MAEAVPxVec3@2@2AEBVFastVertex2ShapeScaling@Cm@2@AEAVTriangleV@12@M@ZA 0000000180160618     GuCCDSweepPrimitives.obj
 0003:00000a14       _fltused                   0000000180160a14     LIBCMT:fltused.obj
 0003:00000a20       __isa_available            0000000180160a20     LIBCMT:cpu_disp.obj
 0003:00000a24       __isa_enabled              0000000180160a24     LIBCMT:cpu_disp.obj
 0003:00000a28       __memcpy_nt_iters          0000000180160a28     LIBCMT:cpu_disp.obj
 0003:00000a30       __memset_nt_iters          0000000180160a30     LIBCMT:cpu_disp.obj
 0003:00000a40       __scrt_native_dllmain_reason 0000000180160a40     LIBCMT:utility.obj
 0003:00000a48       __security_cookie_complement 0000000180160a48     LIBCMT:gs_cookie.obj
 0003:00000a50       __security_cookie          0000000180160a50     LIBCMT:gs_cookie.obj
 0003:00000a80       __abort_behavior           0000000180160a80     libucrt:abort.obj
 0003:00000ab0       __acrt_initial_multibyte_data 0000000180160ab0     libucrt:mbctype.obj
 0003:00000ff0       __acrt_initial_locale_data 0000000180160ff0     libucrt:nlsdata.obj
 0003:00001148       __acrt_initial_locale_pointers 0000000180161148     libucrt:nlsdata.obj
 0003:00001158       __acrt_wide_c_locale_string 0000000180161158     libucrt:nlsdata.obj
 0003:00001160       _iob                       0000000180161160     libucrt:_file.obj
 0003:00001270       __globallocalestatus       0000000180161270     libucrt:glstatus.obj
 0003:00001280       __acrt_lconv_c             0000000180161280     libucrt:localeconv.obj
 0003:00001318       __acrt_lconv_static_decimal 0000000180161318     libucrt:localeconv.obj
 0003:0000131c       __acrt_lconv_static_W_decimal 000000018016131c     libucrt:localeconv.obj
 0003:00001320       _lookuptrailbytes          0000000180161320     libucrt:read.obj
 0003:00001430       ??_R0?AVCollection@Cm@physx@@@8 0000000180161430     CmCollection.obj
 0003:00001460       ??_R0?AVBVHStructure@Gu@physx@@@8 0000000180161460     GuMeshFactory.obj
 0003:00001490       ??_R0?AVHeightField@Gu@physx@@@8 0000000180161490     GuMeshFactory.obj
 0003:000014c0       ??_R0?AVConvexMesh@Gu@physx@@@8 00000001801614c0     GuMeshFactory.obj
 0003:000014f0       ??_R0?AVBV4TriangleMesh@Gu@physx@@@8 00000001801614f0     GuMeshFactory.obj
 0003:00001520       ??_R0?AVRTreeTriangleMesh@Gu@physx@@@8 0000000180161520     GuMeshFactory.obj
 0003:00001558       ??_R0?AVMutexImpl@shdfnd@physx@@@8 0000000180161558     GuMeshFactory.obj
 0003:00001588       ??_R0?AVBV32Tree@Gu@physx@@@8 0000000180161588     GuMeshFactory.obj
 0003:000015b0       ??_R0?AVBV4TriangleData@Gu@physx@@@8 00000001801615b0     GuMeshFactory.obj
 0003:000015e0       ??_R0?AVRTreeTriangleData@Gu@physx@@@8 00000001801615e0     GuMeshFactory.obj
 0003:00001618       ??_R0E@8                   0000000180161618     GuMeshFactory.obj
 0003:00001630       ??_R0G@8                   0000000180161630     GuMeshFactory.obj
 0003:00001648       ??_R0I@8                   0000000180161648     GuMeshFactory.obj
 0003:00001660       ??_R0?AVAABBTreeBuildNode@Gu@physx@@@8 0000000180161660     GuAABBTreeBuild.obj
 0003:00001698       ??_R0?AVBigConvexData@physx@@@8 0000000180161698     GuConvexMesh.obj
 0003:000016c8       ??_R0?AVIndTri16@Gu@physx@@@8 00000001801616c8     GuBV4.obj
 0003:000016f0       ??_R0?AVIndTri32@Gu@physx@@@8 00000001801616f0     GuBV4.obj
 0003:00001720       ??_R0?AU?$BVDataPackedT@VQuantizedAABB@Gu@physx@@@Gu@physx@@@8 0000000180161720     GuBV4Build.obj
 0003:00001770       ??_R0?AUSlab@BV4BuildParams@@@8 0000000180161770     GuBV4Build.obj
 0003:000017a0       ??_R0?AVAABBTreeNode@Gu@physx@@@8 00000001801617a0     GuBV4Build.obj
 0003:000017d0       ??_R0?AUBV32Data@Gu@physx@@@8 00000001801617d0     GuBV32Build.obj
 0003:000017f8       ??_R0?AUBV32Node@@@8       00000001801617f8     GuBV32Build.obj
 0003:00001818       ??_R0?AVbad_exception@std@@@8 0000000180161818     libvcruntime:frame.obj
 0003:00001840       ??_R0?AVexception@std@@@8  0000000180161840     libvcruntime:frame.obj
 0003:00001868       ??_R0?AVtype_info@@@8      0000000180161868     LIBCMT:std_type_info_static.obj
 0003:00001888       ??_R0?AVDNameNode@@@8      0000000180161888     libvcruntime:undname.obj
 0003:000018a8       ??_R0?AVcharNode@@@8       00000001801618a8     libvcruntime:undname.obj
 0003:000018c8       ??_R0?AVpcharNode@@@8      00000001801618c8     libvcruntime:undname.obj
 0003:000018e8       ??_R0?AVpDNameNode@@@8     00000001801618e8     libvcruntime:undname.obj
 0003:00001910       ??_R0?AVDNameStatusNode@@@8 0000000180161910     libvcruntime:undname.obj
 0003:00001938       ??_R0?AVpairNode@@@8       0000000180161938     libvcruntime:undname.obj
 0003:00001958       __imp_PxGetFoundation      0000000180161958     PhysXFoundation_64:PhysXFoundation_64.dll
 0003:00001960       __imp_?atomicIncrement@shdfnd@physx@@YAHPECH@Z 0000000180161960     PhysXFoundation_64:PhysXFoundation_64.dll
 0003:00001968       __imp_?getAllocator@shdfnd@physx@@YAAEAVPxAllocatorCallback@2@XZ 0000000180161968     PhysXFoundation_64:PhysXFoundation_64.dll
 0003:00001970       __imp_?getInstance@Foundation@shdfnd@physx@@SAAEAV123@XZ 0000000180161970     PhysXFoundation_64:PhysXFoundation_64.dll
 0003:00001978       __imp_?error@Foundation@shdfnd@physx@@QEAAXW4Enum@PxErrorCode@3@PEBDH1ZZ 0000000180161978     PhysXFoundation_64:PhysXFoundation_64.dll
 0003:00001980       __imp_??0NamedAllocator@shdfnd@physx@@QEAA@PEBD@Z 0000000180161980     PhysXFoundation_64:PhysXFoundation_64.dll
 0003:00001988       __imp_??1NamedAllocator@shdfnd@physx@@QEAA@XZ 0000000180161988     PhysXFoundation_64:PhysXFoundation_64.dll
 0003:00001990       __imp_?allocate@NamedAllocator@shdfnd@physx@@QEAAPEAX_KPEBDH@Z 0000000180161990     PhysXFoundation_64:PhysXFoundation_64.dll
 0003:00001998       __imp_?deallocate@NamedAllocator@shdfnd@physx@@QEAAXPEAX@Z 0000000180161998     PhysXFoundation_64:PhysXFoundation_64.dll
 0003:000019a0       __imp_?vsnprintf@shdfnd@physx@@YAHPEAD_KPEBD0@Z 00000001801619a0     PhysXFoundation_64:PhysXFoundation_64.dll
 0003:000019a8       __imp_??0NamedAllocator@shdfnd@physx@@QEAA@AEBV012@@Z 00000001801619a8     PhysXFoundation_64:PhysXFoundation_64.dll
 0003:000019b0       __imp_??0MutexImpl@shdfnd@physx@@QEAA@XZ 00000001801619b0     PhysXFoundation_64:PhysXFoundation_64.dll
 0003:000019b8       __imp_??1MutexImpl@shdfnd@physx@@QEAA@XZ 00000001801619b8     PhysXFoundation_64:PhysXFoundation_64.dll
 0003:000019c0       __imp_?lock@MutexImpl@shdfnd@physx@@QEAAXXZ 00000001801619c0     PhysXFoundation_64:PhysXFoundation_64.dll
 0003:000019c8       __imp_?unlock@MutexImpl@shdfnd@physx@@QEAAXXZ 00000001801619c8     PhysXFoundation_64:PhysXFoundation_64.dll
 0003:000019d0       __imp_?getSize@MutexImpl@shdfnd@physx@@SAIXZ 00000001801619d0     PhysXFoundation_64:PhysXFoundation_64.dll
 0003:000019d8       __imp_?atomicDecrement@shdfnd@physx@@YAHPECH@Z 00000001801619d8     PhysXFoundation_64:PhysXFoundation_64.dll
 0003:000019e0       __imp_?PxTransformFromSegment@physx@@YA?AVPxTransform@1@AEBVPxVec3@1@0PEAM@Z 00000001801619e0     PhysXFoundation_64:PhysXFoundation_64.dll
 0003:000019e8       __imp_?optimizeBoundingBox@shdfnd@physx@@YA?AVPxVec3@2@AEAVPxMat33@2@@Z 00000001801619e8     PhysXFoundation_64:PhysXFoundation_64.dll
 0003:000019f0       __imp_?allocate@TempAllocator@shdfnd@physx@@QEAAPEAX_KPEBDH@Z 00000001801619f0     PhysXFoundation_64:PhysXFoundation_64.dll
 0003:000019f8       __imp_?deallocate@TempAllocator@shdfnd@physx@@QEAAXPEAX@Z 00000001801619f8     PhysXFoundation_64:PhysXFoundation_64.dll
 0003:00001a00       __imp_PxGetProfilerCallback 0000000180161a00     PhysXFoundation_64:PhysXFoundation_64.dll
 0003:00001a08       \177PhysXFoundation_64_NULL_THUNK_DATA_DLA 0000000180161a08     PhysXFoundation_64:PhysXFoundation_64.dll
 0003:000027a0       ?boxVertexTable@physx@@3QBT__m128@@B 00000001801627a0     GuConvexSupportTable.obj
 0003:000042f0       __hmod__PhysXFoundation_64_dll 00000001801642f0     PhysXFoundation_64:PhysXFoundation_64.dll
 0003:000042f8       ?DloadKernel32@@3PEAUHINSTANCE__@@EA 00000001801642f8     Delayimp:delayhlp.obj
 0003:00004300       ?DloadAcquireSRWLockExclusive@@3P6AXPEA_K@ZEA 0000000180164300     Delayimp:delayhlp.obj
 0003:00004308       ?DloadReleaseSRWLockExclusive@@3P6AXPEA_K@ZEA 0000000180164308     Delayimp:delayhlp.obj
 0003:00004310       ?DloadSrwLock@@3_KA        0000000180164310     Delayimp:delayhlp.obj
 0003:00004318       ?DloadSectionLockCount@@3KA 0000000180164318     Delayimp:delayhlp.obj
 0003:0000431c       ?DloadSectionOldProtection@@3KA 000000018016431c     Delayimp:delayhlp.obj
 0003:00004320       ?DloadSectionCommitPermanent@@3KA 0000000180164320     Delayimp:delayhlp.obj
 0003:00004330       ?__type_info_root_node@@3U__type_info_node@@A 0000000180164330     LIBCMT:tncleanup.obj
 0003:00004348       __castguard_check_failure_os_handled_fptr 0000000180164348     LIBCMT:guard_support.obj
 0003:00004350       __favor                    0000000180164350     LIBCMT:cpu_disp.obj
 0003:00004358       ?_OptionsStorage@?1??__local_stdio_printf_options@@9@4_KA 0000000180164358     LIBCMT:default_local_stdio_options.obj
 0003:00004360       ?_OptionsStorage@?1??__local_stdio_scanf_options@@9@4_KA 0000000180164360     LIBCMT:default_local_stdio_options.obj
 0003:00004368       __scrt_current_native_startup_state 0000000180164368     LIBCMT:utility.obj
 0003:00004370       __scrt_native_startup_lock 0000000180164370     LIBCMT:utility.obj
 0003:000043b0       __scrt_debugger_hook_flag  00000001801643b0     LIBCMT:utility_desktop.obj
 0003:000043b8       ?__WinRTOutOfMemoryExceptionCallback@@3P6APEAXXZEA 00000001801643b8     libvcruntime:ehhelpers.obj
 0003:000043c0       __pPurecall                00000001801643c0     libvcruntime:purevirt_data.obj
 0003:000043c8       ?pArgList@UnDecorator@@0PEAVReplicator@@EA 00000001801643c8     libvcruntime:undname.obj
 0003:000043d0       ?pZNameList@UnDecorator@@0PEAVReplicator@@EA 00000001801643d0     libvcruntime:undname.obj
 0003:000043d8       ?pTemplateArgList@UnDecorator@@0PEAVReplicator@@EA 00000001801643d8     libvcruntime:undname.obj
 0003:000043e0       ?gName@UnDecorator@@0PEBDEB 00000001801643e0     libvcruntime:undname.obj
 0003:000043e8       ?name@UnDecorator@@0PEBDEB 00000001801643e8     libvcruntime:undname.obj
 0003:000043f0       ?disableFlags@UnDecorator@@0KA 00000001801643f0     libvcruntime:undname.obj
 0003:000043f4       ?fExplicitTemplateParams@UnDecorator@@0_NA 00000001801643f4     libvcruntime:undname.obj
 0003:000043f5       ?fGetTemplateArgumentList@UnDecorator@@0_NA 00000001801643f5     libvcruntime:undname.obj
 0003:000043f8       ?m_pGetParameter@UnDecorator@@0P6APEADJ@ZEA 00000001801643f8     libvcruntime:undname.obj
 0003:00004400       ?m_CHPENameOffset@UnDecorator@@0KA 0000000180164400     libvcruntime:undname.obj
 0003:00004404       ?m_recursionLevel@UnDecorator@@0KA 0000000180164404     libvcruntime:undname.obj
 0003:00004530       ?c_exit_complete@?1???R<lambda_6e4b09c48022b2350581041d5f6b0c4c>@@QEBA@XZ@4_NA 0000000180164530     libucrt:exit.obj
 0003:00004648       _environ_table             0000000180164648     libucrt:environment_initialization.obj
 0003:00004650       _wenviron_table            0000000180164650     libucrt:environment_initialization.obj
 0003:00004658       __dcrt_initial_wide_environment 0000000180164658     libucrt:environment_initialization.obj
 0003:00004660       __dcrt_initial_narrow_environment 0000000180164660     libucrt:environment_initialization.obj
 0003:00004668       __acrt_atexit_table        0000000180164668     libucrt:onexit.obj
 0003:00004680       __acrt_at_quick_exit_table 0000000180164680     libucrt:onexit.obj
 0003:00004698       __fma3_is_available        0000000180164698     libucrt:fma3_available.obj
 0003:0000469c       __use_fma3_lib             000000018016469c     libucrt:fma3_available.obj
 0003:000048e0       _mbctype                   00000001801648e0     libucrt:mbctype.obj
 0003:000048e8       _mbcasemap                 00000001801648e8     libucrt:mbctype.obj
 0003:000048f0       __acrt_current_multibyte_data 00000001801648f0     libucrt:mbctype.obj
 0003:00004900       _pgmptr                    0000000180164900     libucrt:argv_data.obj
 0003:00004908       __argc                     0000000180164908     libucrt:argv_data.obj
 0003:00004910       __argv                     0000000180164910     libucrt:argv_data.obj
 0003:00004918       __wargv                    0000000180164918     libucrt:argv_data.obj
 0003:00004920       _acmdln                    0000000180164920     libucrt:argv_data.obj
 0003:00004928       _wcmdln                    0000000180164928     libucrt:argv_data.obj
 0003:00004ae0       __acrt_heap                0000000180164ae0     libucrt:heap_handle.obj
 0003:00004af0       __pioinfo                  0000000180164af0     libucrt:ioinit.obj
 0003:00004ef0       _nhandle                   0000000180164ef0     libucrt:ioinit.obj
 0003:00004f28       __acrt_current_locale_data 0000000180164f28     libucrt:nlsdata.obj
 0003:00004f30       _nstream                   0000000180164f30     libucrt:_file.obj
 0003:00004f38       __piob                     0000000180164f38     libucrt:_file.obj
 0003:00004f40       __acrt_stdout_buffer       0000000180164f40     libucrt:_sftbuf.obj
 0003:00004f48       __acrt_stderr_buffer       0000000180164f48     libucrt:_sftbuf.obj
 0003:00004f60       __acrt_locale_changed_data 0000000180164f60     libucrt:wsetlocale.obj
 0003:00004f68       __acrt_lconv_static_null   0000000180164f68     libucrt:localeconv.obj
 0003:00004f6c       __acrt_lconv_static_W_null 0000000180164f6c     libucrt:localeconv.obj
 0003:000054f0       __scrt_ucrt_dll_is_in_use  00000001801654f0     <common>
 0003:000054f8       __dyn_tls_init_callback    00000001801654f8     <common>
 0005:00000100       __common_ssin_reduction_data 000000018016d100     LIBCMT:svml_s_sin_data.obj
 0005:00000d00       __common_ssin_data         000000018016dd00     LIBCMT:svml_s_sin_data.obj

 entry point at        0001:00119af8

 Static symbols

 0000:ffe8d000       .debug$S                   0000000180000000     PhysXCommon_64.exp
 0000:ffe8d000       .debug$S                   0000000180000000     kernel32:KERNEL32.dll
 0000:ffe8d000       .debug$S                   0000000180000000     kernel32:KERNEL32.dll
 0000:ffe8d000       .debug$S                   0000000180000000     kernel32:KERNEL32.dll
 0000:ffe8d000       .debug$S                   0000000180000000     kernel32:KERNEL32.dll
 0000:ffe8d000       .debug$S                   0000000180000000     kernel32:KERNEL32.dll
 0000:ffe8d000       .debug$S                   0000000180000000     kernel32:KERNEL32.dll
 0000:ffe8d000       .debug$S                   0000000180000000     kernel32:KERNEL32.dll
 0000:ffe8d000       .debug$S                   0000000180000000     kernel32:KERNEL32.dll
 0000:ffe8d000       .debug$S                   0000000180000000     kernel32:KERNEL32.dll
 0000:ffe8d000       .debug$S                   0000000180000000     kernel32:KERNEL32.dll
 0000:ffe8d000       .debug$S                   0000000180000000     kernel32:KERNEL32.dll
 0000:ffe8d000       .debug$S                   0000000180000000     kernel32:KERNEL32.dll
 0000:ffe8d000       .debug$S                   0000000180000000     kernel32:KERNEL32.dll
 0000:ffe8d000       .debug$S                   0000000180000000     kernel32:KERNEL32.dll
 0000:ffe8d000       .debug$S                   0000000180000000     kernel32:KERNEL32.dll
 0000:ffe8d000       .debug$S                   0000000180000000     kernel32:KERNEL32.dll
 0000:ffe8d000       .debug$S                   0000000180000000     kernel32:KERNEL32.dll
 0000:ffe8d000       .debug$S                   0000000180000000     kernel32:KERNEL32.dll
 0000:ffe8d000       .debug$S                   0000000180000000     kernel32:KERNEL32.dll
 0000:ffe8d000       .debug$S                   0000000180000000     kernel32:KERNEL32.dll
 0000:ffe8d000       .debug$S                   0000000180000000     kernel32:KERNEL32.dll
 0000:ffe8d000       .debug$S                   0000000180000000     kernel32:KERNEL32.dll
 0000:ffe8d000       .debug$S                   0000000180000000     kernel32:KERNEL32.dll
 0000:ffe8d000       .debug$S                   0000000180000000     kernel32:KERNEL32.dll
 0000:ffe8d000       .debug$S                   0000000180000000     kernel32:KERNEL32.dll
 0000:ffe8d000       .debug$S                   0000000180000000     kernel32:KERNEL32.dll
 0000:ffe8d000       .debug$S                   0000000180000000     kernel32:KERNEL32.dll
 0000:ffe8d000       .debug$S                   0000000180000000     kernel32:KERNEL32.dll
 0000:ffe8d000       .debug$S                   0000000180000000     kernel32:KERNEL32.dll
 0000:ffe8d000       .debug$S                   0000000180000000     kernel32:KERNEL32.dll
 0000:ffe8d000       .debug$S                   0000000180000000     kernel32:KERNEL32.dll
 0000:ffe8d000       .debug$S                   0000000180000000     kernel32:KERNEL32.dll
 0000:ffe8d000       .debug$S                   0000000180000000     kernel32:KERNEL32.dll
 0000:ffe8d000       .debug$S                   0000000180000000     kernel32:KERNEL32.dll
 0000:ffe8d000       .debug$S                   0000000180000000     kernel32:KERNEL32.dll
 0000:ffe8d000       .debug$S                   0000000180000000     kernel32:KERNEL32.dll
 0000:ffe8d000       .debug$S                   0000000180000000     kernel32:KERNEL32.dll
 0000:ffe8d000       .debug$S                   0000000180000000     kernel32:KERNEL32.dll
 0000:ffe8d000       .debug$S                   0000000180000000     kernel32:KERNEL32.dll
 0000:ffe8d000       .debug$S                   0000000180000000     kernel32:KERNEL32.dll
 0000:ffe8d000       .debug$S                   0000000180000000     kernel32:KERNEL32.dll
 0000:ffe8d000       .debug$S                   0000000180000000     kernel32:KERNEL32.dll
 0000:ffe8d000       .debug$S                   0000000180000000     kernel32:KERNEL32.dll
 0000:ffe8d000       .debug$S                   0000000180000000     kernel32:KERNEL32.dll
 0000:ffe8d000       .debug$S                   0000000180000000     kernel32:KERNEL32.dll
 0000:ffe8d000       .debug$S                   0000000180000000     kernel32:KERNEL32.dll
 0000:ffe8d000       .debug$S                   0000000180000000     kernel32:KERNEL32.dll
 0000:ffe8d000       .debug$S                   0000000180000000     kernel32:KERNEL32.dll
 0000:ffe8d000       .debug$S                   0000000180000000     kernel32:KERNEL32.dll
 0000:ffe8d000       .debug$S                   0000000180000000     kernel32:KERNEL32.dll
 0000:ffe8d000       .debug$S                   0000000180000000     kernel32:KERNEL32.dll
 0000:ffe8d000       .debug$S                   0000000180000000     kernel32:KERNEL32.dll
 0000:ffe8d000       .debug$S                   0000000180000000     kernel32:KERNEL32.dll
 0000:ffe8d000       .debug$S                   0000000180000000     kernel32:KERNEL32.dll
 0000:ffe8d000       .debug$S                   0000000180000000     kernel32:KERNEL32.dll
 0000:ffe8d000       .debug$S                   0000000180000000     kernel32:KERNEL32.dll
 0000:ffe8d000       .debug$S                   0000000180000000     kernel32:KERNEL32.dll
 0000:ffe8d000       .debug$S                   0000000180000000     kernel32:KERNEL32.dll
 0000:ffe8d000       .debug$S                   0000000180000000     kernel32:KERNEL32.dll
 0000:ffe8d000       .debug$S                   0000000180000000     kernel32:KERNEL32.dll
 0000:ffe8d000       .debug$S                   0000000180000000     kernel32:KERNEL32.dll
 0000:ffe8d000       .debug$S                   0000000180000000     kernel32:KERNEL32.dll
 0000:ffe8d000       .debug$S                   0000000180000000     kernel32:KERNEL32.dll
 0000:ffe8d000       .debug$S                   0000000180000000     kernel32:KERNEL32.dll
 0000:ffe8d000       .debug$S                   0000000180000000     kernel32:KERNEL32.dll
 0000:ffe8d000       .debug$S                   0000000180000000     kernel32:KERNEL32.dll
 0000:ffe8d000       .debug$S                   0000000180000000     kernel32:KERNEL32.dll
 0000:ffe8d000       .debug$S                   0000000180000000     kernel32:KERNEL32.dll
 0000:ffe8d000       .debug$S                   0000000180000000     kernel32:KERNEL32.dll
 0000:ffe8d000       .debug$S                   0000000180000000     kernel32:KERNEL32.dll
 0000:ffe8d000       .debug$S                   0000000180000000     kernel32:KERNEL32.dll
 0000:ffe8d000       .debug$S                   0000000180000000     kernel32:KERNEL32.dll
 0000:ffe8d000       .debug$S                   0000000180000000     kernel32:KERNEL32.dll
 0000:ffe8d000       .debug$S                   0000000180000000     kernel32:KERNEL32.dll
 0000:ffe8d000       .debug$S                   0000000180000000     kernel32:KERNEL32.dll
 0000:ffe8d000       .debug$S                   0000000180000000     kernel32:KERNEL32.dll
 0000:ffe8d000       .debug$S                   0000000180000000     kernel32:KERNEL32.dll
 0000:ffe8d000       .debug$S                   0000000180000000     kernel32:KERNEL32.dll
 0000:ffe8d000       .debug$S                   0000000180000000     kernel32:KERNEL32.dll
 0000:ffe8d000       .debug$S                   0000000180000000     kernel32:KERNEL32.dll
 0000:ffe8d000       .debug$S                   0000000180000000     kernel32:KERNEL32.dll
 0000:ffe8d000       .debug$S                   0000000180000000     kernel32:KERNEL32.dll
 0000:ffe8d000       .debug$S                   0000000180000000     kernel32:KERNEL32.dll
 0000:ffe8d000       .debug$S                   0000000180000000     kernel32:KERNEL32.dll
 0000:ffe8d000       .debug$S                   0000000180000000     kernel32:KERNEL32.dll
 0000:ffe8d000       .debug$S                   0000000180000000     kernel32:KERNEL32.dll
 0000:ffe8d000       .debug$S                   0000000180000000     kernel32:KERNEL32.dll
 0000:ffe8d000       .debug$S                   0000000180000000     kernel32:KERNEL32.dll
 0000:ffe8d000       .debug$S                   0000000180000000     kernel32:KERNEL32.dll
 0000:ffe8d000       .debug$S                   0000000180000000     PhysXFoundation_64:PhysXFoundation_64.dll
 0000:ffe8d000       .debug$S                   0000000180000000     PhysXFoundation_64:PhysXFoundation_64.dll
 0000:ffe8d000       .debug$S                   0000000180000000     PhysXFoundation_64:PhysXFoundation_64.dll
 0000:ffe8d000       .debug$S                   0000000180000000     PhysXFoundation_64:PhysXFoundation_64.dll
 0000:ffe8d000       .debug$S                   0000000180000000     PhysXFoundation_64:PhysXFoundation_64.dll
 0000:ffe8d000       .debug$S                   0000000180000000     PhysXFoundation_64:PhysXFoundation_64.dll
 0000:ffe8d000       .debug$S                   0000000180000000     PhysXFoundation_64:PhysXFoundation_64.dll
 0000:ffe8d000       .debug$S                   0000000180000000     PhysXFoundation_64:PhysXFoundation_64.dll
 0000:ffe8d000       .debug$S                   0000000180000000     PhysXFoundation_64:PhysXFoundation_64.dll
 0000:ffe8d000       .debug$S                   0000000180000000     PhysXFoundation_64:PhysXFoundation_64.dll
 0000:ffe8d000       .debug$S                   0000000180000000     PhysXFoundation_64:PhysXFoundation_64.dll
 0000:ffe8d000       .debug$S                   0000000180000000     PhysXFoundation_64:PhysXFoundation_64.dll
 0000:ffe8d000       .debug$S                   0000000180000000     PhysXFoundation_64:PhysXFoundation_64.dll
 0000:ffe8d000       .debug$S                   0000000180000000     PhysXFoundation_64:PhysXFoundation_64.dll
 0000:ffe8d000       .debug$S                   0000000180000000     PhysXFoundation_64:PhysXFoundation_64.dll
 0000:ffe8d000       .debug$S                   0000000180000000     PhysXFoundation_64:PhysXFoundation_64.dll
 0000:ffe8d000       .debug$S                   0000000180000000     PhysXFoundation_64:PhysXFoundation_64.dll
 0000:ffe8d000       .debug$S                   0000000180000000     PhysXFoundation_64:PhysXFoundation_64.dll
 0000:ffe8d000       .debug$S                   0000000180000000     PhysXFoundation_64:PhysXFoundation_64.dll
 0000:ffe8d000       .debug$S                   0000000180000000     PhysXFoundation_64:PhysXFoundation_64.dll
 0000:ffe8d000       .debug$S                   0000000180000000     PhysXFoundation_64:PhysXFoundation_64.dll
 0000:ffe8d000       .debug$S                   0000000180000000     PhysXFoundation_64:PhysXFoundation_64.dll
 0001:00000000       ??__EmaxFError@_VecMathTests@aos@shdfnd@physx@@YAXXZ 0000000180001000 f   GuBounds.obj
 0001:00000010       ??__EmaxV3Error@_VecMathTests@aos@shdfnd@physx@@YAXXZ 0000000180001010 f   GuBounds.obj
 0001:00000020       ??__EmaxV4Error@_VecMathTests@aos@shdfnd@physx@@YAXXZ 0000000180001020 f   GuBounds.obj
 0001:00000030       ??__EminFError@_VecMathTests@aos@shdfnd@physx@@YAXXZ 0000000180001030 f   GuBounds.obj
 0001:00000040       ??__EminV3Error@_VecMathTests@aos@shdfnd@physx@@YAXXZ 0000000180001040 f   GuBounds.obj
 0001:00000050       ??__EminV4Error@_VecMathTests@aos@shdfnd@physx@@YAXXZ 0000000180001050 f   GuBounds.obj
 0001:00000060       ??__EmaxFError@_VecMathTests@aos@shdfnd@physx@@YAXXZ 0000000180001060 f   GuBox.obj
 0001:00000070       ??__EmaxV3Error@_VecMathTests@aos@shdfnd@physx@@YAXXZ 0000000180001070 f   GuBox.obj
 0001:00000080       ??__EmaxV4Error@_VecMathTests@aos@shdfnd@physx@@YAXXZ 0000000180001080 f   GuBox.obj
 0001:00000090       ??__EminFError@_VecMathTests@aos@shdfnd@physx@@YAXXZ 0000000180001090 f   GuBox.obj
 0001:000000a0       ??__EminV3Error@_VecMathTests@aos@shdfnd@physx@@YAXXZ 00000001800010a0 f   GuBox.obj
 0001:000000b0       ??__EminV4Error@_VecMathTests@aos@shdfnd@physx@@YAXXZ 00000001800010b0 f   GuBox.obj
 0001:000000c0       ??__EmaxFError@_VecMathTests@aos@shdfnd@physx@@YAXXZ 00000001800010c0 f   GuCCTSweepTests.obj
 0001:000000d0       ??__EmaxV3Error@_VecMathTests@aos@shdfnd@physx@@YAXXZ 00000001800010d0 f   GuCCTSweepTests.obj
 0001:000000e0       ??__EmaxV4Error@_VecMathTests@aos@shdfnd@physx@@YAXXZ 00000001800010e0 f   GuCCTSweepTests.obj
 0001:000000f0       ??__EminFError@_VecMathTests@aos@shdfnd@physx@@YAXXZ 00000001800010f0 f   GuCCTSweepTests.obj
 0001:00000100       ??__EminV3Error@_VecMathTests@aos@shdfnd@physx@@YAXXZ 0000000180001100 f   GuCCTSweepTests.obj
 0001:00000110       ??__EminV4Error@_VecMathTests@aos@shdfnd@physx@@YAXXZ 0000000180001110 f   GuCCTSweepTests.obj
 0001:00000120       ??__EmaxFError@_VecMathTests@aos@shdfnd@physx@@YAXXZ 0000000180001120 f   GuGeometryQuery.obj
 0001:00000130       ??__EmaxV3Error@_VecMathTests@aos@shdfnd@physx@@YAXXZ 0000000180001130 f   GuGeometryQuery.obj
 0001:00000140       ??__EmaxV4Error@_VecMathTests@aos@shdfnd@physx@@YAXXZ 0000000180001140 f   GuGeometryQuery.obj
 0001:00000150       ??__EminFError@_VecMathTests@aos@shdfnd@physx@@YAXXZ 0000000180001150 f   GuGeometryQuery.obj
 0001:00000160       ??__EminV3Error@_VecMathTests@aos@shdfnd@physx@@YAXXZ 0000000180001160 f   GuGeometryQuery.obj
 0001:00000170       ??__EminV4Error@_VecMathTests@aos@shdfnd@physx@@YAXXZ 0000000180001170 f   GuGeometryQuery.obj
 0001:00000180       ??__EmaxFError@_VecMathTests@aos@shdfnd@physx@@YAXXZ 0000000180001180 f   GuGeometryUnion.obj
 0001:00000190       ??__EmaxV3Error@_VecMathTests@aos@shdfnd@physx@@YAXXZ 0000000180001190 f   GuGeometryUnion.obj
 0001:000001a0       ??__EmaxV4Error@_VecMathTests@aos@shdfnd@physx@@YAXXZ 00000001800011a0 f   GuGeometryUnion.obj
 0001:000001b0       ??__EminFError@_VecMathTests@aos@shdfnd@physx@@YAXXZ 00000001800011b0 f   GuGeometryUnion.obj
 0001:000001c0       ??__EminV3Error@_VecMathTests@aos@shdfnd@physx@@YAXXZ 00000001800011c0 f   GuGeometryUnion.obj
 0001:000001d0       ??__EminV4Error@_VecMathTests@aos@shdfnd@physx@@YAXXZ 00000001800011d0 f   GuGeometryUnion.obj
 0001:000001e0       ??__EmaxFError@_VecMathTests@aos@shdfnd@physx@@YAXXZ 00000001800011e0 f   GuInternal.obj
 0001:000001f0       ??__EmaxV3Error@_VecMathTests@aos@shdfnd@physx@@YAXXZ 00000001800011f0 f   GuInternal.obj
 0001:00000200       ??__EmaxV4Error@_VecMathTests@aos@shdfnd@physx@@YAXXZ 0000000180001200 f   GuInternal.obj
 0001:00000210       ??__EminFError@_VecMathTests@aos@shdfnd@physx@@YAXXZ 0000000180001210 f   GuInternal.obj
 0001:00000220       ??__EminV3Error@_VecMathTests@aos@shdfnd@physx@@YAXXZ 0000000180001220 f   GuInternal.obj
 0001:00000230       ??__EminV4Error@_VecMathTests@aos@shdfnd@physx@@YAXXZ 0000000180001230 f   GuInternal.obj
 0001:00000240       ??__EmaxFError@_VecMathTests@aos@shdfnd@physx@@YAXXZ 0000000180001240 f   GuMeshFactory.obj
 0001:00000250       ??__EmaxV3Error@_VecMathTests@aos@shdfnd@physx@@YAXXZ 0000000180001250 f   GuMeshFactory.obj
 0001:00000260       ??__EmaxV4Error@_VecMathTests@aos@shdfnd@physx@@YAXXZ 0000000180001260 f   GuMeshFactory.obj
 0001:00000270       ??__EminFError@_VecMathTests@aos@shdfnd@physx@@YAXXZ 0000000180001270 f   GuMeshFactory.obj
 0001:00000280       ??__EminV3Error@_VecMathTests@aos@shdfnd@physx@@YAXXZ 0000000180001280 f   GuMeshFactory.obj
 0001:00000290       ??__EminV4Error@_VecMathTests@aos@shdfnd@physx@@YAXXZ 0000000180001290 f   GuMeshFactory.obj
 0001:000002a0       ??__EmaxFError@_VecMathTests@aos@shdfnd@physx@@YAXXZ 00000001800012a0 f   GuMetaData.obj
 0001:000002b0       ??__EmaxV3Error@_VecMathTests@aos@shdfnd@physx@@YAXXZ 00000001800012b0 f   GuMetaData.obj
 0001:000002c0       ??__EmaxV4Error@_VecMathTests@aos@shdfnd@physx@@YAXXZ 00000001800012c0 f   GuMetaData.obj
 0001:000002d0       ??__EminFError@_VecMathTests@aos@shdfnd@physx@@YAXXZ 00000001800012d0 f   GuMetaData.obj
 0001:000002e0       ??__EminV3Error@_VecMathTests@aos@shdfnd@physx@@YAXXZ 00000001800012e0 f   GuMetaData.obj
 0001:000002f0       ??__EminV4Error@_VecMathTests@aos@shdfnd@physx@@YAXXZ 00000001800012f0 f   GuMetaData.obj
 0001:00000300       ??__EmaxFError@_VecMathTests@aos@shdfnd@physx@@YAXXZ 0000000180001300 f   GuMTD.obj
 0001:00000310       ??__EmaxV3Error@_VecMathTests@aos@shdfnd@physx@@YAXXZ 0000000180001310 f   GuMTD.obj
 0001:00000320       ??__EmaxV4Error@_VecMathTests@aos@shdfnd@physx@@YAXXZ 0000000180001320 f   GuMTD.obj
 0001:00000330       ??__EminFError@_VecMathTests@aos@shdfnd@physx@@YAXXZ 0000000180001330 f   GuMTD.obj
 0001:00000340       ??__EminV3Error@_VecMathTests@aos@shdfnd@physx@@YAXXZ 0000000180001340 f   GuMTD.obj
 0001:00000350       ??__EminV4Error@_VecMathTests@aos@shdfnd@physx@@YAXXZ 0000000180001350 f   GuMTD.obj
 0001:00000360       ??__EmaxFError@_VecMathTests@aos@shdfnd@physx@@YAXXZ 0000000180001360 f   GuOverlapTests.obj
 0001:00000370       ??__EmaxV3Error@_VecMathTests@aos@shdfnd@physx@@YAXXZ 0000000180001370 f   GuOverlapTests.obj
 0001:00000380       ??__EmaxV4Error@_VecMathTests@aos@shdfnd@physx@@YAXXZ 0000000180001380 f   GuOverlapTests.obj
 0001:00000390       ??__EminFError@_VecMathTests@aos@shdfnd@physx@@YAXXZ 0000000180001390 f   GuOverlapTests.obj
 0001:000003a0       ??__EminV3Error@_VecMathTests@aos@shdfnd@physx@@YAXXZ 00000001800013a0 f   GuOverlapTests.obj
 0001:000003b0       ??__EminV4Error@_VecMathTests@aos@shdfnd@physx@@YAXXZ 00000001800013b0 f   GuOverlapTests.obj
 0001:000003c0       ??__EmaxFError@_VecMathTests@aos@shdfnd@physx@@YAXXZ 00000001800013c0 f   GuRaycastTests.obj
 0001:000003d0       ??__EmaxV3Error@_VecMathTests@aos@shdfnd@physx@@YAXXZ 00000001800013d0 f   GuRaycastTests.obj
 0001:000003e0       ??__EmaxV4Error@_VecMathTests@aos@shdfnd@physx@@YAXXZ 00000001800013e0 f   GuRaycastTests.obj
 0001:000003f0       ??__EminFError@_VecMathTests@aos@shdfnd@physx@@YAXXZ 00000001800013f0 f   GuRaycastTests.obj
 0001:00000400       ??__EminV3Error@_VecMathTests@aos@shdfnd@physx@@YAXXZ 0000000180001400 f   GuRaycastTests.obj
 0001:00000410       ??__EminV4Error@_VecMathTests@aos@shdfnd@physx@@YAXXZ 0000000180001410 f   GuRaycastTests.obj
 0001:00000420       ??__EmaxFError@_VecMathTests@aos@shdfnd@physx@@YAXXZ 0000000180001420 f   GuSweepMTD.obj
 0001:00000430       ??__EmaxV3Error@_VecMathTests@aos@shdfnd@physx@@YAXXZ 0000000180001430 f   GuSweepMTD.obj
 0001:00000440       ??__EmaxV4Error@_VecMathTests@aos@shdfnd@physx@@YAXXZ 0000000180001440 f   GuSweepMTD.obj
 0001:00000450       ??__EminFError@_VecMathTests@aos@shdfnd@physx@@YAXXZ 0000000180001450 f   GuSweepMTD.obj
 0001:00000460       ??__EminV3Error@_VecMathTests@aos@shdfnd@physx@@YAXXZ 0000000180001460 f   GuSweepMTD.obj
 0001:00000470       ??__EminV4Error@_VecMathTests@aos@shdfnd@physx@@YAXXZ 0000000180001470 f   GuSweepMTD.obj
 0001:00000480       ??__EmaxFError@_VecMathTests@aos@shdfnd@physx@@YAXXZ 0000000180001480 f   GuSweepSharedTests.obj
 0001:00000490       ??__EmaxV3Error@_VecMathTests@aos@shdfnd@physx@@YAXXZ 0000000180001490 f   GuSweepSharedTests.obj
 0001:000004a0       ??__EmaxV4Error@_VecMathTests@aos@shdfnd@physx@@YAXXZ 00000001800014a0 f   GuSweepSharedTests.obj
 0001:000004b0       ??__EminFError@_VecMathTests@aos@shdfnd@physx@@YAXXZ 00000001800014b0 f   GuSweepSharedTests.obj
 0001:000004c0       ??__EminV3Error@_VecMathTests@aos@shdfnd@physx@@YAXXZ 00000001800014c0 f   GuSweepSharedTests.obj
 0001:000004d0       ??__EminV4Error@_VecMathTests@aos@shdfnd@physx@@YAXXZ 00000001800014d0 f   GuSweepSharedTests.obj
 0001:000004e0       ??__EmaxFError@_VecMathTests@aos@shdfnd@physx@@YAXXZ 00000001800014e0 f   GuSweepTests.obj
 0001:000004f0       ??__EmaxV3Error@_VecMathTests@aos@shdfnd@physx@@YAXXZ 00000001800014f0 f   GuSweepTests.obj
 0001:00000500       ??__EmaxV4Error@_VecMathTests@aos@shdfnd@physx@@YAXXZ 0000000180001500 f   GuSweepTests.obj
 0001:00000510       ??__EminFError@_VecMathTests@aos@shdfnd@physx@@YAXXZ 0000000180001510 f   GuSweepTests.obj
 0001:00000520       ??__EminV3Error@_VecMathTests@aos@shdfnd@physx@@YAXXZ 0000000180001520 f   GuSweepTests.obj
 0001:00000530       ??__EminV4Error@_VecMathTests@aos@shdfnd@physx@@YAXXZ 0000000180001530 f   GuSweepTests.obj
 0001:00000540       ??__EmaxFError@_VecMathTests@aos@shdfnd@physx@@YAXXZ 0000000180001540 f   GuAABBTreeBuild.obj
 0001:00000550       ??__EmaxV3Error@_VecMathTests@aos@shdfnd@physx@@YAXXZ 0000000180001550 f   GuAABBTreeBuild.obj
 0001:00000560       ??__EmaxV4Error@_VecMathTests@aos@shdfnd@physx@@YAXXZ 0000000180001560 f   GuAABBTreeBuild.obj
 0001:00000570       ??__EminFError@_VecMathTests@aos@shdfnd@physx@@YAXXZ 0000000180001570 f   GuAABBTreeBuild.obj
 0001:00000580       ??__EminV3Error@_VecMathTests@aos@shdfnd@physx@@YAXXZ 0000000180001580 f   GuAABBTreeBuild.obj
 0001:00000590       ??__EminV4Error@_VecMathTests@aos@shdfnd@physx@@YAXXZ 0000000180001590 f   GuAABBTreeBuild.obj
 0001:000005a0       ??__EmaxFError@_VecMathTests@aos@shdfnd@physx@@YAXXZ 00000001800015a0 f   GuBVHStructure.obj
 0001:000005b0       ??__EmaxV3Error@_VecMathTests@aos@shdfnd@physx@@YAXXZ 00000001800015b0 f   GuBVHStructure.obj
 0001:000005c0       ??__EmaxV4Error@_VecMathTests@aos@shdfnd@physx@@YAXXZ 00000001800015c0 f   GuBVHStructure.obj
 0001:000005d0       ??__EminFError@_VecMathTests@aos@shdfnd@physx@@YAXXZ 00000001800015d0 f   GuBVHStructure.obj
 0001:000005e0       ??__EminV3Error@_VecMathTests@aos@shdfnd@physx@@YAXXZ 00000001800015e0 f   GuBVHStructure.obj
 0001:000005f0       ??__EminV4Error@_VecMathTests@aos@shdfnd@physx@@YAXXZ 00000001800015f0 f   GuBVHStructure.obj
 0001:00000600       ??__EmaxFError@_VecMathTests@aos@shdfnd@physx@@YAXXZ 0000000180001600 f   GuCCDSweepConvexMesh.obj
 0001:00000610       ??__EmaxV3Error@_VecMathTests@aos@shdfnd@physx@@YAXXZ 0000000180001610 f   GuCCDSweepConvexMesh.obj
 0001:00000620       ??__EmaxV4Error@_VecMathTests@aos@shdfnd@physx@@YAXXZ 0000000180001620 f   GuCCDSweepConvexMesh.obj
 0001:00000630       ??__EminFError@_VecMathTests@aos@shdfnd@physx@@YAXXZ 0000000180001630 f   GuCCDSweepConvexMesh.obj
 0001:00000640       ??__EminV3Error@_VecMathTests@aos@shdfnd@physx@@YAXXZ 0000000180001640 f   GuCCDSweepConvexMesh.obj
 0001:00000650       ??__EminV4Error@_VecMathTests@aos@shdfnd@physx@@YAXXZ 0000000180001650 f   GuCCDSweepConvexMesh.obj
 0001:00000660       ??__EmaxFError@_VecMathTests@aos@shdfnd@physx@@YAXXZ 0000000180001660 f   GuCCDSweepPrimitives.obj
 0001:00000670       ??__EmaxV3Error@_VecMathTests@aos@shdfnd@physx@@YAXXZ 0000000180001670 f   GuCCDSweepPrimitives.obj
 0001:00000680       ??__EmaxV4Error@_VecMathTests@aos@shdfnd@physx@@YAXXZ 0000000180001680 f   GuCCDSweepPrimitives.obj
 0001:00000690       ??__EminFError@_VecMathTests@aos@shdfnd@physx@@YAXXZ 0000000180001690 f   GuCCDSweepPrimitives.obj
 0001:000006a0       ??__EminV3Error@_VecMathTests@aos@shdfnd@physx@@YAXXZ 00000001800016a0 f   GuCCDSweepPrimitives.obj
 0001:000006b0       ??__EminV4Error@_VecMathTests@aos@shdfnd@physx@@YAXXZ 00000001800016b0 f   GuCCDSweepPrimitives.obj
 0001:000006c0       ??__EmaxFError@_VecMathTests@aos@shdfnd@physx@@YAXXZ 00000001800016c0 f   GuBarycentricCoordinates.obj
 0001:000006d0       ??__EmaxV3Error@_VecMathTests@aos@shdfnd@physx@@YAXXZ 00000001800016d0 f   GuBarycentricCoordinates.obj
 0001:000006e0       ??__EmaxV4Error@_VecMathTests@aos@shdfnd@physx@@YAXXZ 00000001800016e0 f   GuBarycentricCoordinates.obj
 0001:000006f0       ??__EminFError@_VecMathTests@aos@shdfnd@physx@@YAXXZ 00000001800016f0 f   GuBarycentricCoordinates.obj
 0001:00000700       ??__EminV3Error@_VecMathTests@aos@shdfnd@physx@@YAXXZ 0000000180001700 f   GuBarycentricCoordinates.obj
 0001:00000710       ??__EminV4Error@_VecMathTests@aos@shdfnd@physx@@YAXXZ 0000000180001710 f   GuBarycentricCoordinates.obj
 0001:00000720       ??__EmaxFError@_VecMathTests@aos@shdfnd@physx@@YAXXZ 0000000180001720 f   GuContactBoxBox.obj
 0001:00000730       ??__EmaxV3Error@_VecMathTests@aos@shdfnd@physx@@YAXXZ 0000000180001730 f   GuContactBoxBox.obj
 0001:00000740       ??__EmaxV4Error@_VecMathTests@aos@shdfnd@physx@@YAXXZ 0000000180001740 f   GuContactBoxBox.obj
 0001:00000750       ??__EminFError@_VecMathTests@aos@shdfnd@physx@@YAXXZ 0000000180001750 f   GuContactBoxBox.obj
 0001:00000760       ??__EminV3Error@_VecMathTests@aos@shdfnd@physx@@YAXXZ 0000000180001760 f   GuContactBoxBox.obj
 0001:00000770       ??__EminV4Error@_VecMathTests@aos@shdfnd@physx@@YAXXZ 0000000180001770 f   GuContactBoxBox.obj
 0001:00000780       ??__EmaxFError@_VecMathTests@aos@shdfnd@physx@@YAXXZ 0000000180001780 f   GuContactCapsuleBox.obj
 0001:00000790       ??__EmaxV3Error@_VecMathTests@aos@shdfnd@physx@@YAXXZ 0000000180001790 f   GuContactCapsuleBox.obj
 0001:000007a0       ??__EmaxV4Error@_VecMathTests@aos@shdfnd@physx@@YAXXZ 00000001800017a0 f   GuContactCapsuleBox.obj
 0001:000007b0       ??__EminFError@_VecMathTests@aos@shdfnd@physx@@YAXXZ 00000001800017b0 f   GuContactCapsuleBox.obj
 0001:000007c0       ??__EminV3Error@_VecMathTests@aos@shdfnd@physx@@YAXXZ 00000001800017c0 f   GuContactCapsuleBox.obj
 0001:000007d0       ??__EminV4Error@_VecMathTests@aos@shdfnd@physx@@YAXXZ 00000001800017d0 f   GuContactCapsuleBox.obj
 0001:000007e0       ??__EmaxFError@_VecMathTests@aos@shdfnd@physx@@YAXXZ 00000001800017e0 f   GuContactCapsuleCapsule.obj
 0001:000007f0       ??__EmaxV3Error@_VecMathTests@aos@shdfnd@physx@@YAXXZ 00000001800017f0 f   GuContactCapsuleCapsule.obj
 0001:00000800       ??__EmaxV4Error@_VecMathTests@aos@shdfnd@physx@@YAXXZ 0000000180001800 f   GuContactCapsuleCapsule.obj
 0001:00000810       ??__EminFError@_VecMathTests@aos@shdfnd@physx@@YAXXZ 0000000180001810 f   GuContactCapsuleCapsule.obj
 0001:00000820       ??__EminV3Error@_VecMathTests@aos@shdfnd@physx@@YAXXZ 0000000180001820 f   GuContactCapsuleCapsule.obj
 0001:00000830       ??__EminV4Error@_VecMathTests@aos@shdfnd@physx@@YAXXZ 0000000180001830 f   GuContactCapsuleCapsule.obj
 0001:00000840       ??__EmaxFError@_VecMathTests@aos@shdfnd@physx@@YAXXZ 0000000180001840 f   GuContactCapsuleConvex.obj
 0001:00000850       ??__EmaxV3Error@_VecMathTests@aos@shdfnd@physx@@YAXXZ 0000000180001850 f   GuContactCapsuleConvex.obj
 0001:00000860       ??__EmaxV4Error@_VecMathTests@aos@shdfnd@physx@@YAXXZ 0000000180001860 f   GuContactCapsuleConvex.obj
 0001:00000870       ??__EminFError@_VecMathTests@aos@shdfnd@physx@@YAXXZ 0000000180001870 f   GuContactCapsuleConvex.obj
 0001:00000880       ??__EminV3Error@_VecMathTests@aos@shdfnd@physx@@YAXXZ 0000000180001880 f   GuContactCapsuleConvex.obj
 0001:00000890       ??__EminV4Error@_VecMathTests@aos@shdfnd@physx@@YAXXZ 0000000180001890 f   GuContactCapsuleConvex.obj
 0001:000008a0       ??__EmaxFError@_VecMathTests@aos@shdfnd@physx@@YAXXZ 00000001800018a0 f   GuContactCapsuleMesh.obj
 0001:000008b0       ??__EmaxV3Error@_VecMathTests@aos@shdfnd@physx@@YAXXZ 00000001800018b0 f   GuContactCapsuleMesh.obj
 0001:000008c0       ??__EmaxV4Error@_VecMathTests@aos@shdfnd@physx@@YAXXZ 00000001800018c0 f   GuContactCapsuleMesh.obj
 0001:000008d0       ??__EminFError@_VecMathTests@aos@shdfnd@physx@@YAXXZ 00000001800018d0 f   GuContactCapsuleMesh.obj
 0001:000008e0       ??__EminV3Error@_VecMathTests@aos@shdfnd@physx@@YAXXZ 00000001800018e0 f   GuContactCapsuleMesh.obj
 0001:000008f0       ??__EminV4Error@_VecMathTests@aos@shdfnd@physx@@YAXXZ 00000001800018f0 f   GuContactCapsuleMesh.obj
 0001:00000900       ??__EmaxFError@_VecMathTests@aos@shdfnd@physx@@YAXXZ 0000000180001900 f   GuContactConvexConvex.obj
 0001:00000910       ??__EmaxV3Error@_VecMathTests@aos@shdfnd@physx@@YAXXZ 0000000180001910 f   GuContactConvexConvex.obj
 0001:00000920       ??__EmaxV4Error@_VecMathTests@aos@shdfnd@physx@@YAXXZ 0000000180001920 f   GuContactConvexConvex.obj
 0001:00000930       ??__EminFError@_VecMathTests@aos@shdfnd@physx@@YAXXZ 0000000180001930 f   GuContactConvexConvex.obj
 0001:00000940       ??__EminV3Error@_VecMathTests@aos@shdfnd@physx@@YAXXZ 0000000180001940 f   GuContactConvexConvex.obj
 0001:00000950       ??__EminV4Error@_VecMathTests@aos@shdfnd@physx@@YAXXZ 0000000180001950 f   GuContactConvexConvex.obj
 0001:00000960       ??__EmaxFError@_VecMathTests@aos@shdfnd@physx@@YAXXZ 0000000180001960 f   GuContactConvexMesh.obj
 0001:00000970       ??__EmaxV3Error@_VecMathTests@aos@shdfnd@physx@@YAXXZ 0000000180001970 f   GuContactConvexMesh.obj
 0001:00000980       ??__EmaxV4Error@_VecMathTests@aos@shdfnd@physx@@YAXXZ 0000000180001980 f   GuContactConvexMesh.obj
 0001:00000990       ??__EminFError@_VecMathTests@aos@shdfnd@physx@@YAXXZ 0000000180001990 f   GuContactConvexMesh.obj
 0001:000009a0       ??__EminV3Error@_VecMathTests@aos@shdfnd@physx@@YAXXZ 00000001800019a0 f   GuContactConvexMesh.obj
 0001:000009b0       ??__EminV4Error@_VecMathTests@aos@shdfnd@physx@@YAXXZ 00000001800019b0 f   GuContactConvexMesh.obj
 0001:000009c0       ??__EmaxFError@_VecMathTests@aos@shdfnd@physx@@YAXXZ 00000001800019c0 f   GuContactPlaneBox.obj
 0001:000009d0       ??__EmaxV3Error@_VecMathTests@aos@shdfnd@physx@@YAXXZ 00000001800019d0 f   GuContactPlaneBox.obj
 0001:000009e0       ??__EmaxV4Error@_VecMathTests@aos@shdfnd@physx@@YAXXZ 00000001800019e0 f   GuContactPlaneBox.obj
 0001:000009f0       ??__EminFError@_VecMathTests@aos@shdfnd@physx@@YAXXZ 00000001800019f0 f   GuContactPlaneBox.obj
 0001:00000a00       ??__EminV3Error@_VecMathTests@aos@shdfnd@physx@@YAXXZ 0000000180001a00 f   GuContactPlaneBox.obj
 0001:00000a10       ??__EminV4Error@_VecMathTests@aos@shdfnd@physx@@YAXXZ 0000000180001a10 f   GuContactPlaneBox.obj
 0001:00000a20       ??__EmaxFError@_VecMathTests@aos@shdfnd@physx@@YAXXZ 0000000180001a20 f   GuContactPlaneCapsule.obj
 0001:00000a30       ??__EmaxV3Error@_VecMathTests@aos@shdfnd@physx@@YAXXZ 0000000180001a30 f   GuContactPlaneCapsule.obj
 0001:00000a40       ??__EmaxV4Error@_VecMathTests@aos@shdfnd@physx@@YAXXZ 0000000180001a40 f   GuContactPlaneCapsule.obj
 0001:00000a50       ??__EminFError@_VecMathTests@aos@shdfnd@physx@@YAXXZ 0000000180001a50 f   GuContactPlaneCapsule.obj
 0001:00000a60       ??__EminV3Error@_VecMathTests@aos@shdfnd@physx@@YAXXZ 0000000180001a60 f   GuContactPlaneCapsule.obj
 0001:00000a70       ??__EminV4Error@_VecMathTests@aos@shdfnd@physx@@YAXXZ 0000000180001a70 f   GuContactPlaneCapsule.obj
 0001:00000a80       ??__EmaxFError@_VecMathTests@aos@shdfnd@physx@@YAXXZ 0000000180001a80 f   GuContactPlaneConvex.obj
 0001:00000a90       ??__EmaxV3Error@_VecMathTests@aos@shdfnd@physx@@YAXXZ 0000000180001a90 f   GuContactPlaneConvex.obj
 0001:00000aa0       ??__EmaxV4Error@_VecMathTests@aos@shdfnd@physx@@YAXXZ 0000000180001aa0 f   GuContactPlaneConvex.obj
 0001:00000ab0       ??__EminFError@_VecMathTests@aos@shdfnd@physx@@YAXXZ 0000000180001ab0 f   GuContactPlaneConvex.obj
 0001:00000ac0       ??__EminV3Error@_VecMathTests@aos@shdfnd@physx@@YAXXZ 0000000180001ac0 f   GuContactPlaneConvex.obj
 0001:00000ad0       ??__EminV4Error@_VecMathTests@aos@shdfnd@physx@@YAXXZ 0000000180001ad0 f   GuContactPlaneConvex.obj
 0001:00000ae0       ??__EmaxFError@_VecMathTests@aos@shdfnd@physx@@YAXXZ 0000000180001ae0 f   GuContactSphereBox.obj
 0001:00000af0       ??__EmaxV3Error@_VecMathTests@aos@shdfnd@physx@@YAXXZ 0000000180001af0 f   GuContactSphereBox.obj
 0001:00000b00       ??__EmaxV4Error@_VecMathTests@aos@shdfnd@physx@@YAXXZ 0000000180001b00 f   GuContactSphereBox.obj
 0001:00000b10       ??__EminFError@_VecMathTests@aos@shdfnd@physx@@YAXXZ 0000000180001b10 f   GuContactSphereBox.obj
 0001:00000b20       ??__EminV3Error@_VecMathTests@aos@shdfnd@physx@@YAXXZ 0000000180001b20 f   GuContactSphereBox.obj
 0001:00000b30       ??__EminV4Error@_VecMathTests@aos@shdfnd@physx@@YAXXZ 0000000180001b30 f   GuContactSphereBox.obj
 0001:00000b40       ??__EmaxFError@_VecMathTests@aos@shdfnd@physx@@YAXXZ 0000000180001b40 f   GuContactSphereCapsule.obj
 0001:00000b50       ??__EmaxV3Error@_VecMathTests@aos@shdfnd@physx@@YAXXZ 0000000180001b50 f   GuContactSphereCapsule.obj
 0001:00000b60       ??__EmaxV4Error@_VecMathTests@aos@shdfnd@physx@@YAXXZ 0000000180001b60 f   GuContactSphereCapsule.obj
 0001:00000b70       ??__EminFError@_VecMathTests@aos@shdfnd@physx@@YAXXZ 0000000180001b70 f   GuContactSphereCapsule.obj
 0001:00000b80       ??__EminV3Error@_VecMathTests@aos@shdfnd@physx@@YAXXZ 0000000180001b80 f   GuContactSphereCapsule.obj
 0001:00000b90       ??__EminV4Error@_VecMathTests@aos@shdfnd@physx@@YAXXZ 0000000180001b90 f   GuContactSphereCapsule.obj
 0001:00000ba0       ??__EmaxFError@_VecMathTests@aos@shdfnd@physx@@YAXXZ 0000000180001ba0 f   GuContactSphereMesh.obj
 0001:00000bb0       ??__EmaxV3Error@_VecMathTests@aos@shdfnd@physx@@YAXXZ 0000000180001bb0 f   GuContactSphereMesh.obj
 0001:00000bc0       ??__EmaxV4Error@_VecMathTests@aos@shdfnd@physx@@YAXXZ 0000000180001bc0 f   GuContactSphereMesh.obj
 0001:00000bd0       ??__EminFError@_VecMathTests@aos@shdfnd@physx@@YAXXZ 0000000180001bd0 f   GuContactSphereMesh.obj
 0001:00000be0       ??__EminV3Error@_VecMathTests@aos@shdfnd@physx@@YAXXZ 0000000180001be0 f   GuContactSphereMesh.obj
 0001:00000bf0       ??__EminV4Error@_VecMathTests@aos@shdfnd@physx@@YAXXZ 0000000180001bf0 f   GuContactSphereMesh.obj
 0001:00000c00       ??__EmaxFError@_VecMathTests@aos@shdfnd@physx@@YAXXZ 0000000180001c00 f   GuContactSpherePlane.obj
 0001:00000c10       ??__EmaxV3Error@_VecMathTests@aos@shdfnd@physx@@YAXXZ 0000000180001c10 f   GuContactSpherePlane.obj
 0001:00000c20       ??__EmaxV4Error@_VecMathTests@aos@shdfnd@physx@@YAXXZ 0000000180001c20 f   GuContactSpherePlane.obj
 0001:00000c30       ??__EminFError@_VecMathTests@aos@shdfnd@physx@@YAXXZ 0000000180001c30 f   GuContactSpherePlane.obj
 0001:00000c40       ??__EminV3Error@_VecMathTests@aos@shdfnd@physx@@YAXXZ 0000000180001c40 f   GuContactSpherePlane.obj
 0001:00000c50       ??__EminV4Error@_VecMathTests@aos@shdfnd@physx@@YAXXZ 0000000180001c50 f   GuContactSpherePlane.obj
 0001:00000c60       ??__EmaxFError@_VecMathTests@aos@shdfnd@physx@@YAXXZ 0000000180001c60 f   GuContactSphereSphere.obj
 0001:00000c70       ??__EmaxV3Error@_VecMathTests@aos@shdfnd@physx@@YAXXZ 0000000180001c70 f   GuContactSphereSphere.obj
 0001:00000c80       ??__EmaxV4Error@_VecMathTests@aos@shdfnd@physx@@YAXXZ 0000000180001c80 f   GuContactSphereSphere.obj
 0001:00000c90       ??__EminFError@_VecMathTests@aos@shdfnd@physx@@YAXXZ 0000000180001c90 f   GuContactSphereSphere.obj
 0001:00000ca0       ??__EminV3Error@_VecMathTests@aos@shdfnd@physx@@YAXXZ 0000000180001ca0 f   GuContactSphereSphere.obj
 0001:00000cb0       ??__EminV4Error@_VecMathTests@aos@shdfnd@physx@@YAXXZ 0000000180001cb0 f   GuContactSphereSphere.obj
 0001:00000cc0       ??__EmaxFError@_VecMathTests@aos@shdfnd@physx@@YAXXZ 0000000180001cc0 f   GuConvexHelper.obj
 0001:00000cd0       ??__EmaxV3Error@_VecMathTests@aos@shdfnd@physx@@YAXXZ 0000000180001cd0 f   GuConvexHelper.obj
 0001:00000ce0       ??__EmaxV4Error@_VecMathTests@aos@shdfnd@physx@@YAXXZ 0000000180001ce0 f   GuConvexHelper.obj
 0001:00000cf0       ??__EminFError@_VecMathTests@aos@shdfnd@physx@@YAXXZ 0000000180001cf0 f   GuConvexHelper.obj
 0001:00000d00       ??__EminV3Error@_VecMathTests@aos@shdfnd@physx@@YAXXZ 0000000180001d00 f   GuConvexHelper.obj
 0001:00000d10       ??__EminV4Error@_VecMathTests@aos@shdfnd@physx@@YAXXZ 0000000180001d10 f   GuConvexHelper.obj
 0001:00000d20       ??__EboxVertexTable@physx@@YAXXZ 0000000180001d20 f   GuConvexSupportTable.obj
 0001:00000da0       ??__EmaxFError@_VecMathTests@aos@shdfnd@physx@@YAXXZ 0000000180001da0 f   GuConvexSupportTable.obj
 0001:00000db0       ??__EmaxV3Error@_VecMathTests@aos@shdfnd@physx@@YAXXZ 0000000180001db0 f   GuConvexSupportTable.obj
 0001:00000dc0       ??__EmaxV4Error@_VecMathTests@aos@shdfnd@physx@@YAXXZ 0000000180001dc0 f   GuConvexSupportTable.obj
 0001:00000dd0       ??__EminFError@_VecMathTests@aos@shdfnd@physx@@YAXXZ 0000000180001dd0 f   GuConvexSupportTable.obj
 0001:00000de0       ??__EminV3Error@_VecMathTests@aos@shdfnd@physx@@YAXXZ 0000000180001de0 f   GuConvexSupportTable.obj
 0001:00000df0       ??__EminV4Error@_VecMathTests@aos@shdfnd@physx@@YAXXZ 0000000180001df0 f   GuConvexSupportTable.obj
 0001:00000e00       ??__EmaxFError@_VecMathTests@aos@shdfnd@physx@@YAXXZ 0000000180001e00 f   GuConvexUtilsInternal.obj
 0001:00000e10       ??__EmaxV3Error@_VecMathTests@aos@shdfnd@physx@@YAXXZ 0000000180001e10 f   GuConvexUtilsInternal.obj
 0001:00000e20       ??__EmaxV4Error@_VecMathTests@aos@shdfnd@physx@@YAXXZ 0000000180001e20 f   GuConvexUtilsInternal.obj
 0001:00000e30       ??__EminFError@_VecMathTests@aos@shdfnd@physx@@YAXXZ 0000000180001e30 f   GuConvexUtilsInternal.obj
 0001:00000e40       ??__EminV3Error@_VecMathTests@aos@shdfnd@physx@@YAXXZ 0000000180001e40 f   GuConvexUtilsInternal.obj
 0001:00000e50       ??__EminV4Error@_VecMathTests@aos@shdfnd@physx@@YAXXZ 0000000180001e50 f   GuConvexUtilsInternal.obj
 0001:00000e60       ??__EmaxFError@_VecMathTests@aos@shdfnd@physx@@YAXXZ 0000000180001e60 f   GuDistancePointTriangle.obj
 0001:00000e70       ??__EmaxV3Error@_VecMathTests@aos@shdfnd@physx@@YAXXZ 0000000180001e70 f   GuDistancePointTriangle.obj
 0001:00000e80       ??__EmaxV4Error@_VecMathTests@aos@shdfnd@physx@@YAXXZ 0000000180001e80 f   GuDistancePointTriangle.obj
 0001:00000e90       ??__EminFError@_VecMathTests@aos@shdfnd@physx@@YAXXZ 0000000180001e90 f   GuDistancePointTriangle.obj
 0001:00000ea0       ??__EminV3Error@_VecMathTests@aos@shdfnd@physx@@YAXXZ 0000000180001ea0 f   GuDistancePointTriangle.obj
 0001:00000eb0       ??__EminV4Error@_VecMathTests@aos@shdfnd@physx@@YAXXZ 0000000180001eb0 f   GuDistancePointTriangle.obj
 0001:00000ec0       ??__EmaxFError@_VecMathTests@aos@shdfnd@physx@@YAXXZ 0000000180001ec0 f   GuDistanceSegmentSegment.obj
 0001:00000ed0       ??__EmaxV3Error@_VecMathTests@aos@shdfnd@physx@@YAXXZ 0000000180001ed0 f   GuDistanceSegmentSegment.obj
 0001:00000ee0       ??__EmaxV4Error@_VecMathTests@aos@shdfnd@physx@@YAXXZ 0000000180001ee0 f   GuDistanceSegmentSegment.obj
 0001:00000ef0       ??__EminFError@_VecMathTests@aos@shdfnd@physx@@YAXXZ 0000000180001ef0 f   GuDistanceSegmentSegment.obj
 0001:00000f00       ??__EminV3Error@_VecMathTests@aos@shdfnd@physx@@YAXXZ 0000000180001f00 f   GuDistanceSegmentSegment.obj
 0001:00000f10       ??__EminV4Error@_VecMathTests@aos@shdfnd@physx@@YAXXZ 0000000180001f10 f   GuDistanceSegmentSegment.obj
 0001:00000f20       ??__EmaxFError@_VecMathTests@aos@shdfnd@physx@@YAXXZ 0000000180001f20 f   GuDistanceSegmentTriangle.obj
 0001:00000f30       ??__EmaxV3Error@_VecMathTests@aos@shdfnd@physx@@YAXXZ 0000000180001f30 f   GuDistanceSegmentTriangle.obj
 0001:00000f40       ??__EmaxV4Error@_VecMathTests@aos@shdfnd@physx@@YAXXZ 0000000180001f40 f   GuDistanceSegmentTriangle.obj
 0001:00000f50       ??__EminFError@_VecMathTests@aos@shdfnd@physx@@YAXXZ 0000000180001f50 f   GuDistanceSegmentTriangle.obj
 0001:00000f60       ??__EminV3Error@_VecMathTests@aos@shdfnd@physx@@YAXXZ 0000000180001f60 f   GuDistanceSegmentTriangle.obj
 0001:00000f70       ??__EminV4Error@_VecMathTests@aos@shdfnd@physx@@YAXXZ 0000000180001f70 f   GuDistanceSegmentTriangle.obj
 0001:00000f80       ??__EmaxFError@_VecMathTests@aos@shdfnd@physx@@YAXXZ 0000000180001f80 f   GuEPA.obj
 0001:00000f90       ??__EmaxV3Error@_VecMathTests@aos@shdfnd@physx@@YAXXZ 0000000180001f90 f   GuEPA.obj
 0001:00000fa0       ??__EmaxV4Error@_VecMathTests@aos@shdfnd@physx@@YAXXZ 0000000180001fa0 f   GuEPA.obj
 0001:00000fb0       ??__EminFError@_VecMathTests@aos@shdfnd@physx@@YAXXZ 0000000180001fb0 f   GuEPA.obj
 0001:00000fc0       ??__EminV3Error@_VecMathTests@aos@shdfnd@physx@@YAXXZ 0000000180001fc0 f   GuEPA.obj
 0001:00000fd0       ??__EminV4Error@_VecMathTests@aos@shdfnd@physx@@YAXXZ 0000000180001fd0 f   GuEPA.obj
 0001:00000fe0       ??__EmaxFError@_VecMathTests@aos@shdfnd@physx@@YAXXZ 0000000180001fe0 f   GuGJKSimplex.obj
 0001:00000ff0       ??__EmaxV3Error@_VecMathTests@aos@shdfnd@physx@@YAXXZ 0000000180001ff0 f   GuGJKSimplex.obj
 0001:00001000       ??__EmaxV4Error@_VecMathTests@aos@shdfnd@physx@@YAXXZ 0000000180002000 f   GuGJKSimplex.obj
 0001:00001010       ??__EminFError@_VecMathTests@aos@shdfnd@physx@@YAXXZ 0000000180002010 f   GuGJKSimplex.obj
 0001:00001020       ??__EminV3Error@_VecMathTests@aos@shdfnd@physx@@YAXXZ 0000000180002020 f   GuGJKSimplex.obj
 0001:00001030       ??__EminV4Error@_VecMathTests@aos@shdfnd@physx@@YAXXZ 0000000180002030 f   GuGJKSimplex.obj
 0001:00001040       ??__EmaxFError@_VecMathTests@aos@shdfnd@physx@@YAXXZ 0000000180002040 f   GuGJKTest.obj
 0001:00001050       ??__EmaxV3Error@_VecMathTests@aos@shdfnd@physx@@YAXXZ 0000000180002050 f   GuGJKTest.obj
 0001:00001060       ??__EmaxV4Error@_VecMathTests@aos@shdfnd@physx@@YAXXZ 0000000180002060 f   GuGJKTest.obj
 0001:00001070       ??__EminFError@_VecMathTests@aos@shdfnd@physx@@YAXXZ 0000000180002070 f   GuGJKTest.obj
 0001:00001080       ??__EminV3Error@_VecMathTests@aos@shdfnd@physx@@YAXXZ 0000000180002080 f   GuGJKTest.obj
 0001:00001090       ??__EminV4Error@_VecMathTests@aos@shdfnd@physx@@YAXXZ 0000000180002090 f   GuGJKTest.obj
 0001:000010a0       ??__EmaxFError@_VecMathTests@aos@shdfnd@physx@@YAXXZ 00000001800020a0 f   GuHeightFieldUtil.obj
 0001:000010b0       ??__EmaxV3Error@_VecMathTests@aos@shdfnd@physx@@YAXXZ 00000001800020b0 f   GuHeightFieldUtil.obj
 0001:000010c0       ??__EmaxV4Error@_VecMathTests@aos@shdfnd@physx@@YAXXZ 00000001800020c0 f   GuHeightFieldUtil.obj
 0001:000010d0       ??__EminFError@_VecMathTests@aos@shdfnd@physx@@YAXXZ 00000001800020d0 f   GuHeightFieldUtil.obj
 0001:000010e0       ??__EminV3Error@_VecMathTests@aos@shdfnd@physx@@YAXXZ 00000001800020e0 f   GuHeightFieldUtil.obj
 0001:000010f0       ??__EminV4Error@_VecMathTests@aos@shdfnd@physx@@YAXXZ 00000001800020f0 f   GuHeightFieldUtil.obj
 0001:00001100       ??__EmaxFError@_VecMathTests@aos@shdfnd@physx@@YAXXZ 0000000180002100 f   GuOverlapTestsHF.obj
 0001:00001110       ??__EmaxV3Error@_VecMathTests@aos@shdfnd@physx@@YAXXZ 0000000180002110 f   GuOverlapTestsHF.obj
 0001:00001120       ??__EmaxV4Error@_VecMathTests@aos@shdfnd@physx@@YAXXZ 0000000180002120 f   GuOverlapTestsHF.obj
 0001:00001130       ??__EminFError@_VecMathTests@aos@shdfnd@physx@@YAXXZ 0000000180002130 f   GuOverlapTestsHF.obj
 0001:00001140       ??__EminV3Error@_VecMathTests@aos@shdfnd@physx@@YAXXZ 0000000180002140 f   GuOverlapTestsHF.obj
 0001:00001150       ??__EminV4Error@_VecMathTests@aos@shdfnd@physx@@YAXXZ 0000000180002150 f   GuOverlapTestsHF.obj
 0001:00001160       ??__EmaxFError@_VecMathTests@aos@shdfnd@physx@@YAXXZ 0000000180002160 f   GuSweepsHF.obj
 0001:00001170       ??__EmaxV3Error@_VecMathTests@aos@shdfnd@physx@@YAXXZ 0000000180002170 f   GuSweepsHF.obj
 0001:00001180       ??__EmaxV4Error@_VecMathTests@aos@shdfnd@physx@@YAXXZ 0000000180002180 f   GuSweepsHF.obj
 0001:00001190       ??__EminFError@_VecMathTests@aos@shdfnd@physx@@YAXXZ 0000000180002190 f   GuSweepsHF.obj
 0001:000011a0       ??__EminV3Error@_VecMathTests@aos@shdfnd@physx@@YAXXZ 00000001800021a0 f   GuSweepsHF.obj
 0001:000011b0       ??__EminV4Error@_VecMathTests@aos@shdfnd@physx@@YAXXZ 00000001800021b0 f   GuSweepsHF.obj
 0001:000011c0       ??__EmaxFError@_VecMathTests@aos@shdfnd@physx@@YAXXZ 00000001800021c0 f   GuIntersectionRayBox.obj
 0001:000011d0       ??__EmaxV3Error@_VecMathTests@aos@shdfnd@physx@@YAXXZ 00000001800021d0 f   GuIntersectionRayBox.obj
 0001:000011e0       ??__EmaxV4Error@_VecMathTests@aos@shdfnd@physx@@YAXXZ 00000001800021e0 f   GuIntersectionRayBox.obj
 0001:000011f0       ??__EminFError@_VecMathTests@aos@shdfnd@physx@@YAXXZ 00000001800021f0 f   GuIntersectionRayBox.obj
 0001:00001200       ??__EminV3Error@_VecMathTests@aos@shdfnd@physx@@YAXXZ 0000000180002200 f   GuIntersectionRayBox.obj
 0001:00001210       ??__EminV4Error@_VecMathTests@aos@shdfnd@physx@@YAXXZ 0000000180002210 f   GuIntersectionRayBox.obj
 0001:00001220       ??__EmaxFError@_VecMathTests@aos@shdfnd@physx@@YAXXZ 0000000180002220 f   GuIntersectionTriangleBox.obj
 0001:00001230       ??__EmaxV3Error@_VecMathTests@aos@shdfnd@physx@@YAXXZ 0000000180002230 f   GuIntersectionTriangleBox.obj
 0001:00001240       ??__EmaxV4Error@_VecMathTests@aos@shdfnd@physx@@YAXXZ 0000000180002240 f   GuIntersectionTriangleBox.obj
 0001:00001250       ??__EminFError@_VecMathTests@aos@shdfnd@physx@@YAXXZ 0000000180002250 f   GuIntersectionTriangleBox.obj
 0001:00001260       ??__EminV3Error@_VecMathTests@aos@shdfnd@physx@@YAXXZ 0000000180002260 f   GuIntersectionTriangleBox.obj
 0001:00001270       ??__EminV4Error@_VecMathTests@aos@shdfnd@physx@@YAXXZ 0000000180002270 f   GuIntersectionTriangleBox.obj
 0001:00001280       ??__EsignV@@YAXXZ          0000000180002280 f   GuIntersectionTriangleBox.obj
 0001:00001290       ??__EmaxFError@_VecMathTests@aos@shdfnd@physx@@YAXXZ 0000000180002290 f   GuBV4.obj
 0001:000012a0       ??__EmaxV3Error@_VecMathTests@aos@shdfnd@physx@@YAXXZ 00000001800022a0 f   GuBV4.obj
 0001:000012b0       ??__EmaxV4Error@_VecMathTests@aos@shdfnd@physx@@YAXXZ 00000001800022b0 f   GuBV4.obj
 0001:000012c0       ??__EminFError@_VecMathTests@aos@shdfnd@physx@@YAXXZ 00000001800022c0 f   GuBV4.obj
 0001:000012d0       ??__EminV3Error@_VecMathTests@aos@shdfnd@physx@@YAXXZ 00000001800022d0 f   GuBV4.obj
 0001:000012e0       ??__EminV4Error@_VecMathTests@aos@shdfnd@physx@@YAXXZ 00000001800022e0 f   GuBV4.obj
 0001:000012f0       ??__EmaxFError@_VecMathTests@aos@shdfnd@physx@@YAXXZ 00000001800022f0 f   GuBV4Build.obj
 0001:00001300       ??__EmaxV3Error@_VecMathTests@aos@shdfnd@physx@@YAXXZ 0000000180002300 f   GuBV4Build.obj
 0001:00001310       ??__EmaxV4Error@_VecMathTests@aos@shdfnd@physx@@YAXXZ 0000000180002310 f   GuBV4Build.obj
 0001:00001320       ??__EminFError@_VecMathTests@aos@shdfnd@physx@@YAXXZ 0000000180002320 f   GuBV4Build.obj
 0001:00001330       ??__EminV3Error@_VecMathTests@aos@shdfnd@physx@@YAXXZ 0000000180002330 f   GuBV4Build.obj
 0001:00001340       ??__EminV4Error@_VecMathTests@aos@shdfnd@physx@@YAXXZ 0000000180002340 f   GuBV4Build.obj
 0001:00001350       ??__EepsFloat4@?A0x9bf6f2a5@@YAXXZ 0000000180002350 f   GuBV4_AABBSweep.obj
 0001:00001360       ??__EepsInflateFloat4@?A0x9bf6f2a5@@YAXXZ 0000000180002360 f   GuBV4_AABBSweep.obj
 0001:00001370       ??__EmaxFError@_VecMathTests@aos@shdfnd@physx@@YAXXZ 0000000180002370 f   GuBV4_AABBSweep.obj
 0001:00001380       ??__EmaxV3Error@_VecMathTests@aos@shdfnd@physx@@YAXXZ 0000000180002380 f   GuBV4_AABBSweep.obj
 0001:00001390       ??__EmaxV4Error@_VecMathTests@aos@shdfnd@physx@@YAXXZ 0000000180002390 f   GuBV4_AABBSweep.obj
 0001:000013a0       ??__EminFError@_VecMathTests@aos@shdfnd@physx@@YAXXZ 00000001800023a0 f   GuBV4_AABBSweep.obj
 0001:000013b0       ??__EminV3Error@_VecMathTests@aos@shdfnd@physx@@YAXXZ 00000001800023b0 f   GuBV4_AABBSweep.obj
 0001:000013c0       ??__EminV4Error@_VecMathTests@aos@shdfnd@physx@@YAXXZ 00000001800023c0 f   GuBV4_AABBSweep.obj
 0001:000013d0       ??__EsignMask@?A0x9bf6f2a5@@YAXXZ 00000001800023d0 f   GuBV4_AABBSweep.obj
 0001:000013e0       ??__Etwos@?A0x9bf6f2a5@@YAXXZ 00000001800023e0 f   GuBV4_AABBSweep.obj
 0001:000013f0       ??__Ezeroes@?A0x9bf6f2a5@@YAXXZ 00000001800023f0 f   GuBV4_AABBSweep.obj
 0001:00001400       ??__EmaxFError@_VecMathTests@aos@shdfnd@physx@@YAXXZ 0000000180002400 f   GuBV4_BoxOverlap.obj
 0001:00001410       ??__EmaxV3Error@_VecMathTests@aos@shdfnd@physx@@YAXXZ 0000000180002410 f   GuBV4_BoxOverlap.obj
 0001:00001420       ??__EmaxV4Error@_VecMathTests@aos@shdfnd@physx@@YAXXZ 0000000180002420 f   GuBV4_BoxOverlap.obj
 0001:00001430       ??__EminFError@_VecMathTests@aos@shdfnd@physx@@YAXXZ 0000000180002430 f   GuBV4_BoxOverlap.obj
 0001:00001440       ??__EminV3Error@_VecMathTests@aos@shdfnd@physx@@YAXXZ 0000000180002440 f   GuBV4_BoxOverlap.obj
 0001:00001450       ??__EminV4Error@_VecMathTests@aos@shdfnd@physx@@YAXXZ 0000000180002450 f   GuBV4_BoxOverlap.obj
 0001:00001460       ??__EmaxFError@_VecMathTests@aos@shdfnd@physx@@YAXXZ 0000000180002460 f   GuBV4_CapsuleSweep.obj
 0001:00001470       ??__EmaxV3Error@_VecMathTests@aos@shdfnd@physx@@YAXXZ 0000000180002470 f   GuBV4_CapsuleSweep.obj
 0001:00001480       ??__EmaxV4Error@_VecMathTests@aos@shdfnd@physx@@YAXXZ 0000000180002480 f   GuBV4_CapsuleSweep.obj
 0001:00001490       ??__EminFError@_VecMathTests@aos@shdfnd@physx@@YAXXZ 0000000180002490 f   GuBV4_CapsuleSweep.obj
 0001:000014a0       ??__EminV3Error@_VecMathTests@aos@shdfnd@physx@@YAXXZ 00000001800024a0 f   GuBV4_CapsuleSweep.obj
 0001:000014b0       ??__EminV4Error@_VecMathTests@aos@shdfnd@physx@@YAXXZ 00000001800024b0 f   GuBV4_CapsuleSweep.obj
 0001:000014c0       ??__EepsFloat4@?A0xb241aaa7@@YAXXZ 00000001800024c0 f   GuBV4_CapsuleSweepAA.obj
 0001:000014d0       ??__EepsInflateFloat4@?A0xb241aaa7@@YAXXZ 00000001800024d0 f   GuBV4_CapsuleSweepAA.obj
 0001:000014e0       ??__EmaxFError@_VecMathTests@aos@shdfnd@physx@@YAXXZ 00000001800024e0 f   GuBV4_CapsuleSweepAA.obj
 0001:000014f0       ??__EmaxV3Error@_VecMathTests@aos@shdfnd@physx@@YAXXZ 00000001800024f0 f   GuBV4_CapsuleSweepAA.obj
 0001:00001500       ??__EmaxV4Error@_VecMathTests@aos@shdfnd@physx@@YAXXZ 0000000180002500 f   GuBV4_CapsuleSweepAA.obj
 0001:00001510       ??__EminFError@_VecMathTests@aos@shdfnd@physx@@YAXXZ 0000000180002510 f   GuBV4_CapsuleSweepAA.obj
 0001:00001520       ??__EminV3Error@_VecMathTests@aos@shdfnd@physx@@YAXXZ 0000000180002520 f   GuBV4_CapsuleSweepAA.obj
 0001:00001530       ??__EminV4Error@_VecMathTests@aos@shdfnd@physx@@YAXXZ 0000000180002530 f   GuBV4_CapsuleSweepAA.obj
 0001:00001540       ??__EsignMask@?A0xb241aaa7@@YAXXZ 0000000180002540 f   GuBV4_CapsuleSweepAA.obj
 0001:00001550       ??__Etwos@?A0xb241aaa7@@YAXXZ 0000000180002550 f   GuBV4_CapsuleSweepAA.obj
 0001:00001560       ??__Ezeroes@?A0xb241aaa7@@YAXXZ 0000000180002560 f   GuBV4_CapsuleSweepAA.obj
 0001:00001570       ??__EmaxFError@_VecMathTests@aos@shdfnd@physx@@YAXXZ 0000000180002570 f   GuBV4_OBBSweep.obj
 0001:00001580       ??__EmaxV3Error@_VecMathTests@aos@shdfnd@physx@@YAXXZ 0000000180002580 f   GuBV4_OBBSweep.obj
 0001:00001590       ??__EmaxV4Error@_VecMathTests@aos@shdfnd@physx@@YAXXZ 0000000180002590 f   GuBV4_OBBSweep.obj
 0001:000015a0       ??__EminFError@_VecMathTests@aos@shdfnd@physx@@YAXXZ 00000001800025a0 f   GuBV4_OBBSweep.obj
 0001:000015b0       ??__EminV3Error@_VecMathTests@aos@shdfnd@physx@@YAXXZ 00000001800025b0 f   GuBV4_OBBSweep.obj
 0001:000015c0       ??__EminV4Error@_VecMathTests@aos@shdfnd@physx@@YAXXZ 00000001800025c0 f   GuBV4_OBBSweep.obj
 0001:000015d0       ??__EepsFloat4@?A0x69346baa@@YAXXZ 00000001800025d0 f   GuBV4_Raycast.obj
 0001:000015e0       ??__EepsInflateFloat4@?A0x69346baa@@YAXXZ 00000001800025e0 f   GuBV4_Raycast.obj
 0001:000015f0       ??__EmaxFError@_VecMathTests@aos@shdfnd@physx@@YAXXZ 00000001800025f0 f   GuBV4_Raycast.obj
 0001:00001600       ??__EmaxV3Error@_VecMathTests@aos@shdfnd@physx@@YAXXZ 0000000180002600 f   GuBV4_Raycast.obj
 0001:00001610       ??__EmaxV4Error@_VecMathTests@aos@shdfnd@physx@@YAXXZ 0000000180002610 f   GuBV4_Raycast.obj
 0001:00001620       ??__EminFError@_VecMathTests@aos@shdfnd@physx@@YAXXZ 0000000180002620 f   GuBV4_Raycast.obj
 0001:00001630       ??__EminV3Error@_VecMathTests@aos@shdfnd@physx@@YAXXZ 0000000180002630 f   GuBV4_Raycast.obj
 0001:00001640       ??__EminV4Error@_VecMathTests@aos@shdfnd@physx@@YAXXZ 0000000180002640 f   GuBV4_Raycast.obj
 0001:00001650       ??__EsignMask@?A0x69346baa@@YAXXZ 0000000180002650 f   GuBV4_Raycast.obj
 0001:00001660       ??__Etwos@?A0x69346baa@@YAXXZ 0000000180002660 f   GuBV4_Raycast.obj
 0001:00001670       ??__Ezeroes@?A0x69346baa@@YAXXZ 0000000180002670 f   GuBV4_Raycast.obj
 0001:00001680       ??__EmaxFError@_VecMathTests@aos@shdfnd@physx@@YAXXZ 0000000180002680 f   GuBV4_SphereOverlap.obj
 0001:00001690       ??__EmaxV3Error@_VecMathTests@aos@shdfnd@physx@@YAXXZ 0000000180002690 f   GuBV4_SphereOverlap.obj
 0001:000016a0       ??__EmaxV4Error@_VecMathTests@aos@shdfnd@physx@@YAXXZ 00000001800026a0 f   GuBV4_SphereOverlap.obj
 0001:000016b0       ??__EminFError@_VecMathTests@aos@shdfnd@physx@@YAXXZ 00000001800026b0 f   GuBV4_SphereOverlap.obj
 0001:000016c0       ??__EminV3Error@_VecMathTests@aos@shdfnd@physx@@YAXXZ 00000001800026c0 f   GuBV4_SphereOverlap.obj
 0001:000016d0       ??__EminV4Error@_VecMathTests@aos@shdfnd@physx@@YAXXZ 00000001800026d0 f   GuBV4_SphereOverlap.obj
 0001:000016e0       ??__EepsFloat4@?A0x3f749f4a@@YAXXZ 00000001800026e0 f   GuBV4_SphereSweep.obj
 0001:000016f0       ??__EepsInflateFloat4@?A0x3f749f4a@@YAXXZ 00000001800026f0 f   GuBV4_SphereSweep.obj
 0001:00001700       ??__EmaxFError@_VecMathTests@aos@shdfnd@physx@@YAXXZ 0000000180002700 f   GuBV4_SphereSweep.obj
 0001:00001710       ??__EmaxV3Error@_VecMathTests@aos@shdfnd@physx@@YAXXZ 0000000180002710 f   GuBV4_SphereSweep.obj
 0001:00001720       ??__EmaxV4Error@_VecMathTests@aos@shdfnd@physx@@YAXXZ 0000000180002720 f   GuBV4_SphereSweep.obj
 0001:00001730       ??__EminFError@_VecMathTests@aos@shdfnd@physx@@YAXXZ 0000000180002730 f   GuBV4_SphereSweep.obj
 0001:00001740       ??__EminV3Error@_VecMathTests@aos@shdfnd@physx@@YAXXZ 0000000180002740 f   GuBV4_SphereSweep.obj
 0001:00001750       ??__EminV4Error@_VecMathTests@aos@shdfnd@physx@@YAXXZ 0000000180002750 f   GuBV4_SphereSweep.obj
 0001:00001760       ??__EsignMask@?A0x3f749f4a@@YAXXZ 0000000180002760 f   GuBV4_SphereSweep.obj
 0001:00001770       ??__Etwos@?A0x3f749f4a@@YAXXZ 0000000180002770 f   GuBV4_SphereSweep.obj
 0001:00001780       ??__Ezeroes@?A0x3f749f4a@@YAXXZ 0000000180002780 f   GuBV4_SphereSweep.obj
 0001:00001790       ??__EmaxFError@_VecMathTests@aos@shdfnd@physx@@YAXXZ 0000000180002790 f   GuMidphaseBV4.obj
 0001:000017a0       ??__EmaxV3Error@_VecMathTests@aos@shdfnd@physx@@YAXXZ 00000001800027a0 f   GuMidphaseBV4.obj
 0001:000017b0       ??__EmaxV4Error@_VecMathTests@aos@shdfnd@physx@@YAXXZ 00000001800027b0 f   GuMidphaseBV4.obj
 0001:000017c0       ??__EminFError@_VecMathTests@aos@shdfnd@physx@@YAXXZ 00000001800027c0 f   GuMidphaseBV4.obj
 0001:000017d0       ??__EminV3Error@_VecMathTests@aos@shdfnd@physx@@YAXXZ 00000001800027d0 f   GuMidphaseBV4.obj
 0001:000017e0       ??__EminV4Error@_VecMathTests@aos@shdfnd@physx@@YAXXZ 00000001800027e0 f   GuMidphaseBV4.obj
 0001:000017f0       ??__EmaxFError@_VecMathTests@aos@shdfnd@physx@@YAXXZ 00000001800027f0 f   GuMeshQuery.obj
 0001:00001800       ??__EmaxV3Error@_VecMathTests@aos@shdfnd@physx@@YAXXZ 0000000180002800 f   GuMeshQuery.obj
 0001:00001810       ??__EmaxV4Error@_VecMathTests@aos@shdfnd@physx@@YAXXZ 0000000180002810 f   GuMeshQuery.obj
 0001:00001820       ??__EminFError@_VecMathTests@aos@shdfnd@physx@@YAXXZ 0000000180002820 f   GuMeshQuery.obj
 0001:00001830       ??__EminV3Error@_VecMathTests@aos@shdfnd@physx@@YAXXZ 0000000180002830 f   GuMeshQuery.obj
 0001:00001840       ??__EminV4Error@_VecMathTests@aos@shdfnd@physx@@YAXXZ 0000000180002840 f   GuMeshQuery.obj
 0001:00001850       ??__EmaxFError@_VecMathTests@aos@shdfnd@physx@@YAXXZ 0000000180002850 f   GuMidphaseRTree.obj
 0001:00001860       ??__EmaxV3Error@_VecMathTests@aos@shdfnd@physx@@YAXXZ 0000000180002860 f   GuMidphaseRTree.obj
 0001:00001870       ??__EmaxV4Error@_VecMathTests@aos@shdfnd@physx@@YAXXZ 0000000180002870 f   GuMidphaseRTree.obj
 0001:00001880       ??__EminFError@_VecMathTests@aos@shdfnd@physx@@YAXXZ 0000000180002880 f   GuMidphaseRTree.obj
 0001:00001890       ??__EminV3Error@_VecMathTests@aos@shdfnd@physx@@YAXXZ 0000000180002890 f   GuMidphaseRTree.obj
 0001:000018a0       ??__EminV4Error@_VecMathTests@aos@shdfnd@physx@@YAXXZ 00000001800028a0 f   GuMidphaseRTree.obj
 0001:000018b0       ??__EmaxFError@_VecMathTests@aos@shdfnd@physx@@YAXXZ 00000001800028b0 f   GuOverlapTestsMesh.obj
 0001:000018c0       ??__EmaxV3Error@_VecMathTests@aos@shdfnd@physx@@YAXXZ 00000001800028c0 f   GuOverlapTestsMesh.obj
 0001:000018d0       ??__EmaxV4Error@_VecMathTests@aos@shdfnd@physx@@YAXXZ 00000001800028d0 f   GuOverlapTestsMesh.obj
 0001:000018e0       ??__EminFError@_VecMathTests@aos@shdfnd@physx@@YAXXZ 00000001800028e0 f   GuOverlapTestsMesh.obj
 0001:000018f0       ??__EminV3Error@_VecMathTests@aos@shdfnd@physx@@YAXXZ 00000001800028f0 f   GuOverlapTestsMesh.obj
 0001:00001900       ??__EminV4Error@_VecMathTests@aos@shdfnd@physx@@YAXXZ 0000000180002900 f   GuOverlapTestsMesh.obj
 0001:00001910       ??__EmaxFError@_VecMathTests@aos@shdfnd@physx@@YAXXZ 0000000180002910 f   GuRTree.obj
 0001:00001920       ??__EmaxV3Error@_VecMathTests@aos@shdfnd@physx@@YAXXZ 0000000180002920 f   GuRTree.obj
 0001:00001930       ??__EmaxV4Error@_VecMathTests@aos@shdfnd@physx@@YAXXZ 0000000180002930 f   GuRTree.obj
 0001:00001940       ??__EminFError@_VecMathTests@aos@shdfnd@physx@@YAXXZ 0000000180002940 f   GuRTree.obj
 0001:00001950       ??__EminV3Error@_VecMathTests@aos@shdfnd@physx@@YAXXZ 0000000180002950 f   GuRTree.obj
 0001:00001960       ??__EminV4Error@_VecMathTests@aos@shdfnd@physx@@YAXXZ 0000000180002960 f   GuRTree.obj
 0001:00001970       ??__EepsFloat4@?A0x316c9ea6@@YAXXZ 0000000180002970 f   GuRTreeQueries.obj
 0001:00001980       ??__EepsInflateFloat4@?A0x316c9ea6@@YAXXZ 0000000180002980 f   GuRTreeQueries.obj
 0001:00001990       ??__EmaxFError@_VecMathTests@aos@shdfnd@physx@@YAXXZ 0000000180002990 f   GuRTreeQueries.obj
 0001:000019a0       ??__EmaxV3Error@_VecMathTests@aos@shdfnd@physx@@YAXXZ 00000001800029a0 f   GuRTreeQueries.obj
 0001:000019b0       ??__EmaxV4Error@_VecMathTests@aos@shdfnd@physx@@YAXXZ 00000001800029b0 f   GuRTreeQueries.obj
 0001:000019c0       ??__EminFError@_VecMathTests@aos@shdfnd@physx@@YAXXZ 00000001800029c0 f   GuRTreeQueries.obj
 0001:000019d0       ??__EminV3Error@_VecMathTests@aos@shdfnd@physx@@YAXXZ 00000001800029d0 f   GuRTreeQueries.obj
 0001:000019e0       ??__EminV4Error@_VecMathTests@aos@shdfnd@physx@@YAXXZ 00000001800029e0 f   GuRTreeQueries.obj
 0001:000019f0       ??__EsignMask@?A0x316c9ea6@@YAXXZ 00000001800029f0 f   GuRTreeQueries.obj
 0001:00001a00       ??__Etwos@?A0x316c9ea6@@YAXXZ 0000000180002a00 f   GuRTreeQueries.obj
 0001:00001a10       ??__Ezeroes@?A0x316c9ea6@@YAXXZ 0000000180002a10 f   GuRTreeQueries.obj
 0001:00001a20       ??__EmaxFError@_VecMathTests@aos@shdfnd@physx@@YAXXZ 0000000180002a20 f   GuSweepsMesh.obj
 0001:00001a30       ??__EmaxV3Error@_VecMathTests@aos@shdfnd@physx@@YAXXZ 0000000180002a30 f   GuSweepsMesh.obj
 0001:00001a40       ??__EmaxV4Error@_VecMathTests@aos@shdfnd@physx@@YAXXZ 0000000180002a40 f   GuSweepsMesh.obj
 0001:00001a50       ??__EminFError@_VecMathTests@aos@shdfnd@physx@@YAXXZ 0000000180002a50 f   GuSweepsMesh.obj
 0001:00001a60       ??__EminV3Error@_VecMathTests@aos@shdfnd@physx@@YAXXZ 0000000180002a60 f   GuSweepsMesh.obj
 0001:00001a70       ??__EminV4Error@_VecMathTests@aos@shdfnd@physx@@YAXXZ 0000000180002a70 f   GuSweepsMesh.obj
 0001:00001a80       ??__EmaxFError@_VecMathTests@aos@shdfnd@physx@@YAXXZ 0000000180002a80 f   GuTriangleMesh.obj
 0001:00001a90       ??__EmaxV3Error@_VecMathTests@aos@shdfnd@physx@@YAXXZ 0000000180002a90 f   GuTriangleMesh.obj
 0001:00001aa0       ??__EmaxV4Error@_VecMathTests@aos@shdfnd@physx@@YAXXZ 0000000180002aa0 f   GuTriangleMesh.obj
 0001:00001ab0       ??__EminFError@_VecMathTests@aos@shdfnd@physx@@YAXXZ 0000000180002ab0 f   GuTriangleMesh.obj
 0001:00001ac0       ??__EminV3Error@_VecMathTests@aos@shdfnd@physx@@YAXXZ 0000000180002ac0 f   GuTriangleMesh.obj
 0001:00001ad0       ??__EminV4Error@_VecMathTests@aos@shdfnd@physx@@YAXXZ 0000000180002ad0 f   GuTriangleMesh.obj
 0001:00001ae0       ??__EmaxFError@_VecMathTests@aos@shdfnd@physx@@YAXXZ 0000000180002ae0 f   GuTriangleMeshBV4.obj
 0001:00001af0       ??__EmaxV3Error@_VecMathTests@aos@shdfnd@physx@@YAXXZ 0000000180002af0 f   GuTriangleMeshBV4.obj
 0001:00001b00       ??__EmaxV4Error@_VecMathTests@aos@shdfnd@physx@@YAXXZ 0000000180002b00 f   GuTriangleMeshBV4.obj
 0001:00001b10       ??__EminFError@_VecMathTests@aos@shdfnd@physx@@YAXXZ 0000000180002b10 f   GuTriangleMeshBV4.obj
 0001:00001b20       ??__EminV3Error@_VecMathTests@aos@shdfnd@physx@@YAXXZ 0000000180002b20 f   GuTriangleMeshBV4.obj
 0001:00001b30       ??__EminV4Error@_VecMathTests@aos@shdfnd@physx@@YAXXZ 0000000180002b30 f   GuTriangleMeshBV4.obj
 0001:00001b40       ??__EmaxFError@_VecMathTests@aos@shdfnd@physx@@YAXXZ 0000000180002b40 f   GuTriangleMeshRTree.obj
 0001:00001b50       ??__EmaxV3Error@_VecMathTests@aos@shdfnd@physx@@YAXXZ 0000000180002b50 f   GuTriangleMeshRTree.obj
 0001:00001b60       ??__EmaxV4Error@_VecMathTests@aos@shdfnd@physx@@YAXXZ 0000000180002b60 f   GuTriangleMeshRTree.obj
 0001:00001b70       ??__EminFError@_VecMathTests@aos@shdfnd@physx@@YAXXZ 0000000180002b70 f   GuTriangleMeshRTree.obj
 0001:00001b80       ??__EminV3Error@_VecMathTests@aos@shdfnd@physx@@YAXXZ 0000000180002b80 f   GuTriangleMeshRTree.obj
 0001:00001b90       ??__EminV4Error@_VecMathTests@aos@shdfnd@physx@@YAXXZ 0000000180002b90 f   GuTriangleMeshRTree.obj
 0001:00001ba0       ??__EmaxFError@_VecMathTests@aos@shdfnd@physx@@YAXXZ 0000000180002ba0 f   GuBV32Build.obj
 0001:00001bb0       ??__EmaxV3Error@_VecMathTests@aos@shdfnd@physx@@YAXXZ 0000000180002bb0 f   GuBV32Build.obj
 0001:00001bc0       ??__EmaxV4Error@_VecMathTests@aos@shdfnd@physx@@YAXXZ 0000000180002bc0 f   GuBV32Build.obj
 0001:00001bd0       ??__EminFError@_VecMathTests@aos@shdfnd@physx@@YAXXZ 0000000180002bd0 f   GuBV32Build.obj
 0001:00001be0       ??__EminV3Error@_VecMathTests@aos@shdfnd@physx@@YAXXZ 0000000180002be0 f   GuBV32Build.obj
 0001:00001bf0       ??__EminV4Error@_VecMathTests@aos@shdfnd@physx@@YAXXZ 0000000180002bf0 f   GuBV32Build.obj
 0001:00001c00       ??__EmaxFError@_VecMathTests@aos@shdfnd@physx@@YAXXZ 0000000180002c00 f   GuPCMContactBoxBox.obj
 0001:00001c10       ??__EmaxV3Error@_VecMathTests@aos@shdfnd@physx@@YAXXZ 0000000180002c10 f   GuPCMContactBoxBox.obj
 0001:00001c20       ??__EmaxV4Error@_VecMathTests@aos@shdfnd@physx@@YAXXZ 0000000180002c20 f   GuPCMContactBoxBox.obj
 0001:00001c30       ??__EminFError@_VecMathTests@aos@shdfnd@physx@@YAXXZ 0000000180002c30 f   GuPCMContactBoxBox.obj
 0001:00001c40       ??__EminV3Error@_VecMathTests@aos@shdfnd@physx@@YAXXZ 0000000180002c40 f   GuPCMContactBoxBox.obj
 0001:00001c50       ??__EminV4Error@_VecMathTests@aos@shdfnd@physx@@YAXXZ 0000000180002c50 f   GuPCMContactBoxBox.obj
 0001:00001c60       ??__EmaxFError@_VecMathTests@aos@shdfnd@physx@@YAXXZ 0000000180002c60 f   GuPCMContactBoxConvex.obj
 0001:00001c70       ??__EmaxV3Error@_VecMathTests@aos@shdfnd@physx@@YAXXZ 0000000180002c70 f   GuPCMContactBoxConvex.obj
 0001:00001c80       ??__EmaxV4Error@_VecMathTests@aos@shdfnd@physx@@YAXXZ 0000000180002c80 f   GuPCMContactBoxConvex.obj
 0001:00001c90       ??__EminFError@_VecMathTests@aos@shdfnd@physx@@YAXXZ 0000000180002c90 f   GuPCMContactBoxConvex.obj
 0001:00001ca0       ??__EminV3Error@_VecMathTests@aos@shdfnd@physx@@YAXXZ 0000000180002ca0 f   GuPCMContactBoxConvex.obj
 0001:00001cb0       ??__EminV4Error@_VecMathTests@aos@shdfnd@physx@@YAXXZ 0000000180002cb0 f   GuPCMContactBoxConvex.obj
 0001:00001cc0       ??__EmaxFError@_VecMathTests@aos@shdfnd@physx@@YAXXZ 0000000180002cc0 f   GuPCMContactCapsuleBox.obj
 0001:00001cd0       ??__EmaxV3Error@_VecMathTests@aos@shdfnd@physx@@YAXXZ 0000000180002cd0 f   GuPCMContactCapsuleBox.obj
 0001:00001ce0       ??__EmaxV4Error@_VecMathTests@aos@shdfnd@physx@@YAXXZ 0000000180002ce0 f   GuPCMContactCapsuleBox.obj
 0001:00001cf0       ??__EminFError@_VecMathTests@aos@shdfnd@physx@@YAXXZ 0000000180002cf0 f   GuPCMContactCapsuleBox.obj
 0001:00001d00       ??__EminV3Error@_VecMathTests@aos@shdfnd@physx@@YAXXZ 0000000180002d00 f   GuPCMContactCapsuleBox.obj
 0001:00001d10       ??__EminV4Error@_VecMathTests@aos@shdfnd@physx@@YAXXZ 0000000180002d10 f   GuPCMContactCapsuleBox.obj
 0001:00001d20       ??__EmaxFError@_VecMathTests@aos@shdfnd@physx@@YAXXZ 0000000180002d20 f   GuPCMContactCapsuleCapsule.obj
 0001:00001d30       ??__EmaxV3Error@_VecMathTests@aos@shdfnd@physx@@YAXXZ 0000000180002d30 f   GuPCMContactCapsuleCapsule.obj
 0001:00001d40       ??__EmaxV4Error@_VecMathTests@aos@shdfnd@physx@@YAXXZ 0000000180002d40 f   GuPCMContactCapsuleCapsule.obj
 0001:00001d50       ??__EminFError@_VecMathTests@aos@shdfnd@physx@@YAXXZ 0000000180002d50 f   GuPCMContactCapsuleCapsule.obj
 0001:00001d60       ??__EminV3Error@_VecMathTests@aos@shdfnd@physx@@YAXXZ 0000000180002d60 f   GuPCMContactCapsuleCapsule.obj
 0001:00001d70       ??__EminV4Error@_VecMathTests@aos@shdfnd@physx@@YAXXZ 0000000180002d70 f   GuPCMContactCapsuleCapsule.obj
 0001:00001d80       ??__EmaxFError@_VecMathTests@aos@shdfnd@physx@@YAXXZ 0000000180002d80 f   GuPCMContactCapsuleConvex.obj
 0001:00001d90       ??__EmaxV3Error@_VecMathTests@aos@shdfnd@physx@@YAXXZ 0000000180002d90 f   GuPCMContactCapsuleConvex.obj
 0001:00001da0       ??__EmaxV4Error@_VecMathTests@aos@shdfnd@physx@@YAXXZ 0000000180002da0 f   GuPCMContactCapsuleConvex.obj
 0001:00001db0       ??__EminFError@_VecMathTests@aos@shdfnd@physx@@YAXXZ 0000000180002db0 f   GuPCMContactCapsuleConvex.obj
 0001:00001dc0       ??__EminV3Error@_VecMathTests@aos@shdfnd@physx@@YAXXZ 0000000180002dc0 f   GuPCMContactCapsuleConvex.obj
 0001:00001dd0       ??__EminV4Error@_VecMathTests@aos@shdfnd@physx@@YAXXZ 0000000180002dd0 f   GuPCMContactCapsuleConvex.obj
 0001:00001de0       ??__EmaxFError@_VecMathTests@aos@shdfnd@physx@@YAXXZ 0000000180002de0 f   GuPCMContactCapsuleHeightField.obj
 0001:00001df0       ??__EmaxV3Error@_VecMathTests@aos@shdfnd@physx@@YAXXZ 0000000180002df0 f   GuPCMContactCapsuleHeightField.obj
 0001:00001e00       ??__EmaxV4Error@_VecMathTests@aos@shdfnd@physx@@YAXXZ 0000000180002e00 f   GuPCMContactCapsuleHeightField.obj
 0001:00001e10       ??__EminFError@_VecMathTests@aos@shdfnd@physx@@YAXXZ 0000000180002e10 f   GuPCMContactCapsuleHeightField.obj
 0001:00001e20       ??__EminV3Error@_VecMathTests@aos@shdfnd@physx@@YAXXZ 0000000180002e20 f   GuPCMContactCapsuleHeightField.obj
 0001:00001e30       ??__EminV4Error@_VecMathTests@aos@shdfnd@physx@@YAXXZ 0000000180002e30 f   GuPCMContactCapsuleHeightField.obj
 0001:00001e40       ??__EmaxFError@_VecMathTests@aos@shdfnd@physx@@YAXXZ 0000000180002e40 f   GuPCMContactCapsuleMesh.obj
 0001:00001e50       ??__EmaxV3Error@_VecMathTests@aos@shdfnd@physx@@YAXXZ 0000000180002e50 f   GuPCMContactCapsuleMesh.obj
 0001:00001e60       ??__EmaxV4Error@_VecMathTests@aos@shdfnd@physx@@YAXXZ 0000000180002e60 f   GuPCMContactCapsuleMesh.obj
 0001:00001e70       ??__EminFError@_VecMathTests@aos@shdfnd@physx@@YAXXZ 0000000180002e70 f   GuPCMContactCapsuleMesh.obj
 0001:00001e80       ??__EminV3Error@_VecMathTests@aos@shdfnd@physx@@YAXXZ 0000000180002e80 f   GuPCMContactCapsuleMesh.obj
 0001:00001e90       ??__EminV4Error@_VecMathTests@aos@shdfnd@physx@@YAXXZ 0000000180002e90 f   GuPCMContactCapsuleMesh.obj
 0001:00001ea0       ??__EmaxFError@_VecMathTests@aos@shdfnd@physx@@YAXXZ 0000000180002ea0 f   GuPCMContactConvexCommon.obj
 0001:00001eb0       ??__EmaxV3Error@_VecMathTests@aos@shdfnd@physx@@YAXXZ 0000000180002eb0 f   GuPCMContactConvexCommon.obj
 0001:00001ec0       ??__EmaxV4Error@_VecMathTests@aos@shdfnd@physx@@YAXXZ 0000000180002ec0 f   GuPCMContactConvexCommon.obj
 0001:00001ed0       ??__EminFError@_VecMathTests@aos@shdfnd@physx@@YAXXZ 0000000180002ed0 f   GuPCMContactConvexCommon.obj
 0001:00001ee0       ??__EminV3Error@_VecMathTests@aos@shdfnd@physx@@YAXXZ 0000000180002ee0 f   GuPCMContactConvexCommon.obj
 0001:00001ef0       ??__EminV4Error@_VecMathTests@aos@shdfnd@physx@@YAXXZ 0000000180002ef0 f   GuPCMContactConvexCommon.obj
 0001:00001f00       ??__EmaxFError@_VecMathTests@aos@shdfnd@physx@@YAXXZ 0000000180002f00 f   GuPCMContactConvexConvex.obj
 0001:00001f10       ??__EmaxV3Error@_VecMathTests@aos@shdfnd@physx@@YAXXZ 0000000180002f10 f   GuPCMContactConvexConvex.obj
 0001:00001f20       ??__EmaxV4Error@_VecMathTests@aos@shdfnd@physx@@YAXXZ 0000000180002f20 f   GuPCMContactConvexConvex.obj
 0001:00001f30       ??__EminFError@_VecMathTests@aos@shdfnd@physx@@YAXXZ 0000000180002f30 f   GuPCMContactConvexConvex.obj
 0001:00001f40       ??__EminV3Error@_VecMathTests@aos@shdfnd@physx@@YAXXZ 0000000180002f40 f   GuPCMContactConvexConvex.obj
 0001:00001f50       ??__EminV4Error@_VecMathTests@aos@shdfnd@physx@@YAXXZ 0000000180002f50 f   GuPCMContactConvexConvex.obj
 0001:00001f60       ??__EmaxFError@_VecMathTests@aos@shdfnd@physx@@YAXXZ 0000000180002f60 f   GuPCMContactConvexHeightField.obj
 0001:00001f70       ??__EmaxV3Error@_VecMathTests@aos@shdfnd@physx@@YAXXZ 0000000180002f70 f   GuPCMContactConvexHeightField.obj
 0001:00001f80       ??__EmaxV4Error@_VecMathTests@aos@shdfnd@physx@@YAXXZ 0000000180002f80 f   GuPCMContactConvexHeightField.obj
 0001:00001f90       ??__EminFError@_VecMathTests@aos@shdfnd@physx@@YAXXZ 0000000180002f90 f   GuPCMContactConvexHeightField.obj
 0001:00001fa0       ??__EminV3Error@_VecMathTests@aos@shdfnd@physx@@YAXXZ 0000000180002fa0 f   GuPCMContactConvexHeightField.obj
 0001:00001fb0       ??__EminV4Error@_VecMathTests@aos@shdfnd@physx@@YAXXZ 0000000180002fb0 f   GuPCMContactConvexHeightField.obj
 0001:00001fc0       ??__EmaxFError@_VecMathTests@aos@shdfnd@physx@@YAXXZ 0000000180002fc0 f   GuPCMContactConvexMesh.obj
 0001:00001fd0       ??__EmaxV3Error@_VecMathTests@aos@shdfnd@physx@@YAXXZ 0000000180002fd0 f   GuPCMContactConvexMesh.obj
 0001:00001fe0       ??__EmaxV4Error@_VecMathTests@aos@shdfnd@physx@@YAXXZ 0000000180002fe0 f   GuPCMContactConvexMesh.obj
 0001:00001ff0       ??__EminFError@_VecMathTests@aos@shdfnd@physx@@YAXXZ 0000000180002ff0 f   GuPCMContactConvexMesh.obj
 0001:00002000       ??__EminV3Error@_VecMathTests@aos@shdfnd@physx@@YAXXZ 0000000180003000 f   GuPCMContactConvexMesh.obj
 0001:00002010       ??__EminV4Error@_VecMathTests@aos@shdfnd@physx@@YAXXZ 0000000180003010 f   GuPCMContactConvexMesh.obj
 0001:00002020       ??__EmaxFError@_VecMathTests@aos@shdfnd@physx@@YAXXZ 0000000180003020 f   GuPCMContactGenBoxConvex.obj
 0001:00002030       ??__EmaxV3Error@_VecMathTests@aos@shdfnd@physx@@YAXXZ 0000000180003030 f   GuPCMContactGenBoxConvex.obj
 0001:00002040       ??__EmaxV4Error@_VecMathTests@aos@shdfnd@physx@@YAXXZ 0000000180003040 f   GuPCMContactGenBoxConvex.obj
 0001:00002050       ??__EminFError@_VecMathTests@aos@shdfnd@physx@@YAXXZ 0000000180003050 f   GuPCMContactGenBoxConvex.obj
 0001:00002060       ??__EminV3Error@_VecMathTests@aos@shdfnd@physx@@YAXXZ 0000000180003060 f   GuPCMContactGenBoxConvex.obj
 0001:00002070       ??__EminV4Error@_VecMathTests@aos@shdfnd@physx@@YAXXZ 0000000180003070 f   GuPCMContactGenBoxConvex.obj
 0001:00002080       ??__EmaxFError@_VecMathTests@aos@shdfnd@physx@@YAXXZ 0000000180003080 f   GuPCMContactGenSphereCapsule.obj
 0001:00002090       ??__EmaxV3Error@_VecMathTests@aos@shdfnd@physx@@YAXXZ 0000000180003090 f   GuPCMContactGenSphereCapsule.obj
 0001:000020a0       ??__EmaxV4Error@_VecMathTests@aos@shdfnd@physx@@YAXXZ 00000001800030a0 f   GuPCMContactGenSphereCapsule.obj
 0001:000020b0       ??__EminFError@_VecMathTests@aos@shdfnd@physx@@YAXXZ 00000001800030b0 f   GuPCMContactGenSphereCapsule.obj
 0001:000020c0       ??__EminV3Error@_VecMathTests@aos@shdfnd@physx@@YAXXZ 00000001800030c0 f   GuPCMContactGenSphereCapsule.obj
 0001:000020d0       ??__EminV4Error@_VecMathTests@aos@shdfnd@physx@@YAXXZ 00000001800030d0 f   GuPCMContactGenSphereCapsule.obj
 0001:000020e0       ??__EmaxFError@_VecMathTests@aos@shdfnd@physx@@YAXXZ 00000001800030e0 f   GuPCMContactPlaneBox.obj
 0001:000020f0       ??__EmaxV3Error@_VecMathTests@aos@shdfnd@physx@@YAXXZ 00000001800030f0 f   GuPCMContactPlaneBox.obj
 0001:00002100       ??__EmaxV4Error@_VecMathTests@aos@shdfnd@physx@@YAXXZ 0000000180003100 f   GuPCMContactPlaneBox.obj
 0001:00002110       ??__EminFError@_VecMathTests@aos@shdfnd@physx@@YAXXZ 0000000180003110 f   GuPCMContactPlaneBox.obj
 0001:00002120       ??__EminV3Error@_VecMathTests@aos@shdfnd@physx@@YAXXZ 0000000180003120 f   GuPCMContactPlaneBox.obj
 0001:00002130       ??__EminV4Error@_VecMathTests@aos@shdfnd@physx@@YAXXZ 0000000180003130 f   GuPCMContactPlaneBox.obj
 0001:00002140       ??__EmaxFError@_VecMathTests@aos@shdfnd@physx@@YAXXZ 0000000180003140 f   GuPCMContactPlaneCapsule.obj
 0001:00002150       ??__EmaxV3Error@_VecMathTests@aos@shdfnd@physx@@YAXXZ 0000000180003150 f   GuPCMContactPlaneCapsule.obj
 0001:00002160       ??__EmaxV4Error@_VecMathTests@aos@shdfnd@physx@@YAXXZ 0000000180003160 f   GuPCMContactPlaneCapsule.obj
 0001:00002170       ??__EminFError@_VecMathTests@aos@shdfnd@physx@@YAXXZ 0000000180003170 f   GuPCMContactPlaneCapsule.obj
 0001:00002180       ??__EminV3Error@_VecMathTests@aos@shdfnd@physx@@YAXXZ 0000000180003180 f   GuPCMContactPlaneCapsule.obj
 0001:00002190       ??__EminV4Error@_VecMathTests@aos@shdfnd@physx@@YAXXZ 0000000180003190 f   GuPCMContactPlaneCapsule.obj
 0001:000021a0       ??__EmaxFError@_VecMathTests@aos@shdfnd@physx@@YAXXZ 00000001800031a0 f   GuPCMContactPlaneConvex.obj
 0001:000021b0       ??__EmaxV3Error@_VecMathTests@aos@shdfnd@physx@@YAXXZ 00000001800031b0 f   GuPCMContactPlaneConvex.obj
 0001:000021c0       ??__EmaxV4Error@_VecMathTests@aos@shdfnd@physx@@YAXXZ 00000001800031c0 f   GuPCMContactPlaneConvex.obj
 0001:000021d0       ??__EminFError@_VecMathTests@aos@shdfnd@physx@@YAXXZ 00000001800031d0 f   GuPCMContactPlaneConvex.obj
 0001:000021e0       ??__EminV3Error@_VecMathTests@aos@shdfnd@physx@@YAXXZ 00000001800031e0 f   GuPCMContactPlaneConvex.obj
 0001:000021f0       ??__EminV4Error@_VecMathTests@aos@shdfnd@physx@@YAXXZ 00000001800031f0 f   GuPCMContactPlaneConvex.obj
 0001:00002200       ??__EmaxFError@_VecMathTests@aos@shdfnd@physx@@YAXXZ 0000000180003200 f   GuPCMContactSphereBox.obj
 0001:00002210       ??__EmaxV3Error@_VecMathTests@aos@shdfnd@physx@@YAXXZ 0000000180003210 f   GuPCMContactSphereBox.obj
 0001:00002220       ??__EmaxV4Error@_VecMathTests@aos@shdfnd@physx@@YAXXZ 0000000180003220 f   GuPCMContactSphereBox.obj
 0001:00002230       ??__EminFError@_VecMathTests@aos@shdfnd@physx@@YAXXZ 0000000180003230 f   GuPCMContactSphereBox.obj
 0001:00002240       ??__EminV3Error@_VecMathTests@aos@shdfnd@physx@@YAXXZ 0000000180003240 f   GuPCMContactSphereBox.obj
 0001:00002250       ??__EminV4Error@_VecMathTests@aos@shdfnd@physx@@YAXXZ 0000000180003250 f   GuPCMContactSphereBox.obj
 0001:00002260       ??__EmaxFError@_VecMathTests@aos@shdfnd@physx@@YAXXZ 0000000180003260 f   GuPCMContactSphereCapsule.obj
 0001:00002270       ??__EmaxV3Error@_VecMathTests@aos@shdfnd@physx@@YAXXZ 0000000180003270 f   GuPCMContactSphereCapsule.obj
 0001:00002280       ??__EmaxV4Error@_VecMathTests@aos@shdfnd@physx@@YAXXZ 0000000180003280 f   GuPCMContactSphereCapsule.obj
 0001:00002290       ??__EminFError@_VecMathTests@aos@shdfnd@physx@@YAXXZ 0000000180003290 f   GuPCMContactSphereCapsule.obj
 0001:000022a0       ??__EminV3Error@_VecMathTests@aos@shdfnd@physx@@YAXXZ 00000001800032a0 f   GuPCMContactSphereCapsule.obj
 0001:000022b0       ??__EminV4Error@_VecMathTests@aos@shdfnd@physx@@YAXXZ 00000001800032b0 f   GuPCMContactSphereCapsule.obj
 0001:000022c0       ??__EmaxFError@_VecMathTests@aos@shdfnd@physx@@YAXXZ 00000001800032c0 f   GuPCMContactSphereConvex.obj
 0001:000022d0       ??__EmaxV3Error@_VecMathTests@aos@shdfnd@physx@@YAXXZ 00000001800032d0 f   GuPCMContactSphereConvex.obj
 0001:000022e0       ??__EmaxV4Error@_VecMathTests@aos@shdfnd@physx@@YAXXZ 00000001800032e0 f   GuPCMContactSphereConvex.obj
 0001:000022f0       ??__EminFError@_VecMathTests@aos@shdfnd@physx@@YAXXZ 00000001800032f0 f   GuPCMContactSphereConvex.obj
 0001:00002300       ??__EminV3Error@_VecMathTests@aos@shdfnd@physx@@YAXXZ 0000000180003300 f   GuPCMContactSphereConvex.obj
 0001:00002310       ??__EminV4Error@_VecMathTests@aos@shdfnd@physx@@YAXXZ 0000000180003310 f   GuPCMContactSphereConvex.obj
 0001:00002320       ??__EmaxFError@_VecMathTests@aos@shdfnd@physx@@YAXXZ 0000000180003320 f   GuPCMContactSphereHeightField.obj
 0001:00002330       ??__EmaxV3Error@_VecMathTests@aos@shdfnd@physx@@YAXXZ 0000000180003330 f   GuPCMContactSphereHeightField.obj
 0001:00002340       ??__EmaxV4Error@_VecMathTests@aos@shdfnd@physx@@YAXXZ 0000000180003340 f   GuPCMContactSphereHeightField.obj
 0001:00002350       ??__EminFError@_VecMathTests@aos@shdfnd@physx@@YAXXZ 0000000180003350 f   GuPCMContactSphereHeightField.obj
 0001:00002360       ??__EminV3Error@_VecMathTests@aos@shdfnd@physx@@YAXXZ 0000000180003360 f   GuPCMContactSphereHeightField.obj
 0001:00002370       ??__EminV4Error@_VecMathTests@aos@shdfnd@physx@@YAXXZ 0000000180003370 f   GuPCMContactSphereHeightField.obj
 0001:00002380       ??__EmaxFError@_VecMathTests@aos@shdfnd@physx@@YAXXZ 0000000180003380 f   GuPCMContactSphereMesh.obj
 0001:00002390       ??__EmaxV3Error@_VecMathTests@aos@shdfnd@physx@@YAXXZ 0000000180003390 f   GuPCMContactSphereMesh.obj
 0001:000023a0       ??__EmaxV4Error@_VecMathTests@aos@shdfnd@physx@@YAXXZ 00000001800033a0 f   GuPCMContactSphereMesh.obj
 0001:000023b0       ??__EminFError@_VecMathTests@aos@shdfnd@physx@@YAXXZ 00000001800033b0 f   GuPCMContactSphereMesh.obj
 0001:000023c0       ??__EminV3Error@_VecMathTests@aos@shdfnd@physx@@YAXXZ 00000001800033c0 f   GuPCMContactSphereMesh.obj
 0001:000023d0       ??__EminV4Error@_VecMathTests@aos@shdfnd@physx@@YAXXZ 00000001800033d0 f   GuPCMContactSphereMesh.obj
 0001:000023e0       ??__EmaxFError@_VecMathTests@aos@shdfnd@physx@@YAXXZ 00000001800033e0 f   GuPCMContactSpherePlane.obj
 0001:000023f0       ??__EmaxV3Error@_VecMathTests@aos@shdfnd@physx@@YAXXZ 00000001800033f0 f   GuPCMContactSpherePlane.obj
 0001:00002400       ??__EmaxV4Error@_VecMathTests@aos@shdfnd@physx@@YAXXZ 0000000180003400 f   GuPCMContactSpherePlane.obj
 0001:00002410       ??__EminFError@_VecMathTests@aos@shdfnd@physx@@YAXXZ 0000000180003410 f   GuPCMContactSpherePlane.obj
 0001:00002420       ??__EminV3Error@_VecMathTests@aos@shdfnd@physx@@YAXXZ 0000000180003420 f   GuPCMContactSpherePlane.obj
 0001:00002430       ??__EminV4Error@_VecMathTests@aos@shdfnd@physx@@YAXXZ 0000000180003430 f   GuPCMContactSpherePlane.obj
 0001:00002440       ??__EmaxFError@_VecMathTests@aos@shdfnd@physx@@YAXXZ 0000000180003440 f   GuPCMContactSphereSphere.obj
 0001:00002450       ??__EmaxV3Error@_VecMathTests@aos@shdfnd@physx@@YAXXZ 0000000180003450 f   GuPCMContactSphereSphere.obj
 0001:00002460       ??__EmaxV4Error@_VecMathTests@aos@shdfnd@physx@@YAXXZ 0000000180003460 f   GuPCMContactSphereSphere.obj
 0001:00002470       ??__EminFError@_VecMathTests@aos@shdfnd@physx@@YAXXZ 0000000180003470 f   GuPCMContactSphereSphere.obj
 0001:00002480       ??__EminV3Error@_VecMathTests@aos@shdfnd@physx@@YAXXZ 0000000180003480 f   GuPCMContactSphereSphere.obj
 0001:00002490       ??__EminV4Error@_VecMathTests@aos@shdfnd@physx@@YAXXZ 0000000180003490 f   GuPCMContactSphereSphere.obj
 0001:000024a0       ??__EmaxFError@_VecMathTests@aos@shdfnd@physx@@YAXXZ 00000001800034a0 f   GuPCMShapeConvex.obj
 0001:000024b0       ??__EmaxV3Error@_VecMathTests@aos@shdfnd@physx@@YAXXZ 00000001800034b0 f   GuPCMShapeConvex.obj
 0001:000024c0       ??__EmaxV4Error@_VecMathTests@aos@shdfnd@physx@@YAXXZ 00000001800034c0 f   GuPCMShapeConvex.obj
 0001:000024d0       ??__EminFError@_VecMathTests@aos@shdfnd@physx@@YAXXZ 00000001800034d0 f   GuPCMShapeConvex.obj
 0001:000024e0       ??__EminV3Error@_VecMathTests@aos@shdfnd@physx@@YAXXZ 00000001800034e0 f   GuPCMShapeConvex.obj
 0001:000024f0       ??__EminV4Error@_VecMathTests@aos@shdfnd@physx@@YAXXZ 00000001800034f0 f   GuPCMShapeConvex.obj
 0001:00002500       ??__EmaxFError@_VecMathTests@aos@shdfnd@physx@@YAXXZ 0000000180003500 f   GuPCMTriangleContactGen.obj
 0001:00002510       ??__EmaxV3Error@_VecMathTests@aos@shdfnd@physx@@YAXXZ 0000000180003510 f   GuPCMTriangleContactGen.obj
 0001:00002520       ??__EmaxV4Error@_VecMathTests@aos@shdfnd@physx@@YAXXZ 0000000180003520 f   GuPCMTriangleContactGen.obj
 0001:00002530       ??__EminFError@_VecMathTests@aos@shdfnd@physx@@YAXXZ 0000000180003530 f   GuPCMTriangleContactGen.obj
 0001:00002540       ??__EminV3Error@_VecMathTests@aos@shdfnd@physx@@YAXXZ 0000000180003540 f   GuPCMTriangleContactGen.obj
 0001:00002550       ??__EminV4Error@_VecMathTests@aos@shdfnd@physx@@YAXXZ 0000000180003550 f   GuPCMTriangleContactGen.obj
 0001:00002560       ??__EmaxFError@_VecMathTests@aos@shdfnd@physx@@YAXXZ 0000000180003560 f   GuPersistentContactManifold.obj
 0001:00002570       ??__EmaxV3Error@_VecMathTests@aos@shdfnd@physx@@YAXXZ 0000000180003570 f   GuPersistentContactManifold.obj
 0001:00002580       ??__EmaxV4Error@_VecMathTests@aos@shdfnd@physx@@YAXXZ 0000000180003580 f   GuPersistentContactManifold.obj
 0001:00002590       ??__EminFError@_VecMathTests@aos@shdfnd@physx@@YAXXZ 0000000180003590 f   GuPersistentContactManifold.obj
 0001:000025a0       ??__EminV3Error@_VecMathTests@aos@shdfnd@physx@@YAXXZ 00000001800035a0 f   GuPersistentContactManifold.obj
 0001:000025b0       ??__EminV4Error@_VecMathTests@aos@shdfnd@physx@@YAXXZ 00000001800035b0 f   GuPersistentContactManifold.obj
 0001:000025c0       ??__EmaxFError@_VecMathTests@aos@shdfnd@physx@@YAXXZ 00000001800035c0 f   GuSweepBoxBox.obj
 0001:000025d0       ??__EmaxV3Error@_VecMathTests@aos@shdfnd@physx@@YAXXZ 00000001800035d0 f   GuSweepBoxBox.obj
 0001:000025e0       ??__EmaxV4Error@_VecMathTests@aos@shdfnd@physx@@YAXXZ 00000001800035e0 f   GuSweepBoxBox.obj
 0001:000025f0       ??__EminFError@_VecMathTests@aos@shdfnd@physx@@YAXXZ 00000001800035f0 f   GuSweepBoxBox.obj
 0001:00002600       ??__EminV3Error@_VecMathTests@aos@shdfnd@physx@@YAXXZ 0000000180003600 f   GuSweepBoxBox.obj
 0001:00002610       ??__EminV4Error@_VecMathTests@aos@shdfnd@physx@@YAXXZ 0000000180003610 f   GuSweepBoxBox.obj
 0001:00002620       ??__EmaxFError@_VecMathTests@aos@shdfnd@physx@@YAXXZ 0000000180003620 f   GuSweepBoxSphere.obj
 0001:00002630       ??__EmaxV3Error@_VecMathTests@aos@shdfnd@physx@@YAXXZ 0000000180003630 f   GuSweepBoxSphere.obj
 0001:00002640       ??__EmaxV4Error@_VecMathTests@aos@shdfnd@physx@@YAXXZ 0000000180003640 f   GuSweepBoxSphere.obj
 0001:00002650       ??__EminFError@_VecMathTests@aos@shdfnd@physx@@YAXXZ 0000000180003650 f   GuSweepBoxSphere.obj
 0001:00002660       ??__EminV3Error@_VecMathTests@aos@shdfnd@physx@@YAXXZ 0000000180003660 f   GuSweepBoxSphere.obj
 0001:00002670       ??__EminV4Error@_VecMathTests@aos@shdfnd@physx@@YAXXZ 0000000180003670 f   GuSweepBoxSphere.obj
 0001:00002680       ??__EmaxFError@_VecMathTests@aos@shdfnd@physx@@YAXXZ 0000000180003680 f   GuSweepBoxTriangle_FeatureBased.obj
 0001:00002690       ??__EmaxV3Error@_VecMathTests@aos@shdfnd@physx@@YAXXZ 0000000180003690 f   GuSweepBoxTriangle_FeatureBased.obj
 0001:000026a0       ??__EmaxV4Error@_VecMathTests@aos@shdfnd@physx@@YAXXZ 00000001800036a0 f   GuSweepBoxTriangle_FeatureBased.obj
 0001:000026b0       ??__EminFError@_VecMathTests@aos@shdfnd@physx@@YAXXZ 00000001800036b0 f   GuSweepBoxTriangle_FeatureBased.obj
 0001:000026c0       ??__EminV3Error@_VecMathTests@aos@shdfnd@physx@@YAXXZ 00000001800036c0 f   GuSweepBoxTriangle_FeatureBased.obj
 0001:000026d0       ??__EminV4Error@_VecMathTests@aos@shdfnd@physx@@YAXXZ 00000001800036d0 f   GuSweepBoxTriangle_FeatureBased.obj
 0001:000026e0       ??__EmaxFError@_VecMathTests@aos@shdfnd@physx@@YAXXZ 00000001800036e0 f   GuSweepBoxTriangle_SAT.obj
 0001:000026f0       ??__EmaxV3Error@_VecMathTests@aos@shdfnd@physx@@YAXXZ 00000001800036f0 f   GuSweepBoxTriangle_SAT.obj
 0001:00002700       ??__EmaxV4Error@_VecMathTests@aos@shdfnd@physx@@YAXXZ 0000000180003700 f   GuSweepBoxTriangle_SAT.obj
 0001:00002710       ??__EminFError@_VecMathTests@aos@shdfnd@physx@@YAXXZ 0000000180003710 f   GuSweepBoxTriangle_SAT.obj
 0001:00002720       ??__EminV3Error@_VecMathTests@aos@shdfnd@physx@@YAXXZ 0000000180003720 f   GuSweepBoxTriangle_SAT.obj
 0001:00002730       ??__EminV4Error@_VecMathTests@aos@shdfnd@physx@@YAXXZ 0000000180003730 f   GuSweepBoxTriangle_SAT.obj
 0001:00002740       ??__EmaxFError@_VecMathTests@aos@shdfnd@physx@@YAXXZ 0000000180003740 f   GuSweepCapsuleBox.obj
 0001:00002750       ??__EmaxV3Error@_VecMathTests@aos@shdfnd@physx@@YAXXZ 0000000180003750 f   GuSweepCapsuleBox.obj
 0001:00002760       ??__EmaxV4Error@_VecMathTests@aos@shdfnd@physx@@YAXXZ 0000000180003760 f   GuSweepCapsuleBox.obj
 0001:00002770       ??__EminFError@_VecMathTests@aos@shdfnd@physx@@YAXXZ 0000000180003770 f   GuSweepCapsuleBox.obj
 0001:00002780       ??__EminV3Error@_VecMathTests@aos@shdfnd@physx@@YAXXZ 0000000180003780 f   GuSweepCapsuleBox.obj
 0001:00002790       ??__EminV4Error@_VecMathTests@aos@shdfnd@physx@@YAXXZ 0000000180003790 f   GuSweepCapsuleBox.obj
 0001:000027a0       ??__EmaxFError@_VecMathTests@aos@shdfnd@physx@@YAXXZ 00000001800037a0 f   GuSweepCapsuleTriangle.obj
 0001:000027b0       ??__EmaxV3Error@_VecMathTests@aos@shdfnd@physx@@YAXXZ 00000001800037b0 f   GuSweepCapsuleTriangle.obj
 0001:000027c0       ??__EmaxV4Error@_VecMathTests@aos@shdfnd@physx@@YAXXZ 00000001800037c0 f   GuSweepCapsuleTriangle.obj
 0001:000027d0       ??__EminFError@_VecMathTests@aos@shdfnd@physx@@YAXXZ 00000001800037d0 f   GuSweepCapsuleTriangle.obj
 0001:000027e0       ??__EminV3Error@_VecMathTests@aos@shdfnd@physx@@YAXXZ 00000001800037e0 f   GuSweepCapsuleTriangle.obj
 0001:000027f0       ??__EminV4Error@_VecMathTests@aos@shdfnd@physx@@YAXXZ 00000001800037f0 f   GuSweepCapsuleTriangle.obj
 0001:00002800       ??__EmaxFError@_VecMathTests@aos@shdfnd@physx@@YAXXZ 0000000180003800 f   GuSweepSphereTriangle.obj
 0001:00002810       ??__EmaxV3Error@_VecMathTests@aos@shdfnd@physx@@YAXXZ 0000000180003810 f   GuSweepSphereTriangle.obj
 0001:00002820       ??__EmaxV4Error@_VecMathTests@aos@shdfnd@physx@@YAXXZ 0000000180003820 f   GuSweepSphereTriangle.obj
 0001:00002830       ??__EminFError@_VecMathTests@aos@shdfnd@physx@@YAXXZ 0000000180003830 f   GuSweepSphereTriangle.obj
 0001:00002840       ??__EminV3Error@_VecMathTests@aos@shdfnd@physx@@YAXXZ 0000000180003840 f   GuSweepSphereTriangle.obj
 0001:00002850       ??__EminV4Error@_VecMathTests@aos@shdfnd@physx@@YAXXZ 0000000180003850 f   GuSweepSphereTriangle.obj
 0001:00002860       ??__EmaxFError@_VecMathTests@aos@shdfnd@physx@@YAXXZ 0000000180003860 f   GuSweepTriangleUtils.obj
 0001:00002870       ??__EmaxV3Error@_VecMathTests@aos@shdfnd@physx@@YAXXZ 0000000180003870 f   GuSweepTriangleUtils.obj
 0001:00002880       ??__EmaxV4Error@_VecMathTests@aos@shdfnd@physx@@YAXXZ 0000000180003880 f   GuSweepTriangleUtils.obj
 0001:00002890       ??__EminFError@_VecMathTests@aos@shdfnd@physx@@YAXXZ 0000000180003890 f   GuSweepTriangleUtils.obj
 0001:000028a0       ??__EminV3Error@_VecMathTests@aos@shdfnd@physx@@YAXXZ 00000001800038a0 f   GuSweepTriangleUtils.obj
 0001:000028b0       ??__EminV4Error@_VecMathTests@aos@shdfnd@physx@@YAXXZ 00000001800038b0 f   GuSweepTriangleUtils.obj
 0001:00009390       $LN24                      000000018000a390     CmWindowsDelayLoadHook.obj
 0001:0000a654       $LN727                     000000018000b654     GuBounds.obj
 0001:0000a828       $LN78                      000000018000b828     GuBounds.obj
 0001:0000a890       ?computeMeshBounds@@YAXAEBVPxVec3@physx@@AEBVPxMat33Padded@Gu@2@PEIBVCenterExtentsPadded@42@AEBVPxMeshScale@2@AEAVVec3p@42@4@Z 000000018000b890 f   GuBounds.obj
 0001:0000b030       ?computePlaneBounds@@YAXAEAVPxBounds3@physx@@AEBVPxTransform@2@MM@Z 000000018000c030 f   GuBounds.obj
 0001:0000b2d0       ?computeScaledMatrix@@YAXAEAVPxMat33Padded@Gu@physx@@AEBVPxMeshScale@3@@Z 000000018000c2d0 f   GuBounds.obj
 0001:0000c810       ??_GLocalReport@?1??sweepBox_HeightFieldGeom_Precise@@YA_NAEBVPxGeometry@physx@@AEBVPxTransform@3@AEBVPxBoxGeometry@3@1AEBVBox@Gu@3@AEBVPxVec3@3@MAEAUPxSweepHit@3@V?$PxFlags@W4Enum@PxHitFlag@physx@@G@3@M@Z@UEAAPEAXI@Z 000000018000d810 f   GuCCTSweepTests.obj
 0001:0000c810       ??_GHfTrianglesEntityReport2@?A0x2e6dc280@@UEAAPEAXI@Z 000000018000d810 f   GuMeshQuery.obj
 0001:0000d460       ?onEvent@LocalReport@?1??sweepBox_HeightFieldGeom_Precise@@YA_NAEBVPxGeometry@physx@@AEBVPxTransform@4@AEBVPxBoxGeometry@4@1AEBVBox@Gu@4@AEBVPxVec3@4@MAEAUPxSweepHit@4@V?$PxFlags@W4Enum@PxHitFlag@physx@@G@4@M@Z@UEAA_NIPEAI@Z 000000018000e460 f   GuCCTSweepTests.obj
 0001:0000d750       ?sweepBoxVsTriangles@@YA_NIPEBVPxTriangle@physx@@AEBVBox@Gu@2@AEBVPxVec3@2@MAEAUPxSweepHit@2@V?$PxFlags@W4Enum@PxHitFlag@physx@@G@2@_NPEBI@Z 000000018000e750 f   GuCCTSweepTests.obj
 0001:00010484       $LN269                     0000000180011484     GuGeometryQuery.obj
 0001:00010de4       $LN226                     0000000180011de4     GuGeometryQuery.obj
 0001:00011124       $LN46                      0000000180012124     GuGeometryUnion.obj
 0001:000134b0       ?loadMeshData@@YAPEAVTriangleMeshData@Gu@physx@@AEAVPxInputStream@3@@Z 00000001800144b0 f   GuMeshFactory.obj
 0001:00016860       ?getBinaryMetaData@ShadowConvexMeshGeometry@?1??0GeometryUnion@Gu@physx@@SAXAEAVPxOutputStream@4@@Z@SAX0@Z 0000000180017860 f   GuMetaData.obj
 0001:00016ad0       ?getBinaryMetaData@ShadowHeightFieldGeometry@?1??0GeometryUnion@Gu@physx@@SAXAEAVPxOutputStream@4@@Z@SAX0@Z 0000000180017ad0 f   GuMetaData.obj
 0001:00016d70       ?getBinaryMetaData@ShadowTriangleMeshGeometry@?1??0GeometryUnion@Gu@physx@@SAXAEAVPxOutputStream@4@@Z@SAX0@Z 0000000180017d70 f   GuMetaData.obj
 0001:00017840       ?getBinaryMetaData_BVDataPackedQ@@YAXAEAVPxOutputStream@physx@@@Z 0000000180018840 f   GuMetaData.obj
 0001:00017ac0       ?getBinaryMetaData_BigConvexRawData@@YAXAEAVPxOutputStream@physx@@@Z 0000000180018ac0 f   GuMetaData.obj
 0001:00017cf0       ?getBinaryMetaData_ConvexHullData@@YAXAEAVPxOutputStream@physx@@@Z 0000000180018cf0 f   GuMetaData.obj
 0001:00017f60       ?getBinaryMetaData_HeightFieldData@@YAXAEAVPxOutputStream@physx@@@Z 0000000180018f60 f   GuMetaData.obj
 0001:00018290       ?getBinaryMetaData_RTreePage@@YAXAEAVPxOutputStream@physx@@@Z 0000000180019290 f   GuMetaData.obj
 0001:00018bf0       ?GeomMTDCallback_NotSupported@@YA_NAEAVPxVec3@physx@@AEAMAEBVPxGeometry@2@AEBVPxTransform@2@23@Z 0000000180019bf0 f   GuMTD.obj
